	.file	"copy.c"
	.text
.Ltext0:
	.globl	write_read
	.type	write_read, @function
write_read:
.LFB56:
	.file 1 "copy.c"
	.loc 1 15 0
	.cfi_startproc
.LVL0:
	.loc 1 19 0
	testq	%rdx, %rdx
	je	.L1
	.loc 1 17 0
	movl	$0, %eax
.LVL1:
.L3:
	.loc 1 20 0
	movq	%rax, (%rsi)
	.loc 1 21 0
	movq	(%rdi), %rax
.LVL2:
	addq	$1, %rax
.LVL3:
	.loc 1 19 0
	subq	$1, %rdx
.LVL4:
	jne	.L3
.LVL5:
.L1:
	rep; ret
	.cfi_endproc
.LFE56:
	.size	write_read, .-write_read
	.globl	array_copy
	.type	array_copy, @function
array_copy:
.LFB60:
	.loc 1 63 0
	.cfi_startproc
.LVL6:
	.loc 1 65 0
	testq	%rdx, %rdx
	jle	.L4
	movl	$0, %eax
.LVL7:
.L6:
	.loc 1 66 0 discriminator 2
	movq	(%rdi,%rax,8), %rcx
	movq	%rcx, (%rsi,%rax,8)
	.loc 1 65 0 discriminator 2
	addq	$1, %rax
.LVL8:
	cmpq	%rdx, %rax
	jne	.L6
.LVL9:
.L4:
	rep; ret
	.cfi_endproc
.LFE60:
	.size	array_copy, .-array_copy
	.globl	array_clear
	.type	array_clear, @function
array_clear:
.LFB61:
	.loc 1 71 0
	.cfi_startproc
.LVL10:
	.loc 1 74 0
	testq	%rdx, %rdx
	jle	.L7
	movq	%rsi, %rax
	leaq	(%rsi,%rdx,8), %rdx
.LVL11:
.L9:
	.loc 1 75 0 discriminator 2
	movq	$0, (%rax)
	addq	$8, %rax
	.loc 1 74 0 discriminator 2
	cmpq	%rdx, %rax
	jne	.L9
.L7:
	rep; ret
	.cfi_endproc
.LFE61:
	.size	array_clear, .-array_clear
	.type	array_copy_2, @function
array_copy_2:
.LFB63:
	.loc 1 85 0
	.cfi_startproc
.LVL12:
	.loc 1 87 0
	leaq	-1(%rdx), %r8
.LVL13:
	.loc 1 88 0
	testq	%r8, %r8
	jle	.L15
	movl	$0, %eax
.LVL14:
.L12:
	.loc 1 89 0 discriminator 2
	movq	(%rdi,%rax,8), %rcx
	movq	%rcx, (%rsi,%rax,8)
	.loc 1 90 0 discriminator 2
	movq	8(%rdi,%rax,8), %rcx
	movq	%rcx, 8(%rsi,%rax,8)
	.loc 1 88 0 discriminator 2
	addq	$2, %rax
.LVL15:
	cmpq	%rax, %r8
	jg	.L12
	jmp	.L11
.LVL16:
.L15:
	.loc 1 88 0 is_stmt 0
	movl	$0, %eax
.LVL17:
.L11:
	.loc 1 92 0 is_stmt 1 discriminator 1
	cmpq	%rax, %rdx
	jle	.L10
.L14:
	.loc 1 93 0 discriminator 2
	movq	(%rdi,%rax,8), %rcx
	movq	%rcx, (%rsi,%rax,8)
	.loc 1 92 0 discriminator 2
	addq	$1, %rax
.LVL18:
	cmpq	%rdx, %rax
	jne	.L14
.L10:
	rep; ret
	.cfi_endproc
.LFE63:
	.size	array_copy_2, .-array_copy_2
	.type	array_clear_2, @function
array_clear_2:
.LFB64:
	.loc 1 97 0
	.cfi_startproc
.LVL19:
	.loc 1 99 0
	leaq	-1(%rdx), %rcx
.LVL20:
	.loc 1 100 0
	testq	%rcx, %rcx
	jle	.L21
	movl	$0, %eax
.LVL21:
.L18:
	.loc 1 101 0 discriminator 2
	movq	$0, (%rsi,%rax,8)
	.loc 1 102 0 discriminator 2
	movq	$0, 8(%rsi,%rax,8)
	.loc 1 100 0 discriminator 2
	addq	$2, %rax
.LVL22:
	cmpq	%rax, %rcx
	jg	.L18
	jmp	.L17
.LVL23:
.L21:
	.loc 1 100 0 is_stmt 0
	movl	$0, %eax
.LVL24:
.L17:
	.loc 1 104 0 is_stmt 1 discriminator 1
	cmpq	%rax, %rdx
	jle	.L16
.L20:
	.loc 1 105 0 discriminator 2
	movq	$0, (%rsi,%rax,8)
	.loc 1 104 0 discriminator 2
	addq	$1, %rax
.LVL25:
	cmpq	%rdx, %rax
	jne	.L20
.L16:
	rep; ret
	.cfi_endproc
.LFE64:
	.size	array_clear_2, .-array_clear_2
	.type	array_copy_4, @function
array_copy_4:
.LFB65:
	.loc 1 109 0
	.cfi_startproc
.LVL26:
	.loc 1 111 0
	leaq	-3(%rdx), %r8
.LVL27:
	.loc 1 112 0
	testq	%r8, %r8
	jle	.L27
	movl	$0, %eax
.LVL28:
.L24:
	.loc 1 113 0 discriminator 2
	movq	(%rdi,%rax,8), %rcx
	movq	%rcx, (%rsi,%rax,8)
	.loc 1 114 0 discriminator 2
	movq	8(%rdi,%rax,8), %rcx
	movq	%rcx, 8(%rsi,%rax,8)
	.loc 1 115 0 discriminator 2
	movq	16(%rdi,%rax,8), %rcx
	movq	%rcx, 16(%rsi,%rax,8)
	.loc 1 116 0 discriminator 2
	movq	24(%rdi,%rax,8), %rcx
	movq	%rcx, 24(%rsi,%rax,8)
	.loc 1 112 0 discriminator 2
	addq	$4, %rax
.LVL29:
	cmpq	%rax, %r8
	jg	.L24
	jmp	.L23
.LVL30:
.L27:
	.loc 1 112 0 is_stmt 0
	movl	$0, %eax
.LVL31:
.L23:
	.loc 1 118 0 is_stmt 1 discriminator 1
	cmpq	%rax, %rdx
	jle	.L22
.L26:
	.loc 1 119 0 discriminator 2
	movq	(%rdi,%rax,8), %rcx
	movq	%rcx, (%rsi,%rax,8)
	.loc 1 118 0 discriminator 2
	addq	$1, %rax
.LVL32:
	cmpq	%rdx, %rax
	jne	.L26
.L22:
	rep; ret
	.cfi_endproc
.LFE65:
	.size	array_copy_4, .-array_copy_4
	.type	array_clear_3, @function
array_clear_3:
.LFB66:
	.loc 1 123 0
	.cfi_startproc
.LVL33:
	.loc 1 125 0
	leaq	-2(%rdx), %rcx
.LVL34:
	.loc 1 126 0
	testq	%rcx, %rcx
	jle	.L33
	movl	$0, %eax
.LVL35:
.L30:
	.loc 1 127 0 discriminator 2
	movq	$0, (%rsi,%rax,8)
	.loc 1 128 0 discriminator 2
	movq	$0, 8(%rsi,%rax,8)
	.loc 1 129 0 discriminator 2
	movq	$0, 16(%rsi,%rax,8)
	.loc 1 126 0 discriminator 2
	addq	$3, %rax
.LVL36:
	cmpq	%rax, %rcx
	jg	.L30
	jmp	.L29
.LVL37:
.L33:
	.loc 1 126 0 is_stmt 0
	movl	$0, %eax
.LVL38:
.L29:
	.loc 1 131 0 is_stmt 1 discriminator 1
	cmpq	%rax, %rdx
	jle	.L28
.L32:
	.loc 1 132 0 discriminator 2
	movq	$0, (%rsi,%rax,8)
	.loc 1 131 0 discriminator 2
	addq	$1, %rax
.LVL39:
	cmpq	%rdx, %rax
	jne	.L32
.L28:
	rep; ret
	.cfi_endproc
.LFE66:
	.size	array_clear_3, .-array_clear_3
	.type	array_clear_4, @function
array_clear_4:
.LFB67:
	.loc 1 136 0
	.cfi_startproc
.LVL40:
	.loc 1 138 0
	leaq	-3(%rdx), %rcx
.LVL41:
	.loc 1 139 0
	testq	%rcx, %rcx
	jle	.L39
	movl	$0, %eax
.LVL42:
.L36:
	.loc 1 140 0 discriminator 2
	movq	$0, (%rsi,%rax,8)
	.loc 1 141 0 discriminator 2
	movq	$0, 8(%rsi,%rax,8)
	.loc 1 142 0 discriminator 2
	movq	$0, 16(%rsi,%rax,8)
	.loc 1 143 0 discriminator 2
	movq	$0, 24(%rsi,%rax,8)
	.loc 1 139 0 discriminator 2
	addq	$4, %rax
.LVL43:
	cmpq	%rax, %rcx
	jg	.L36
	jmp	.L35
.LVL44:
.L39:
	.loc 1 139 0 is_stmt 0
	movl	$0, %eax
.LVL45:
.L35:
	.loc 1 145 0 is_stmt 1 discriminator 1
	cmpq	%rax, %rdx
	jle	.L34
.L38:
	.loc 1 146 0 discriminator 2
	movq	$0, (%rsi,%rax,8)
	.loc 1 145 0 discriminator 2
	addq	$1, %rax
.LVL46:
	cmpq	%rdx, %rax
	jne	.L38
.L34:
	rep; ret
	.cfi_endproc
.LFE67:
	.size	array_clear_4, .-array_clear_4
	.type	test2a, @function
test2a:
.LFB68:
	.loc 1 180 0
	.cfi_startproc
.LVL47:
	subq	$8, %rsp
	.cfi_def_cfa_offset 16
	movq	%rdi, %rdx
	.loc 1 181 0
	movl	$data, %esi
	movq	%rsi, %rdi
.LVL48:
	movq	idx(%rip), %rax
	call	*copier(,%rax,8)
.LVL49:
	.loc 1 182 0
	addq	$8, %rsp
	.cfi_def_cfa_offset 8
	ret
	.cfi_endproc
.LFE68:
	.size	test2a, .-test2a
	.type	test2b, @function
test2b:
.LFB69:
	.loc 1 185 0
	.cfi_startproc
.LVL50:
	subq	$8, %rsp
	.cfi_def_cfa_offset 16
	movq	%rdi, %rdx
	.loc 1 186 0
	movl	$data+8, %esi
	movl	$data, %edi
.LVL51:
	movq	idx(%rip), %rax
	call	*copier(,%rax,8)
.LVL52:
	.loc 1 187 0
	addq	$8, %rsp
	.cfi_def_cfa_offset 8
	ret
	.cfi_endproc
.LFE69:
	.size	test2b, .-test2b
	.type	test2c, @function
test2c:
.LFB70:
	.loc 1 190 0
	.cfi_startproc
.LVL53:
	subq	$8, %rsp
	.cfi_def_cfa_offset 16
	movq	%rdi, %rdx
	.loc 1 191 0
	movl	$data, %esi
	movl	$data+8, %edi
.LVL54:
	movq	idx(%rip), %rax
	call	*copier(,%rax,8)
.LVL55:
	.loc 1 192 0
	addq	$8, %rsp
	.cfi_def_cfa_offset 8
	ret
	.cfi_endproc
.LFE70:
	.size	test2c, .-test2c
	.type	test2d, @function
test2d:
.LFB71:
	.loc 1 195 0
	.cfi_startproc
.LVL56:
	subq	$8, %rsp
	.cfi_def_cfa_offset 16
	movq	%rdi, %rdx
	.loc 1 196 0
	movl	$data2, %esi
	movl	$data, %edi
.LVL57:
	movq	idx(%rip), %rax
	call	*copier(,%rax,8)
.LVL58:
	.loc 1 197 0
	addq	$8, %rsp
	.cfi_def_cfa_offset 8
	ret
	.cfi_endproc
.LFE71:
	.size	test2d, .-test2d
	.type	mem_clear, @function
mem_clear:
.LFB62:
	.loc 1 79 0
	.cfi_startproc
.LVL59:
	subq	$8, %rsp
	.cfi_def_cfa_offset 16
	movq	%rsi, %rdi
.LVL60:
	.loc 1 80 0
	salq	$3, %rdx
.LVL61:
.LBB8:
.LBB9:
	.file 2 "/usr/include/x86_64-linux-gnu/bits/string3.h"
	.loc 2 85 0
	movl	$0, %esi
.LVL62:
	call	memset
.LVL63:
.LBE9:
.LBE8:
	.loc 1 81 0
	addq	$8, %rsp
	.cfi_def_cfa_offset 8
	ret
	.cfi_endproc
.LFE62:
	.size	mem_clear, .-mem_clear
	.globl	copy_array
	.type	copy_array, @function
copy_array:
.LFB57:
	.loc 1 30 0
	.cfi_startproc
.LVL64:
	.loc 1 32 0
	testq	%rdx, %rdx
	jle	.L50
	movl	$0, %eax
.LVL65:
.L52:
	.loc 1 33 0 discriminator 2
	movq	(%rdi,%rax,8), %rcx
	movq	%rcx, (%rsi,%rax,8)
	.loc 1 32 0 discriminator 2
	addq	$1, %rax
.LVL66:
	cmpq	%rdx, %rax
	jne	.L52
.LVL67:
.L50:
	rep; ret
	.cfi_endproc
.LFE57:
	.size	copy_array, .-copy_array
	.globl	clear_array
	.type	clear_array, @function
clear_array:
.LFB58:
	.loc 1 39 0
	.cfi_startproc
.LVL68:
	.loc 1 41 0
	testq	%rsi, %rsi
	jle	.L53
	movq	%rdi, %rax
	leaq	(%rdi,%rsi,8), %rdx
.LVL69:
.L55:
	.loc 1 42 0 discriminator 2
	movq	$0, (%rax)
	addq	$8, %rax
	.loc 1 41 0 discriminator 2
	cmpq	%rdx, %rax
	jne	.L55
.L53:
	rep; ret
	.cfi_endproc
.LFE58:
	.size	clear_array, .-clear_array
	.globl	clear_array_4
	.type	clear_array_4, @function
clear_array_4:
.LFB59:
	.loc 1 48 0
	.cfi_startproc
.LVL70:
	.loc 1 50 0
	leaq	-3(%rsi), %rdx
.LVL71:
	.loc 1 51 0
	testq	%rdx, %rdx
	jle	.L61
	movl	$0, %eax
.LVL72:
.L58:
	.loc 1 52 0 discriminator 2
	movq	$0, (%rdi,%rax,8)
	.loc 1 53 0 discriminator 2
	movq	$0, 8(%rdi,%rax,8)
	.loc 1 54 0 discriminator 2
	movq	$0, 16(%rdi,%rax,8)
	.loc 1 55 0 discriminator 2
	movq	$0, 24(%rdi,%rax,8)
	.loc 1 51 0 discriminator 2
	addq	$4, %rax
.LVL73:
	cmpq	%rax, %rdx
	jg	.L58
	jmp	.L57
.LVL74:
.L61:
	.loc 1 51 0 is_stmt 0
	movl	$0, %eax
.LVL75:
.L57:
	.loc 1 57 0 is_stmt 1 discriminator 1
	cmpq	%rax, %rsi
	jle	.L56
.L60:
	.loc 1 58 0 discriminator 2
	movq	$0, (%rdi,%rax,8)
	.loc 1 57 0 discriminator 2
	addq	$1, %rax
.LVL76:
	cmpq	%rsi, %rax
	jne	.L60
.L56:
	rep; ret
	.cfi_endproc
.LFE59:
	.size	clear_array_4, .-clear_array_4
	.section	.rodata.str1.1,"aMS",@progbits,1
.LC0:
	.string	"Description: %s, %s, "
.LC1:
	.string	"CPE = %.2f\n"
	.text
	.globl	main
	.type	main, @function
main:
.LFB73:
	.loc 1 232 0
	.cfi_startproc
	pushq	%r13
	.cfi_def_cfa_offset 16
	.cfi_offset 13, -16
	pushq	%r12
	.cfi_def_cfa_offset 24
	.cfi_offset 12, -24
	pushq	%rbp
	.cfi_def_cfa_offset 32
	.cfi_offset 6, -32
	pushq	%rbx
	.cfi_def_cfa_offset 40
	.cfi_offset 3, -40
	subq	$8, %rsp
	.cfi_def_cfa_offset 48
	.loc 1 236 0
	movq	$0, idx(%rip)
	.loc 1 237 0
	movl	$1024, %esi
	movl	$test2a, %edi
	call	find_cpe
.LVL77:
	movl	$0, %ebp
.LBB16:
.LBB17:
	.loc 1 223 0
	movl	$test_descr, %r13d
	jmp	.L63
.LVL78:
.L66:
.LBB18:
.LBB19:
	.file 3 "/usr/include/x86_64-linux-gnu/bits/stdio2.h"
	.loc 3 105 0 discriminator 2
	movq	case_descr(%rbx), %rcx
	movq	%r12, %rdx
	movl	$.LC0, %esi
	movl	$1, %edi
	movl	$0, %eax
	call	__printf_chk
.LVL79:
.LBE19:
.LBE18:
	.loc 1 225 0 discriminator 2
	movq	%rbp, idx(%rip)
	.loc 1 226 0 discriminator 2
	movq	case_fun(%rbx), %rdi
	movl	$1024, %esi
	call	find_cpe
.LVL80:
.LBB21:
.LBB22:
	.loc 3 105 0 discriminator 2
	movl	$.LC1, %esi
	movl	$1, %edi
	movl	$1, %eax
	call	__printf_chk
.LVL81:
	addq	$8, %rbx
.LBE22:
.LBE21:
.LBE17:
.LBE16:
	.loc 1 240 0 discriminator 2
	cmpq	$32, %rbx
	jne	.L66
.LVL82:
	addq	$1, %rbp
.LVL83:
	.loc 1 239 0
	cmpq	$9, %rbp
	je	.L65
.LVL84:
.L63:
	.loc 1 232 0 discriminator 1
	movl	$0, %ebx
.LBB25:
.LBB24:
.LBB23:
.LBB20:
	.loc 3 105 0 discriminator 1
	movq	0(%r13,%rbp,8), %r12
	jmp	.L66
.LVL85:
.L65:
.LBE20:
.LBE23:
.LBE24:
.LBE25:
	.loc 1 244 0
	movl	$0, %eax
	addq	$8, %rsp
	.cfi_def_cfa_offset 40
	popq	%rbx
	.cfi_def_cfa_offset 32
	popq	%rbp
	.cfi_def_cfa_offset 24
.LVL86:
	popq	%r12
	.cfi_def_cfa_offset 16
	popq	%r13
	.cfi_def_cfa_offset 8
	ret
	.cfi_endproc
.LFE73:
	.size	main, .-main
	.section	.rodata.str1.1
.LC2:
	.string	"data --> data"
.LC3:
	.string	"data --> data+1"
.LC4:
	.string	"data+1 --> data"
.LC5:
	.string	"data1 --> data2"
	.section	.rodata
	.align 32
	.type	case_descr, @object
	.size	case_descr, 32
case_descr:
	.quad	.LC2
	.quad	.LC3
	.quad	.LC4
	.quad	.LC5
	.align 32
	.type	case_fun, @object
	.size	case_fun, 32
case_fun:
	.quad	test2a
	.quad	test2b
	.quad	test2c
	.quad	test2d
	.globl	idx
	.bss
	.align 8
	.type	idx, @object
	.size	idx, 8
idx:
	.zero	8
	.section	.rodata.str1.1
.LC6:
	.string	"Write-read"
.LC7:
	.string	"Array clear"
.LC8:
	.string	"Array clear  x2"
.LC9:
	.string	"Array clear  x3"
.LC10:
	.string	"Array clear  x4"
.LC11:
	.string	"Mem clear"
.LC12:
	.string	"Array copy"
.LC13:
	.string	"Array copy  x2"
.LC14:
	.string	"Array copy  x4"
	.section	.rodata
	.align 32
	.type	test_descr, @object
	.size	test_descr, 72
test_descr:
	.quad	.LC6
	.quad	.LC7
	.quad	.LC8
	.quad	.LC9
	.quad	.LC10
	.quad	.LC11
	.quad	.LC12
	.quad	.LC13
	.quad	.LC14
	.align 32
	.type	copier, @object
	.size	copier, 72
copier:
	.quad	write_read
	.quad	array_clear
	.quad	array_clear_2
	.quad	array_clear_3
	.quad	array_clear_4
	.quad	mem_clear
	.quad	array_copy
	.quad	array_copy_2
	.quad	array_copy_4
	.comm	data2,8200,32
	.comm	data,8200,32
	.text
.Letext0:
	.file 4 "/usr/lib/gcc/x86_64-linux-gnu/4.8/include/stddef.h"
	.file 5 "/usr/include/x86_64-linux-gnu/bits/types.h"
	.file 6 "/usr/include/libio.h"
	.file 7 "../include/cpe.h"
	.file 8 "/usr/include/stdio.h"
	.section	.note.GNU-stack,"",@progbits
