	.file	"dictionary.c"
	.text
.Ltext0:
	.globl	h_mod
	.type	h_mod, @function
h_mod:
.LFB61:
	.file 1 "dictionary.c"
	.loc 1 119 0
	.cfi_startproc
.LVL0:
	.loc 1 120 0
	movl	$0, %edx
	.loc 1 122 0
	jmp	.L2
.LVL1:
.L3:
	.loc 1 123 0
	movl	%edx, %eax
	sall	$7, %eax
	movsbl	%cl, %ecx
.LVL2:
	addl	%ecx, %eax
	movl	$0, %edx
.LVL3:
	divl	tsize(%rip)
.LVL4:
	.loc 1 122 0
	movq	%rsi, %rdi
.LVL5:
.L2:
	.loc 1 122 0 is_stmt 0 discriminator 1
	leaq	1(%rdi), %rsi
.LVL6:
	movzbl	(%rdi), %ecx
.LVL7:
	testb	%cl, %cl
	jne	.L3
	.loc 1 125 0 is_stmt 1
	movl	%edx, %eax
	ret
	.cfi_endproc
.LFE61:
	.size	h_mod, .-h_mod
	.globl	h_add
	.type	h_add, @function
h_add:
.LFB62:
	.loc 1 129 0
	.cfi_startproc
.LVL8:
	.loc 1 130 0
	movl	$0, %eax
	.loc 1 132 0
	jmp	.L5
.LVL9:
.L6:
	.loc 1 133 0
	movsbl	%cl, %ecx
.LVL10:
	addl	%ecx, %eax
.LVL11:
	.loc 1 132 0
	movq	%rdx, %rdi
.LVL12:
.L5:
	.loc 1 132 0 is_stmt 0 discriminator 1
	leaq	1(%rdi), %rdx
.LVL13:
	movzbl	(%rdi), %ecx
.LVL14:
	testb	%cl, %cl
	jne	.L6
	.loc 1 134 0 is_stmt 1
	movl	$0, %edx
.LVL15:
	divl	tsize(%rip)
.LVL16:
	.loc 1 135 0
	movl	%edx, %eax
	ret
	.cfi_endproc
.LFE62:
	.size	h_add, .-h_add
	.globl	h_xor
	.type	h_xor, @function
h_xor:
.LFB63:
	.loc 1 139 0
	.cfi_startproc
.LVL17:
	.loc 1 140 0
	movl	$0, %eax
	.loc 1 142 0
	jmp	.L8
.LVL18:
.L9:
	.loc 1 143 0
	movsbl	%dl, %edx
.LVL19:
	xorl	%eax, %edx
	sall	$4, %edx
	shrl	$28, %eax
.LVL20:
	orl	%edx, %eax
.LVL21:
	.loc 1 142 0
	movq	%rcx, %rdi
.LVL22:
.L8:
	.loc 1 142 0 is_stmt 0 discriminator 1
	leaq	1(%rdi), %rcx
.LVL23:
	movzbl	(%rdi), %edx
.LVL24:
	testb	%dl, %dl
	jne	.L9
	.loc 1 144 0 is_stmt 1
	movl	$0, %edx
.LVL25:
	divl	tsize(%rip)
.LVL26:
	.loc 1 145 0
	movl	%edx, %eax
	ret
	.cfi_endproc
.LFE63:
	.size	h_xor, .-h_xor
	.globl	compare_ele
	.type	compare_ele, @function
compare_ele:
.LFB68:
	.loc 1 240 0
	.cfi_startproc
.LVL27:
	.loc 1 241 0
	movq	(%rdi), %rdx
.LVL28:
	.loc 1 242 0
	movq	(%rsi), %rax
.LVL29:
	.loc 1 243 0
	movl	8(%rax), %eax
.LVL30:
	subl	8(%rdx), %eax
	.loc 1 244 0
	ret
	.cfi_endproc
.LFE68:
	.size	compare_ele, .-compare_ele
	.section	.rodata.str1.8,"aMS",@progbits,1
	.align 8
.LC0:
	.string	"Couldn't allocate hash array, exiting\n"
	.text
	.type	new_table, @function
new_table:
.LFB59:
	.loc 1 83 0
	.cfi_startproc
.LVL31:
	subq	$8, %rsp
	.cfi_def_cfa_offset 16
	.loc 1 84 0
	movl	%edi, tsize(%rip)
	.loc 1 85 0
	movslq	%edi, %rdi
.LVL32:
	movl	$8, %esi
	call	calloc
.LVL33:
	movq	%rax, htable(%rip)
	.loc 1 86 0
	testq	%rax, %rax
	jne	.L11
.LVL34:
.LBB41:
.LBB42:
	.file 2 "/usr/include/x86_64-linux-gnu/bits/stdio2.h"
	.loc 2 98 0
	movq	stderr(%rip), %rcx
	movl	$38, %edx
	movl	$1, %esi
	movl	$.LC0, %edi
	call	fwrite
.LVL35:
.LBE42:
.LBE41:
	.loc 1 88 0
	movl	$1, %edi
	call	exit
.LVL36:
.L11:
	.loc 1 90 0
	addq	$8, %rsp
	.cfi_def_cfa_offset 8
	ret
	.cfi_endproc
.LFE59:
	.size	new_table, .-new_table
	.globl	Strlen
	.type	Strlen, @function
Strlen:
.LFB58:
	.loc 1 57 0
	.cfi_startproc
.LVL37:
	.loc 1 59 0
	movl	$0, %eax
	movq	$-1, %rcx
	repnz; scasb
.LVL38:
	notq	%rcx
	leaq	-1(%rcx), %rax
	.loc 1 68 0
	ret
	.cfi_endproc
.LFE58:
	.size	Strlen, .-Strlen
	.globl	lower1
	.type	lower1, @function
lower1:
.LFB56:
	.loc 1 30 0
	.cfi_startproc
.LVL39:
	pushq	%r12
	.cfi_def_cfa_offset 16
	.cfi_offset 12, -16
	pushq	%rbp
	.cfi_def_cfa_offset 24
	.cfi_offset 6, -24
	pushq	%rbx
	.cfi_def_cfa_offset 32
	.cfi_offset 3, -32
	movq	%rdi, %r12
.LVL40:
	.loc 1 33 0
	movl	$0, %ebx
	jmp	.L16
.LVL41:
.L18:
	.loc 1 34 0
	addq	%r12, %rbp
	movzbl	0(%rbp), %eax
	leal	-65(%rax), %edx
	cmpb	$25, %dl
	ja	.L17
	.loc 1 35 0
	addl	$32, %eax
	movb	%al, 0(%rbp)
.L17:
	.loc 1 33 0
	addl	$1, %ebx
.LVL42:
.L16:
	.loc 1 33 0 is_stmt 0 discriminator 1
	movslq	%ebx, %rbp
	movq	%r12, %rdi
	call	Strlen
.LVL43:
	cmpq	%rax, %rbp
	jb	.L18
	.loc 1 36 0 is_stmt 1
	popq	%rbx
	.cfi_def_cfa_offset 24
.LVL44:
	popq	%rbp
	.cfi_def_cfa_offset 16
.LVL45:
	popq	%r12
	.cfi_def_cfa_offset 8
.LVL46:
	ret
	.cfi_endproc
.LFE56:
	.size	lower1, .-lower1
	.globl	lower2
	.type	lower2, @function
lower2:
.LFB57:
	.loc 1 40 0
	.cfi_startproc
.LVL47:
	pushq	%rbx
	.cfi_def_cfa_offset 16
	.cfi_offset 3, -16
	movq	%rdi, %rbx
	.loc 1 42 0
	call	Strlen
.LVL48:
	.loc 1 44 0
	movl	$0, %edx
	jmp	.L21
.LVL49:
.L23:
	.loc 1 45 0
	movslq	%edx, %rcx
	addq	%rbx, %rcx
	movzbl	(%rcx), %esi
	leal	-65(%rsi), %r8d
	cmpb	$25, %r8b
	ja	.L22
	.loc 1 46 0
	addl	$32, %esi
	movb	%sil, (%rcx)
.L22:
	.loc 1 44 0
	addl	$1, %edx
.LVL50:
.L21:
	.loc 1 44 0 is_stmt 0 discriminator 1
	cmpl	%eax, %edx
	jl	.L23
	.loc 1 47 0 is_stmt 1
	popq	%rbx
	.cfi_def_cfa_offset 8
.LVL51:
	ret
	.cfi_endproc
.LFE57:
	.size	lower2, .-lower2
	.section	.rodata.str1.8
	.align 8
.LC1:
	.string	"Couldn't allocate hash element, exiting\n"
	.text
	.type	new_ele, @function
new_ele:
.LFB60:
	.loc 1 93 0
	.cfi_startproc
.LVL52:
	pushq	%rbp
	.cfi_def_cfa_offset 16
	.cfi_offset 6, -16
	pushq	%rbx
	.cfi_def_cfa_offset 24
	.cfi_offset 3, -24
	subq	$8, %rsp
	.cfi_def_cfa_offset 32
	movq	%rdi, %rbp
	.loc 1 94 0
	movl	$24, %edi
.LVL53:
	call	malloc
.LVL54:
	movq	%rax, %rbx
.LVL55:
	.loc 1 95 0
	movq	%rbp, %rdi
	call	Strlen
.LVL56:
	.loc 1 96 0
	movl	llen(%rip), %edx
	cmpl	%edx, %eax
	jle	.L26
	.loc 1 97 0
	movq	%rbp, lstring(%rip)
	.loc 1 98 0
	movl	%eax, llen(%rip)
	.loc 1 99 0
	movl	$1, lcnt(%rip)
	jmp	.L27
.L26:
	.loc 1 100 0
	cmpl	%edx, %eax
	jne	.L27
	.loc 1 101 0
	addl	$1, lcnt(%rip)
.L27:
	.loc 1 102 0
	testq	%rbx, %rbx
	jne	.L28
.LVL57:
.LBB43:
.LBB44:
	.loc 2 98 0
	movq	stderr(%rip), %rcx
	movl	$40, %edx
	movl	$1, %esi
	movl	$.LC1, %edi
	call	fwrite
.LVL58:
.LBE44:
.LBE43:
	.loc 1 104 0
	movl	$1, %edi
	call	exit
.LVL59:
.L28:
	.loc 1 107 0
	movq	%rbp, (%rbx)
	.loc 1 108 0
	movl	$1, 8(%rbx)
	.loc 1 110 0
	movq	%rbx, %rax
.LVL60:
	addq	$8, %rsp
	.cfi_def_cfa_offset 24
	popq	%rbx
	.cfi_def_cfa_offset 16
.LVL61:
	popq	%rbp
	.cfi_def_cfa_offset 8
.LVL62:
	ret
	.cfi_endproc
.LFE60:
	.size	new_ele, .-new_ele
	.section	.rodata.str1.8
	.align 8
.LC2:
	.string	"Couldn't allocate space for string, exiting\n"
	.text
	.globl	save_string
	.type	save_string, @function
save_string:
.LFB64:
	.loc 1 152 0
	.cfi_startproc
.LVL63:
	pushq	%rbp
	.cfi_def_cfa_offset 16
	.cfi_offset 6, -16
	pushq	%rbx
	.cfi_def_cfa_offset 24
	.cfi_offset 3, -24
	subq	$8, %rsp
	.cfi_def_cfa_offset 32
	movq	%rdi, %rbp
	.loc 1 153 0
	call	Strlen
.LVL64:
	leaq	1(%rax), %rdi
	call	malloc
.LVL65:
	movq	%rax, %rbx
.LVL66:
	.loc 1 154 0
	testq	%rax, %rax
	jne	.L31
.LVL67:
.LBB45:
.LBB46:
	.loc 2 98 0
	movq	stderr(%rip), %rcx
	movl	$44, %edx
	movl	$1, %esi
	movl	$.LC2, %edi
	call	fwrite
.LVL68:
.LBE46:
.LBE45:
	.loc 1 156 0
	movl	$1, %edi
	call	exit
.LVL69:
.L31:
.LBB47:
.LBB48:
	.file 3 "/usr/include/x86_64-linux-gnu/bits/string3.h"
	.loc 3 105 0
	movq	%rbp, %rsi
	movq	%rax, %rdi
	call	strcpy
.LVL70:
.LBE48:
.LBE47:
	.loc 1 160 0
	movq	%rbx, %rax
	addq	$8, %rsp
	.cfi_def_cfa_offset 24
	popq	%rbx
	.cfi_def_cfa_offset 16
.LVL71:
	popq	%rbp
	.cfi_def_cfa_offset 8
.LVL72:
	ret
	.cfi_endproc
.LFE64:
	.size	save_string, .-save_string
	.globl	find_ele_rec
	.type	find_ele_rec, @function
find_ele_rec:
.LFB65:
	.loc 1 164 0
	.cfi_startproc
.LVL73:
	pushq	%rbp
	.cfi_def_cfa_offset 16
	.cfi_offset 6, -16
	pushq	%rbx
	.cfi_def_cfa_offset 24
	.cfi_offset 3, -24
	subq	$8, %rsp
	.cfi_def_cfa_offset 32
	movq	%rdi, %rbx
	movq	%rsi, %rbp
	.loc 1 165 0
	testq	%rdi, %rdi
	jne	.L34
	.loc 1 167 0
	addl	$1, ucnt(%rip)
	.loc 1 168 0
	movq	%rsi, %rdi
.LVL74:
	call	save_string
.LVL75:
	movq	%rax, %rdi
	call	new_ele
.LVL76:
	jmp	.L35
.LVL77:
.L34:
.LBB49:
	.loc 1 170 0
	movq	(%rdi), %rsi
.LVL78:
	movq	%rbp, %rdi
	call	strcmp
.LVL79:
.LBE49:
	testl	%eax, %eax
	jne	.L36
	.loc 1 171 0
	movl	8(%rbx), %eax
	addl	$1, %eax
	movl	%eax, 8(%rbx)
	.loc 1 172 0
	cmpl	mcnt(%rip), %eax
	jle	.L37
	.loc 1 173 0
	movl	%eax, mcnt(%rip)
	.loc 1 174 0
	movq	(%rbx), %rax
	movq	%rax, mstring(%rip)
.L37:
	.loc 1 176 0
	movq	%rbx, %rax
	jmp	.L35
.L36:
	.loc 1 178 0
	movq	16(%rbx), %rdi
	movq	%rbp, %rsi
	call	find_ele_rec
.LVL80:
	movq	%rax, 16(%rbx)
	.loc 1 179 0
	movq	%rbx, %rax
.L35:
	.loc 1 180 0
	addq	$8, %rsp
	.cfi_def_cfa_offset 24
	popq	%rbx
	.cfi_def_cfa_offset 16
.LVL81:
	popq	%rbp
	.cfi_def_cfa_offset 8
.LVL82:
	ret
	.cfi_endproc
.LFE65:
	.size	find_ele_rec, .-find_ele_rec
	.globl	find_ele_iter_f
	.type	find_ele_iter_f, @function
find_ele_iter_f:
.LFB66:
	.loc 1 184 0
	.cfi_startproc
.LVL83:
	pushq	%r13
	.cfi_def_cfa_offset 16
	.cfi_offset 13, -16
	pushq	%r12
	.cfi_def_cfa_offset 24
	.cfi_offset 12, -24
	pushq	%rbp
	.cfi_def_cfa_offset 32
	.cfi_offset 6, -32
	pushq	%rbx
	.cfi_def_cfa_offset 40
	.cfi_offset 3, -40
	subq	$8, %rsp
	.cfi_def_cfa_offset 48
	movq	%rdi, %r13
	movq	%rsi, %r12
.LVL84:
	.loc 1 186 0
	movq	%rdi, %rbx
	jmp	.L40
.LVL85:
.L44:
.LBB50:
	.loc 1 187 0
	movq	(%rbx), %rbp
.LVL86:
.LBB51:
	.loc 1 188 0
	movq	%rbp, %rsi
	movq	%r12, %rdi
	call	strcmp
.LVL87:
.LBE51:
	testl	%eax, %eax
	jne	.L41
.LBB52:
	.loc 1 189 0
	movl	8(%rbx), %eax
	addl	$1, %eax
	movl	%eax, 8(%rbx)
.LVL88:
	.loc 1 190 0
	cmpl	mcnt(%rip), %eax
	jle	.L42
	.loc 1 191 0
	movl	%eax, mcnt(%rip)
	.loc 1 192 0
	movq	%rbp, mstring(%rip)
.L42:
	.loc 1 194 0
	movq	%r13, %rax
.LVL89:
	jmp	.L43
.LVL90:
.L41:
.LBE52:
.LBE50:
	.loc 1 186 0
	movq	16(%rbx), %rbx
.LVL91:
.L40:
	.loc 1 186 0 is_stmt 0 discriminator 1
	testq	%rbx, %rbx
	jne	.L44
	.loc 1 197 0 is_stmt 1
	movq	%r12, %rdi
	call	save_string
.LVL92:
	movq	%rax, %rdi
	call	new_ele
.LVL93:
	.loc 1 198 0
	addl	$1, ucnt(%rip)
	.loc 1 199 0
	movq	%r13, 16(%rax)
.LVL94:
.L43:
	.loc 1 201 0
	addq	$8, %rsp
	.cfi_def_cfa_offset 40
	popq	%rbx
	.cfi_def_cfa_offset 32
	popq	%rbp
	.cfi_def_cfa_offset 24
	popq	%r12
	.cfi_def_cfa_offset 16
.LVL95:
	popq	%r13
	.cfi_def_cfa_offset 8
.LVL96:
	ret
	.cfi_endproc
.LFE66:
	.size	find_ele_iter_f, .-find_ele_iter_f
	.globl	find_ele_iter_r
	.type	find_ele_iter_r, @function
find_ele_iter_r:
.LFB67:
	.loc 1 205 0
	.cfi_startproc
.LVL97:
	pushq	%r13
	.cfi_def_cfa_offset 16
	.cfi_offset 13, -16
	pushq	%r12
	.cfi_def_cfa_offset 24
	.cfi_offset 12, -24
	pushq	%rbp
	.cfi_def_cfa_offset 32
	.cfi_offset 6, -32
	pushq	%rbx
	.cfi_def_cfa_offset 40
	.cfi_offset 3, -40
	subq	$8, %rsp
	.cfi_def_cfa_offset 48
	movq	%rdi, %r13
	movq	%rsi, %r12
.LVL98:
	.loc 1 208 0
	movq	%rdi, %rbx
	.loc 1 207 0
	movl	$0, %ebp
	.loc 1 208 0
	jmp	.L47
.LVL99:
.L51:
.LBB53:
	.loc 1 209 0
	movq	(%rbx), %rbp
.LVL100:
.LBB54:
	.loc 1 210 0
	movq	%rbp, %rsi
	movq	%r12, %rdi
	call	strcmp
.LVL101:
.LBE54:
	testl	%eax, %eax
	jne	.L48
.LBB55:
	.loc 1 211 0
	movl	8(%rbx), %eax
	addl	$1, %eax
	movl	%eax, 8(%rbx)
.LVL102:
	.loc 1 212 0
	cmpl	mcnt(%rip), %eax
	jle	.L49
	.loc 1 213 0
	movl	%eax, mcnt(%rip)
	.loc 1 214 0
	movq	%rbp, mstring(%rip)
.L49:
	.loc 1 216 0
	movq	%r13, %rax
.LVL103:
	jmp	.L50
.LVL104:
.L48:
.LBE55:
	.loc 1 218 0
	movq	%rbx, %rbp
.LVL105:
.LBE53:
	.loc 1 208 0
	movq	16(%rbx), %rbx
.LVL106:
.L47:
	.loc 1 208 0 is_stmt 0 discriminator 1
	testq	%rbx, %rbx
	jne	.L51
	.loc 1 220 0 is_stmt 1
	movq	%r12, %rdi
	call	save_string
.LVL107:
	movq	%rax, %rdi
	call	new_ele
.LVL108:
	.loc 1 221 0
	addl	$1, ucnt(%rip)
	.loc 1 222 0
	movq	$0, 16(%rax)
	.loc 1 223 0
	testq	%rbp, %rbp
	je	.L50
	.loc 1 224 0
	movq	%rax, 16(%rbp)
	.loc 1 225 0
	movq	%r13, %rax
.LVL109:
.L50:
	.loc 1 228 0
	addq	$8, %rsp
	.cfi_def_cfa_offset 40
	popq	%rbx
	.cfi_def_cfa_offset 32
	popq	%rbp
	.cfi_def_cfa_offset 24
	popq	%r12
	.cfi_def_cfa_offset 16
.LVL110:
	popq	%r13
	.cfi_def_cfa_offset 8
.LVL111:
	ret
	.cfi_endproc
.LFE67:
	.size	find_ele_iter_r, .-find_ele_iter_r
	.globl	sort_words
	.type	sort_words, @function
sort_words:
.LFB69:
	.loc 1 249 0
	.cfi_startproc
.LVL112:
	pushq	%r12
	.cfi_def_cfa_offset 16
	.cfi_offset 12, -16
	pushq	%rbp
	.cfi_def_cfa_offset 24
	.cfi_offset 6, -24
	pushq	%rbx
	.cfi_def_cfa_offset 32
	.cfi_offset 3, -32
	movl	%edi, %r12d
.LVL113:
	.loc 1 252 0
	movslq	ucnt(%rip), %rdi
.LVL114:
	movl	$8, %esi
	call	calloc
.LVL115:
	movq	%rax, %rbx
.LVL116:
	.loc 1 255 0
	movl	$0, scnt(%rip)
.LVL117:
	.loc 1 254 0
	movl	$0, %ebp
	.loc 1 256 0
	movl	$0, %edi
	jmp	.L55
.LVL118:
.L63:
	.loc 1 257 0
	movslq	%edi, %rdx
	movq	htable(%rip), %rax
	movq	(%rax,%rdx,8), %rax
.LVL119:
	jmp	.L56
.L62:
	.loc 1 258 0
	cmpl	$1, 8(%rax)
	jne	.L57
	.loc 1 259 0
	addl	$1, scnt(%rip)
.L57:
	.loc 1 260 0
	testl	%r12d, %r12d
	je	.L67
	.loc 1 261 0
	movslq	%ebp, %rdx
	movq	%rax, (%rbx,%rdx,8)
	jmp	.L59
.LVL120:
.L61:
	.loc 1 264 0 discriminator 1
	movq	%rcx, (%rbx,%rsi)
	.loc 1 263 0 discriminator 1
	subl	$1, %edx
.LVL121:
	jmp	.L58
.LVL122:
.L67:
	movl	%ebp, %edx
.L58:
.LVL123:
	testl	%edx, %edx
	jle	.L60
	.loc 1 263 0 is_stmt 0 discriminator 2
	movslq	%edx, %rsi
	salq	$3, %rsi
	movq	-8(%rbx,%rsi), %rcx
	movl	8(%rcx), %r8d
	cmpl	%r8d, 8(%rax)
	jg	.L61
.L60:
	.loc 1 265 0 is_stmt 1
	movslq	%edx, %rdx
	movq	%rax, (%rbx,%rdx,8)
.LVL124:
.L59:
	.loc 1 267 0
	addl	$1, %ebp
.LVL125:
	.loc 1 257 0
	movq	16(%rax), %rax
.LVL126:
.L56:
	.loc 1 257 0 is_stmt 0 discriminator 1
	testq	%rax, %rax
	jne	.L62
	.loc 1 256 0 is_stmt 1
	addl	$1, %edi
.LVL127:
.L55:
	.loc 1 256 0 is_stmt 0 discriminator 1
	cmpl	tsize(%rip), %edi
	jl	.L63
	.loc 1 269 0 is_stmt 1
	testl	%r12d, %r12d
	je	.L64
	.loc 1 270 0
	movslq	%ebp, %rsi
	movl	$compare_ele, %ecx
	movl	$8, %edx
	movq	%rbx, %rdi
.LVL128:
	call	qsort
.LVL129:
.L64:
	.loc 1 272 0
	movq	(%rbx), %r12
.LVL130:
	.loc 1 273 0
	movl	$0, %edx
	leal	-1(%rbp), %edi
	jmp	.L65
.LVL131:
.L66:
	.loc 1 274 0 discriminator 2
	movslq	%edx, %rcx
	movq	(%rbx,%rcx,8), %rsi
	movq	8(%rbx,%rcx,8), %rax
	movq	%rax, 16(%rsi)
	.loc 1 273 0 discriminator 2
	addl	$1, %edx
.LVL132:
.L65:
	.loc 1 273 0 is_stmt 0 discriminator 1
	cmpl	%edx, %edi
	jg	.L66
	.loc 1 275 0 is_stmt 1
	movslq	%ebp, %rbp
.LVL133:
	movq	-8(%rbx,%rbp,8), %rax
	movq	$0, 16(%rax)
	.loc 1 276 0
	movq	%rbx, %rdi
.LVL134:
	call	free
.LVL135:
	.loc 1 278 0
	movq	%r12, %rax
	popq	%rbx
	.cfi_def_cfa_offset 24
.LVL136:
	popq	%rbp
	.cfi_def_cfa_offset 16
.LVL137:
	popq	%r12
	.cfi_def_cfa_offset 8
.LVL138:
	ret
	.cfi_endproc
.LFE69:
	.size	sort_words, .-sort_words
	.globl	insert_string
	.type	insert_string, @function
insert_string:
.LFB70:
	.loc 1 284 0
	.cfi_startproc
.LVL139:
	pushq	%r12
	.cfi_def_cfa_offset 16
	.cfi_offset 12, -16
	pushq	%rbp
	.cfi_def_cfa_offset 24
	.cfi_offset 6, -24
	pushq	%rbx
	.cfi_def_cfa_offset 32
	.cfi_offset 3, -32
	movq	%rdi, %rbx
	movq	%rsi, %rbp
	movq	%rcx, %r12
	.loc 1 286 0
	call	*%rdx
.LVL140:
	.loc 1 287 0
	movq	%rbx, %rdi
	call	*%rbp
.LVL141:
	.loc 1 288 0
	cltq
	movq	htable(%rip), %rdx
	leaq	(%rdx,%rax,8), %rbp
.LVL142:
	movq	%rbx, %rsi
	movq	0(%rbp), %rdi
	call	*%r12
.LVL143:
	movq	%rax, 0(%rbp)
	.loc 1 289 0
	popq	%rbx
	.cfi_def_cfa_offset 24
.LVL144:
	popq	%rbp
	.cfi_def_cfa_offset 16
	popq	%r12
	.cfi_def_cfa_offset 8
.LVL145:
	ret
	.cfi_endproc
.LFE70:
	.size	insert_string, .-insert_string
	.globl	init_token
	.type	init_token, @function
init_token:
.LFB71:
	.loc 1 297 0
	.cfi_startproc
.LVL146:
	.loc 1 298 0
	movl	$0, bufvalid(%rip)
	.loc 1 299 0
	movq	%rdi, infile(%rip)
	ret
	.cfi_endproc
.LFE71:
	.size	init_token, .-init_token
	.section	.rodata
	.align 8
.LC3:
	.string	" \t\n\r.,:;/<>()[]{}?!\"-'"
	.string	"xc2"
	.string	"xa0"
	.text
	.globl	get_word
	.type	get_word, @function
get_word:
.LFB72:
	.loc 1 307 0
	.cfi_startproc
	subq	$8, %rsp
	.cfi_def_cfa_offset 16
.L76:
	.loc 1 310 0
	cmpl	$0, bufvalid(%rip)
	je	.L73
	.loc 1 311 0
	movl	$.LC3, %esi
	movl	$0, %edi
	call	strtok
.LVL147:
	.loc 1 312 0
	testq	%rax, %rax
	jne	.L74
.LVL148:
.L73:
.LBB56:
.LBB57:
	.loc 2 255 0
	movq	infile(%rip), %rdx
	movl	$1024, %esi
	movl	$buf, %edi
	call	fgets
.LVL149:
.LBE57:
.LBE56:
	.loc 1 315 0
	testq	%rax, %rax
	je	.L75
	.loc 1 317 0
	movl	$1, bufvalid(%rip)
	.loc 1 318 0
	movl	$.LC3, %esi
	movl	$buf, %edi
	call	strtok
.LVL150:
	.loc 1 319 0
	testq	%rax, %rax
	je	.L76
.LVL151:
.L74:
	.loc 1 322 0
	addl	$1, wcnt(%rip)
.LVL152:
.L75:
	.loc 1 324 0
	addq	$8, %rsp
	.cfi_def_cfa_offset 8
	ret
	.cfi_endproc
.LFE72:
	.size	get_word, .-get_word
	.globl	get_token
	.type	get_token, @function
get_token:
.LFB73:
	.loc 1 330 0
	.cfi_startproc
.LVL153:
	pushq	%r15
	.cfi_def_cfa_offset 16
	.cfi_offset 15, -16
	pushq	%r14
	.cfi_def_cfa_offset 24
	.cfi_offset 14, -24
	pushq	%r13
	.cfi_def_cfa_offset 32
	.cfi_offset 13, -32
	pushq	%r12
	.cfi_def_cfa_offset 40
	.cfi_offset 12, -40
	pushq	%rbp
	.cfi_def_cfa_offset 48
	.cfi_offset 6, -48
	pushq	%rbx
	.cfi_def_cfa_offset 56
	.cfi_offset 3, -56
	subq	$8, %rsp
	.cfi_def_cfa_offset 64
	movl	%edi, %r12d
.LVL154:
	.loc 1 339 0
	cmpl	$1, %edi
	jne	.L80
	.loc 1 340 0
	movl	$0, %eax
	call	get_word
.LVL155:
	jmp	.L81
.LVL156:
.L80:
	.loc 1 343 0
	leal	-1(%rdi), %ebx
	.loc 1 341 0
	cmpl	$0, first.4138(%rip)
	jne	.L94
	jmp	.L83
.LVL157:
.L84:
.LBB58:
	.loc 1 344 0
	movl	$0, %eax
	call	get_word
.LVL158:
	.loc 1 345 0
	testq	%rax, %rax
	je	.L91
	.loc 1 348 0
	movl	bindex.4139(%rip), %edx
	leal	1(%rdx), %ecx
	movl	%ecx, bindex.4139(%rip)
	movslq	%edx, %rdi
	salq	$10, %rdi
	addq	$token_buf.4137, %rdi
.LVL159:
.LBB59:
.LBB60:
	.loc 3 105 0
	movq	%rax, %rsi
	call	strcpy
.LVL160:
.L94:
.LBE60:
.LBE59:
.LBE58:
	.loc 1 343 0 discriminator 1
	cmpl	bindex.4139(%rip), %ebx
	jg	.L84
	.loc 1 350 0
	movl	$0, first.4138(%rip)
.L83:
	.loc 1 353 0
	movl	$0, %eax
	call	get_word
.LVL161:
	.loc 1 354 0
	testq	%rax, %rax
	je	.L92
	.loc 1 357 0
	movl	bindex.4139(%rip), %edx
	leal	1(%rdx), %ebx
	movl	%ebx, bindex.4139(%rip)
	movslq	%edx, %rdi
	salq	$10, %rdi
	addq	$token_buf.4137, %rdi
.LVL162:
.LBB61:
.LBB62:
	.loc 3 105 0
	movq	%rax, %rsi
	call	strcpy
.LVL163:
.LBE62:
.LBE61:
	.loc 1 358 0
	cmpl	$9, %ebx
	jle	.L85
	.loc 1 359 0
	movl	$0, bindex.4139(%rip)
.L85:
.LVL164:
	.loc 1 362 0
	movl	bindex.4139(%rip), %ebx
.LVL165:
	subl	%r12d, %ebx
.LVL166:
	.loc 1 363 0
	leal	10(%rbx), %eax
	testl	%ebx, %ebx
	cmovs	%eax, %ebx
.LVL167:
	.loc 1 372 0
	movl	$0, %ebp
	movl	$sbuf.4140, %eax
.LVL168:
	movl	$0, %r14d
	jmp	.L87
.LVL169:
.L90:
	.loc 1 365 0
	testl	%ebp, %ebp
	je	.L93
	.loc 1 366 0
	leaq	1(%rax), %r13
.LVL170:
	movb	$32, (%rax)
	jmp	.L88
.LVL171:
.L93:
	movq	%rax, %r13
.LVL172:
.L88:
	.loc 1 367 0
	movslq	%ebx, %r15
	salq	$10, %r15
	addq	$token_buf.4137, %r15
.LVL173:
.LBB63:
.LBB64:
	.loc 3 105 0
	movq	%r15, %rsi
	movq	%r13, %rdi
	call	strcpy
.LVL174:
.LBE64:
.LBE63:
	.loc 1 369 0
	movq	%r15, %rdi
	call	Strlen
.LVL175:
	addq	%r13, %rax
.LVL176:
	.loc 1 370 0
	addl	$1, %ebx
.LVL177:
	.loc 1 372 0
	cmpl	$10, %ebx
	cmovge	%r14d, %ebx
.LVL178:
	.loc 1 364 0
	addl	$1, %ebp
.LVL179:
.L87:
	.loc 1 364 0 is_stmt 0 discriminator 1
	cmpl	%r12d, %ebp
	jl	.L90
	.loc 1 377 0 is_stmt 1
	movl	$sbuf.4140, %eax
.LVL180:
	jmp	.L81
.LVL181:
.L91:
.LBB65:
	.loc 1 346 0
	movl	$0, %eax
.LVL182:
	jmp	.L81
.LVL183:
.L92:
.LBE65:
	.loc 1 355 0
	movl	$0, %eax
.LVL184:
.L81:
	.loc 1 378 0
	addq	$8, %rsp
	.cfi_def_cfa_offset 56
	popq	%rbx
	.cfi_def_cfa_offset 48
	popq	%rbp
	.cfi_def_cfa_offset 40
	popq	%r12
	.cfi_def_cfa_offset 32
.LVL185:
	popq	%r13
	.cfi_def_cfa_offset 24
	popq	%r14
	.cfi_def_cfa_offset 16
	popq	%r15
	.cfi_def_cfa_offset 8
	ret
	.cfi_endproc
.LFE73:
	.size	get_token, .-get_token
	.section	.rodata.str1.1,"aMS",@progbits,1
.LC4:
	.string	"%d\t'%s'\n"
	.section	.rodata.str1.8
	.align 8
.LC5:
	.string	"%d n-grams, %d unique, %d singletons.  Most common (%d) = '%s'.  Longest (%d have length %d) = '%s'\n"
	.text
	.globl	word_freq
	.type	word_freq, @function
word_freq:
.LFB74:
	.loc 1 386 0
	.cfi_startproc
.LVL186:
	pushq	%r15
	.cfi_def_cfa_offset 16
	.cfi_offset 15, -16
	pushq	%r14
	.cfi_def_cfa_offset 24
	.cfi_offset 14, -24
	pushq	%r13
	.cfi_def_cfa_offset 32
	.cfi_offset 13, -32
	pushq	%r12
	.cfi_def_cfa_offset 40
	.cfi_offset 12, -40
	pushq	%rbp
	.cfi_def_cfa_offset 48
	.cfi_offset 6, -48
	pushq	%rbx
	.cfi_def_cfa_offset 56
	.cfi_offset 3, -56
	subq	$56, %rsp
	.cfi_def_cfa_offset 112
	movl	%esi, %ebx
	movl	%edx, %ebp
	movl	%ecx, %r15d
	movl	%r8d, 44(%rsp)
	movq	%r9, %r14
	movq	112(%rsp), %r13
	movq	120(%rsp), %r12
	.loc 1 390 0
	call	init_token
.LVL187:
	.loc 1 391 0
	movl	%r15d, %edi
	call	new_table
.LVL188:
	.loc 1 393 0
	jmp	.L97
.LVL189:
.L98:
	.loc 1 394 0
	movq	%r12, %rcx
	movq	%r13, %rdx
	movq	%r14, %rsi
	movq	%rax, %rdi
	call	insert_string
.LVL190:
.L97:
	.loc 1 393 0 discriminator 1
	movl	%ebp, %edi
	call	get_token
.LVL191:
	testq	%rax, %rax
	jne	.L98
	.loc 1 396 0
	testl	%ebx, %ebx
	jle	.L99
	.loc 1 397 0
	movl	44(%rsp), %edi
	call	sort_words
.LVL192:
	movq	%rax, %rbp
.LVL193:
	.loc 1 398 0
	jmp	.L100
.LVL194:
.L101:
	.loc 1 399 0
	movq	0(%rbp), %rcx
	movl	8(%rbp), %edx
.LVL195:
.LBB66:
.LBB67:
	.loc 2 105 0
	movl	$.LC4, %esi
	movl	$1, %edi
	movl	$0, %eax
	call	__printf_chk
.LVL196:
.LBE67:
.LBE66:
	.loc 1 400 0
	movq	16(%rbp), %rbp
.LVL197:
	.loc 1 398 0
	movl	%r12d, %ebx
.LVL198:
.L100:
	.loc 1 398 0 is_stmt 0 discriminator 1
	testq	%rbp, %rbp
	je	.L99
	.loc 1 398 0 discriminator 2
	leal	-1(%rbx), %r12d
.LVL199:
	testl	%ebx, %ebx
	jne	.L101
.LVL200:
.L99:
	.loc 1 403 0 is_stmt 1
	movq	lstring(%rip), %rax
.LVL201:
.LBB68:
.LBB69:
	.loc 2 105 0
	movq	%rax, 24(%rsp)
	movl	llen(%rip), %eax
	movl	%eax, 16(%rsp)
	movl	lcnt(%rip), %eax
	movl	%eax, 8(%rsp)
	movq	mstring(%rip), %rax
	movq	%rax, (%rsp)
	movl	mcnt(%rip), %r9d
	movl	scnt(%rip), %r8d
	movl	ucnt(%rip), %ecx
	movl	wcnt(%rip), %edx
	movl	$.LC5, %esi
	movl	$1, %edi
	movl	$0, %eax
	call	__printf_chk
.LVL202:
.LBE69:
.LBE68:
	.loc 1 405 0
	addq	$56, %rsp
	.cfi_def_cfa_offset 56
	popq	%rbx
	.cfi_def_cfa_offset 48
	popq	%rbp
	.cfi_def_cfa_offset 40
	popq	%r12
	.cfi_def_cfa_offset 32
	popq	%r13
	.cfi_def_cfa_offset 24
	popq	%r14
	.cfi_def_cfa_offset 16
.LVL203:
	popq	%r15
	.cfi_def_cfa_offset 8
.LVL204:
	ret
	.cfi_endproc
.LFE74:
	.size	word_freq, .-word_freq
	.section	.rodata.str1.1
.LC6:
	.string	"verbose"
.LC7:
	.string	"size"
.LC8:
	.string	"hash"
.LC9:
	.string	"lower"
.LC10:
	.string	"find"
.LC11:
	.string	"ngram"
.LC12:
	.string	"quicksort"
.LC13:
	.string	"file"
.LC14:
	.string	"N-gram size %d\n"
.LC15:
	.string	"Lower case function %s\n"
.LC16:
	.string	"Hash function %s\n"
.LC17:
	.string	"Find element function %s\n"
	.section	.rodata.str1.8
	.align 8
.LC18:
	.string	"Invalid hash function index %d\n"
	.align 8
.LC19:
	.string	"Invalid lower function index %d\n"
	.align 8
.LC20:
	.string	"Invalid find function index %d\n"
	.section	.rodata.str1.1
.LC21:
	.string	"r"
.LC22:
	.string	"Couldn't open file '%s'\n"
.LC24:
	.string	"Total time = %f seconds\n"
	.text
	.globl	main
	.type	main, @function
main:
.LFB75:
	.loc 1 408 0
	.cfi_startproc
.LVL205:
	pushq	%r12
	.cfi_def_cfa_offset 16
	.cfi_offset 12, -16
	pushq	%rbp
	.cfi_def_cfa_offset 24
	.cfi_offset 6, -24
	pushq	%rbx
	.cfi_def_cfa_offset 32
	.cfi_offset 3, -32
	subq	$64, %rsp
	.cfi_def_cfa_offset 96
	movl	%edi, %ebp
	movq	%rsi, %r12
	.loc 1 409 0
	movl	$1, 28(%rsp)
	.loc 1 410 0
	movl	$1024, 32(%rsp)
	.loc 1 411 0
	movl	$0, 36(%rsp)
	.loc 1 412 0
	movl	$0, 40(%rsp)
	.loc 1 413 0
	movl	$0, 44(%rsp)
	.loc 1 414 0
	movl	$1, 48(%rsp)
	.loc 1 415 0
	movl	$0, 52(%rsp)
	.loc 1 416 0
	movq	$0, 56(%rsp)
	.loc 1 417 0
	movq	stdin(%rip), %rbx
.LVL206:
	.loc 1 418 0
	leaq	28(%rsp), %rsi
.LVL207:
	movl	$.LC6, %edi
.LVL208:
	call	add_int_option
.LVL209:
	.loc 1 419 0
	leaq	32(%rsp), %rsi
	movl	$.LC7, %edi
	call	add_int_option
.LVL210:
	.loc 1 420 0
	leaq	36(%rsp), %rsi
	movl	$.LC8, %edi
	call	add_int_option
.LVL211:
	.loc 1 421 0
	leaq	40(%rsp), %rsi
	movl	$.LC9, %edi
	call	add_int_option
.LVL212:
	.loc 1 422 0
	leaq	44(%rsp), %rsi
	movl	$.LC10, %edi
	call	add_int_option
.LVL213:
	.loc 1 423 0
	leaq	48(%rsp), %rsi
	movl	$.LC11, %edi
	call	add_int_option
.LVL214:
	.loc 1 424 0
	leaq	52(%rsp), %rsi
	movl	$.LC12, %edi
	call	add_int_option
.LVL215:
	.loc 1 425 0
	leaq	56(%rsp), %rsi
	movl	$.LC13, %edi
	call	add_string_option
.LVL216:
	.loc 1 426 0
	movl	$0, %edx
	movq	%r12, %rsi
	movl	%ebp, %edi
	call	parse_options
.LVL217:
	.loc 1 427 0
	movq	stdout(%rip), %rdi
	call	show_options
.LVL218:
.LBB70:
.LBB71:
	.loc 2 105 0
	movl	48(%rsp), %edx
	movl	$.LC14, %esi
	movl	$1, %edi
	movl	$0, %eax
	call	__printf_chk
.LVL219:
.LBE71:
.LBE70:
	.loc 1 429 0
	movslq	40(%rsp), %rax
	movq	lower_fun_names(,%rax,8), %rdx
.LVL220:
.LBB72:
.LBB73:
	.loc 2 105 0
	movl	$.LC15, %esi
	movl	$1, %edi
	movl	$0, %eax
	call	__printf_chk
.LVL221:
.LBE73:
.LBE72:
	.loc 1 430 0
	movslq	36(%rsp), %rax
	movq	hash_fun_names(,%rax,8), %rdx
.LVL222:
.LBB74:
.LBB75:
	.loc 2 105 0
	movl	$.LC16, %esi
	movl	$1, %edi
	movl	$0, %eax
	call	__printf_chk
.LVL223:
.LBE75:
.LBE74:
	.loc 1 431 0
	movslq	44(%rsp), %rax
	movq	find_ele_fun_names(,%rax,8), %rdx
.LVL224:
.LBB76:
.LBB77:
	.loc 2 105 0
	movl	$.LC17, %esi
	movl	$1, %edi
	movl	$0, %eax
	call	__printf_chk
.LVL225:
.LBE77:
.LBE76:
	.loc 1 432 0
	movl	36(%rsp), %ecx
	cmpl	$2, %ecx
	jbe	.L104
.LVL226:
.LBB78:
.LBB79:
	.loc 2 98 0
	movl	$.LC18, %edx
	movl	$1, %esi
	movq	stderr(%rip), %rdi
	movl	$0, %eax
	call	__fprintf_chk
.LVL227:
.LBE79:
.LBE78:
	.loc 1 434 0
	movl	$1, %edi
	call	exit
.LVL228:
.L104:
	.loc 1 436 0
	movl	40(%rsp), %ecx
	cmpl	$1, %ecx
	jbe	.L105
.LVL229:
.LBB80:
.LBB81:
	.loc 2 98 0
	movl	$.LC19, %edx
	movl	$1, %esi
	movq	stderr(%rip), %rdi
	movl	$0, %eax
	call	__fprintf_chk
.LVL230:
.LBE81:
.LBE80:
	.loc 1 438 0
	movl	$1, %edi
	call	exit
.LVL231:
.L105:
	.loc 1 440 0
	movl	44(%rsp), %ecx
	cmpl	$2, %ecx
	jbe	.L106
.LVL232:
.LBB82:
.LBB83:
	.loc 2 98 0
	movl	$.LC20, %edx
	movl	$1, %esi
	movq	stderr(%rip), %rdi
	movl	$0, %eax
	call	__fprintf_chk
.LVL233:
.LBE83:
.LBE82:
	.loc 1 442 0
	movl	$1, %edi
	call	exit
.LVL234:
.L106:
	.loc 1 444 0
	movq	56(%rsp), %rdi
	testq	%rdi, %rdi
	je	.L107
	.loc 1 445 0
	movl	$.LC21, %esi
	call	fopen
.LVL235:
	movq	%rax, %rbx
.LVL236:
	.loc 1 446 0
	testq	%rax, %rax
	jne	.L107
.LVL237:
.LBB84:
.LBB85:
	.loc 2 98 0
	movq	56(%rsp), %rcx
	movl	$.LC22, %edx
	movl	$1, %esi
	movq	stderr(%rip), %rdi
	movl	$0, %eax
.LVL238:
	call	__fprintf_chk
.LVL239:
.LBE85:
.LBE84:
	.loc 1 448 0
	movl	$1, %edi
	call	exit
.LVL240:
.L107:
	.loc 1 451 0
	movslq	36(%rsp), %rax
	movq	hash_fun_set(,%rax,8), %r9
	movslq	44(%rsp), %rax
	movq	find_ele_fun_set(,%rax,8), %rax
	movq	%rax, 8(%rsp)
	movslq	40(%rsp), %rax
	movq	lower_fun_set(,%rax,8), %rax
	movq	%rax, (%rsp)
	movl	52(%rsp), %r8d
	movl	32(%rsp), %ecx
	movl	48(%rsp), %edx
	movl	28(%rsp), %esi
	movq	%rbx, %rdi
	call	word_freq
.LVL241:
	.loc 1 455 0
	call	clock
.LVL242:
	vcvtsi2sdq	%rax, %xmm0, %xmm0
	vdivsd	.LC23(%rip), %xmm0, %xmm0
.LVL243:
.LBB86:
.LBB87:
	.loc 2 105 0
	movl	$.LC24, %esi
	movl	$1, %edi
	movl	$1, %eax
	call	__printf_chk
.LVL244:
.LBE87:
.LBE86:
	.loc 1 456 0
	movq	%rbx, %rdi
	call	fclose
.LVL245:
	.loc 1 458 0
	movl	$0, %eax
	addq	$64, %rsp
	.cfi_def_cfa_offset 32
	popq	%rbx
	.cfi_def_cfa_offset 24
.LVL246:
	popq	%rbp
	.cfi_def_cfa_offset 16
.LVL247:
	popq	%r12
	.cfi_def_cfa_offset 8
.LVL248:
	ret
	.cfi_endproc
.LFE75:
	.size	main, .-main
	.local	token_buf.4137
	.comm	token_buf.4137,10240,32
	.local	bindex.4139
	.comm	bindex.4139,4,4
	.data
	.align 4
	.type	first.4138, @object
	.size	first.4138, 4
first.4138:
	.long	1
	.local	sbuf.4140
	.comm	sbuf.4140,1024,32
	.comm	infile,8,8
	.globl	bufvalid
	.bss
	.align 4
	.type	bufvalid, @object
	.size	bufvalid, 4
bufvalid:
	.zero	4
	.comm	buf,1024,32
	.globl	find_ele_fun_names
	.section	.rodata.str1.1
.LC25:
	.string	"find_ele_rec"
.LC26:
	.string	"find_ele_iter_f"
.LC27:
	.string	"find_ele_iter_r"
	.data
	.align 16
	.type	find_ele_fun_names, @object
	.size	find_ele_fun_names, 24
find_ele_fun_names:
	.quad	.LC25
	.quad	.LC26
	.quad	.LC27
	.globl	find_ele_fun_set
	.align 16
	.type	find_ele_fun_set, @object
	.size	find_ele_fun_set, 24
find_ele_fun_set:
	.quad	find_ele_rec
	.quad	find_ele_iter_f
	.quad	find_ele_iter_r
	.globl	hash_fun_names
	.section	.rodata.str1.1
.LC28:
	.string	"h_mod"
.LC29:
	.string	"h_add"
.LC30:
	.string	"h_xor"
	.data
	.align 16
	.type	hash_fun_names, @object
	.size	hash_fun_names, 24
hash_fun_names:
	.quad	.LC28
	.quad	.LC29
	.quad	.LC30
	.globl	hash_fun_set
	.align 16
	.type	hash_fun_set, @object
	.size	hash_fun_set, 24
hash_fun_set:
	.quad	h_mod
	.quad	h_add
	.quad	h_xor
	.comm	tsize,4,4
	.comm	htable,8,8
	.globl	lower_fun_names
	.section	.rodata.str1.1
.LC31:
	.string	"lower1"
.LC32:
	.string	"lower2"
	.data
	.align 16
	.type	lower_fun_names, @object
	.size	lower_fun_names, 16
lower_fun_names:
	.quad	.LC31
	.quad	.LC32
	.globl	lower_fun_set
	.align 16
	.type	lower_fun_set, @object
	.size	lower_fun_set, 16
lower_fun_set:
	.quad	lower1
	.quad	lower2
	.globl	lcnt
	.bss
	.align 4
	.type	lcnt, @object
	.size	lcnt, 4
lcnt:
	.zero	4
	.globl	lstring
	.section	.rodata.str1.1
.LC33:
	.string	""
	.data
	.align 8
	.type	lstring, @object
	.size	lstring, 8
lstring:
	.quad	.LC33
	.globl	llen
	.bss
	.align 4
	.type	llen, @object
	.size	llen, 4
llen:
	.zero	4
	.globl	mstring
	.data
	.align 8
	.type	mstring, @object
	.size	mstring, 8
mstring:
	.quad	.LC33
	.globl	scnt
	.bss
	.align 4
	.type	scnt, @object
	.size	scnt, 4
scnt:
	.zero	4
	.globl	mcnt
	.align 4
	.type	mcnt, @object
	.size	mcnt, 4
mcnt:
	.zero	4
	.globl	ucnt
	.align 4
	.type	ucnt, @object
	.size	ucnt, 4
ucnt:
	.zero	4
	.globl	wcnt
	.align 4
	.type	wcnt, @object
	.size	wcnt, 4
wcnt:
	.zero	4
	.section	.rodata.cst8,"aM",@progbits,8
	.align 8
.LC23:
	.long	0
	.long	1093567616
	.text
.Letext0:
	.file 4 "/usr/lib/gcc/x86_64-linux-gnu/4.8/include/stddef.h"
	.file 5 "/usr/include/x86_64-linux-gnu/bits/types.h"
	.file 6 "/usr/include/stdio.h"
	.file 7 "/usr/include/libio.h"
	.file 8 "/usr/include/time.h"
	.file 9 "/usr/include/stdlib.h"
	.file 10 "<built-in>"
	.file 11 "/usr/include/string.h"
	.file 12 "options.h"
	.section	.note.GNU-stack,"",@progbits
