	.file	"div.c"
	.text
.Ltext0:
	.globl	itest
	.type	itest, @function
itest:
.LFB35:
	.file 1 "div.c"
	.loc 1 52 0
	.cfi_startproc
.LVL0:
	.loc 1 56 0
	movl	(%rdi), %r9d
	salq	$11, %r9
	addq	$ival, %r9
.LVL1:
	.loc 1 57 0
	movl	4(%rdi), %r8d
	salq	$11, %r8
	addq	$ival, %r8
.LVL2:
	.loc 1 60 0
	cmpl	$0, 8(%rdi)
	je	.L2
	movl	$0, %ecx
.L5:
	.loc 1 62 0
	movl	(%r8,%rcx), %esi
	movl	$1, %eax
	testl	%esi, %esi
	js	.L3
	.loc 1 62 0 is_stmt 0 discriminator 1
	movl	(%r9,%rcx), %eax
	cltd
	idivl	%esi
.L3:
	.loc 1 62 0 discriminator 3
	movl	%eax, -4(%rsp)
.LVL3:
	addq	$4, %rcx
	.loc 1 61 0 is_stmt 1 discriminator 3
	cmpq	$2048, %rcx
	jne	.L5
	rep; ret
.L2:
	.loc 1 60 0
	movl	$0, %ecx
.L6:
	.loc 1 65 0 discriminator 2
	movl	(%r9,%rcx), %eax
	cltd
	idivl	(%r8,%rcx)
	movl	%eax, -4(%rsp)
	addq	$4, %rcx
	.loc 1 64 0 discriminator 2
	cmpq	$2048, %rcx
	jne	.L6
	rep; ret
	.cfi_endproc
.LFE35:
	.size	itest, .-itest
	.globl	ltest
	.type	ltest, @function
ltest:
.LFB36:
	.loc 1 70 0
	.cfi_startproc
.LVL4:
	.loc 1 74 0
	movl	(%rdi), %r9d
	salq	$12, %r9
	addq	$lval, %r9
.LVL5:
	.loc 1 75 0
	movl	4(%rdi), %r8d
	salq	$12, %r8
	addq	$lval, %r8
.LVL6:
	.loc 1 78 0
	cmpl	$0, 8(%rdi)
	je	.L9
	movl	$0, %ecx
.L12:
	.loc 1 80 0
	movq	(%r8,%rcx), %rsi
	movl	$1, %eax
	testq	%rsi, %rsi
	js	.L10
	.loc 1 80 0 is_stmt 0 discriminator 1
	movq	(%r9,%rcx), %rax
	cqto
	idivq	%rsi
.L10:
	.loc 1 80 0 discriminator 3
	movq	%rax, -8(%rsp)
.LVL7:
	addq	$8, %rcx
	.loc 1 79 0 is_stmt 1 discriminator 3
	cmpq	$4096, %rcx
	jne	.L12
	rep; ret
.L9:
	.loc 1 78 0
	movl	$0, %ecx
.L13:
	.loc 1 83 0 discriminator 2
	movq	(%r9,%rcx), %rax
	cqto
	idivq	(%r8,%rcx)
	movq	%rax, -8(%rsp)
	addq	$8, %rcx
	.loc 1 82 0 discriminator 2
	cmpq	$4096, %rcx
	jne	.L13
	rep; ret
	.cfi_endproc
.LFE36:
	.size	ltest, .-ltest
	.globl	ftest
	.type	ftest, @function
ftest:
.LFB37:
	.loc 1 88 0
	.cfi_startproc
.LVL8:
	.loc 1 92 0
	movl	(%rdi), %ecx
	salq	$11, %rcx
	addq	$fval, %rcx
.LVL9:
	.loc 1 93 0
	movl	4(%rdi), %edx
	salq	$11, %rdx
	addq	$fval, %rdx
.LVL10:
	.loc 1 96 0
	cmpl	$0, 8(%rdi)
	je	.L16
	movl	$0, %eax
	.loc 1 98 0
	vxorps	%xmm2, %xmm2, %xmm2
	vmovss	.LC0(%rip), %xmm3
.L19:
	vmovss	(%rdx,%rax), %xmm0
	vmovaps	%xmm3, %xmm1
	vucomiss	%xmm0, %xmm2
	ja	.L17
	.loc 1 98 0 is_stmt 0 discriminator 2
	vmovss	(%rcx,%rax), %xmm1
	vdivss	%xmm0, %xmm1, %xmm1
.L17:
	.loc 1 98 0 discriminator 3
	vmovss	%xmm1, -4(%rsp)
.LVL11:
	addq	$4, %rax
	.loc 1 97 0 is_stmt 1 discriminator 3
	cmpq	$2048, %rax
	jne	.L19
	rep; ret
.L16:
	.loc 1 96 0
	movl	$0, %eax
.L20:
	.loc 1 101 0 discriminator 2
	vmovss	(%rcx,%rax), %xmm0
	vdivss	(%rdx,%rax), %xmm0, %xmm0
	vmovss	%xmm0, -4(%rsp)
	addq	$4, %rax
	.loc 1 100 0 discriminator 2
	cmpq	$2048, %rax
	jne	.L20
	rep; ret
	.cfi_endproc
.LFE37:
	.size	ftest, .-ftest
	.globl	dtest
	.type	dtest, @function
dtest:
.LFB38:
	.loc 1 106 0
	.cfi_startproc
.LVL12:
	.loc 1 110 0
	movl	(%rdi), %ecx
	salq	$12, %rcx
	addq	$dval, %rcx
.LVL13:
	.loc 1 111 0
	movl	4(%rdi), %edx
	salq	$12, %rdx
	addq	$dval, %rdx
.LVL14:
	.loc 1 114 0
	cmpl	$0, 8(%rdi)
	je	.L23
	movl	$0, %eax
	.loc 1 116 0
	vxorpd	%xmm2, %xmm2, %xmm2
	vmovsd	.LC2(%rip), %xmm3
.L26:
	vmovsd	(%rdx,%rax), %xmm0
	vmovapd	%xmm3, %xmm1
	vucomisd	%xmm0, %xmm2
	ja	.L24
	.loc 1 116 0 is_stmt 0 discriminator 2
	vmovsd	(%rcx,%rax), %xmm1
	vdivsd	%xmm0, %xmm1, %xmm1
.L24:
	.loc 1 116 0 discriminator 3
	vmovsd	%xmm1, -8(%rsp)
.LVL15:
	addq	$8, %rax
	.loc 1 115 0 is_stmt 1 discriminator 3
	cmpq	$4096, %rax
	jne	.L26
	rep; ret
.L23:
	.loc 1 114 0
	movl	$0, %eax
.L27:
	.loc 1 119 0 discriminator 2
	vmovsd	(%rcx,%rax), %xmm0
	vdivsd	(%rdx,%rax), %xmm0, %xmm0
	vmovsd	%xmm0, -8(%rsp)
	addq	$8, %rax
	.loc 1 118 0 discriminator 2
	cmpq	$4096, %rax
	jne	.L27
	rep; ret
	.cfi_endproc
.LFE38:
	.size	dtest, .-dtest
	.globl	cpt
	.type	cpt, @function
cpt:
.LFB39:
	.loc 1 124 0
	.cfi_startproc
.LVL16:
	subq	$40, %rsp
	.cfi_def_cfa_offset 48
	.loc 1 125 0
	movl	%esi, %eax
	movq	%rax, (%rsp)
	movl	%edx, %eax
	movq	%rax, 8(%rsp)
	movslq	%ecx, %rcx
	movq	%rcx, 16(%rsp)
	.loc 1 126 0
	movq	%rsp, %rsi
.LVL17:
	call	fcyc
.LVL18:
	.loc 1 127 0
	vmulsd	.LC4(%rip), %xmm0, %xmm0
.LVL19:
	.loc 1 128 0
	addq	$40, %rsp
	.cfi_def_cfa_offset 8
	ret
	.cfi_endproc
.LFE39:
	.size	cpt, .-cpt
	.section	.rodata.str1.8,"aMS",@progbits,1
	.align 8
.LC5:
	.string	"Function: %s\t  div(+,   -)\tCPD = %.2f\n"
	.align 8
.LC6:
	.string	"Function: %s\t cdiv(+,   -)\tCPD = %.2f\n"
	.align 8
.LC7:
	.string	"Function: %s\t cdiv(-,   +)\tCPD = %.2f\n"
	.align 8
.LC8:
	.string	"Function: %s\t cdiv(+, a+-)\tCPD = %.2f\n"
	.align 8
.LC9:
	.string	"Function: %s\t cdiv(+, r+-)\tCPD = %.2f\n"
	.text
	.globl	run_tests
	.type	run_tests, @function
run_tests:
.LFB40:
	.loc 1 131 0
	.cfi_startproc
.LVL20:
	pushq	%rbp
	.cfi_def_cfa_offset 16
	.cfi_offset 6, -16
	pushq	%rbx
	.cfi_def_cfa_offset 24
	.cfi_offset 3, -24
	subq	$8, %rsp
	.cfi_def_cfa_offset 32
	movq	%rdi, %rbp
	movq	%rsi, %rbx
	.loc 1 132 0
	movl	$0, %ecx
	movl	$0, %edx
	movl	$1, %esi
.LVL21:
	call	cpt
.LVL22:
.LBB12:
.LBB13:
	.file 2 "/usr/include/x86_64-linux-gnu/bits/stdio2.h"
	.loc 2 105 0
	movq	%rbx, %rdx
	movl	$.LC5, %esi
	movl	$1, %edi
	movl	$1, %eax
	call	__printf_chk
.LVL23:
.LBE13:
.LBE12:
	.loc 1 134 0
	movl	$1, %ecx
	movl	$0, %edx
	movl	$1, %esi
	movq	%rbp, %rdi
	call	cpt
.LVL24:
.LBB14:
.LBB15:
	.loc 2 105 0
	movq	%rbx, %rdx
	movl	$.LC6, %esi
	movl	$1, %edi
	movl	$1, %eax
	call	__printf_chk
.LVL25:
.LBE15:
.LBE14:
	.loc 1 136 0
	movl	$1, %ecx
	movl	$1, %edx
	movl	$0, %esi
	movq	%rbp, %rdi
	call	cpt
.LVL26:
.LBB16:
.LBB17:
	.loc 2 105 0
	movq	%rbx, %rdx
	movl	$.LC7, %esi
	movl	$1, %edi
	movl	$1, %eax
	call	__printf_chk
.LVL27:
.LBE17:
.LBE16:
	.loc 1 138 0
	movl	$1, %ecx
	movl	$2, %edx
	movl	$1, %esi
	movq	%rbp, %rdi
	call	cpt
.LVL28:
.LBB18:
.LBB19:
	.loc 2 105 0
	movq	%rbx, %rdx
	movl	$.LC8, %esi
	movl	$1, %edi
	movl	$1, %eax
	call	__printf_chk
.LVL29:
.LBE19:
.LBE18:
	.loc 1 140 0
	movl	$1, %ecx
	movl	$3, %edx
	movl	$1, %esi
	movq	%rbp, %rdi
	call	cpt
.LVL30:
.LBB20:
.LBB21:
	.loc 2 105 0
	movq	%rbx, %rdx
	movl	$.LC9, %esi
	movl	$1, %edi
	movl	$1, %eax
	call	__printf_chk
.LVL31:
.LBE21:
.LBE20:
	.loc 1 142 0
	addq	$8, %rsp
	.cfi_def_cfa_offset 24
	popq	%rbx
	.cfi_def_cfa_offset 16
.LVL32:
	popq	%rbp
	.cfi_def_cfa_offset 8
.LVL33:
	ret
	.cfi_endproc
.LFE40:
	.size	run_tests, .-run_tests
	.section	.rodata.str1.1,"aMS",@progbits,1
.LC10:
	.string	"int   "
.LC11:
	.string	"long  "
.LC12:
	.string	"float "
.LC13:
	.string	"double"
	.text
	.globl	main
	.type	main, @function
main:
.LFB41:
	.loc 1 145 0
	.cfi_startproc
	pushq	%r15
	.cfi_def_cfa_offset 16
	.cfi_offset 15, -16
	pushq	%r14
	.cfi_def_cfa_offset 24
	.cfi_offset 14, -24
	pushq	%r13
	.cfi_def_cfa_offset 32
	.cfi_offset 13, -32
	pushq	%r12
	.cfi_def_cfa_offset 40
	.cfi_offset 12, -40
	pushq	%rbp
	.cfi_def_cfa_offset 48
	.cfi_offset 6, -48
	pushq	%rbx
	.cfi_def_cfa_offset 56
	.cfi_offset 3, -56
	subq	$56, %rsp
	.cfi_def_cfa_offset 112
.LVL34:
	movq	$ival, 8(%rsp)
	movq	$lval, 16(%rsp)
	movq	$fval, 24(%rsp)
	movq	$dval, 32(%rsp)
.LBB25:
.LBB26:
	.loc 1 19 0
	movl	$0, 40(%rsp)
	jmp	.L34
.LVL35:
.L46:
.LBB27:
	.loc 1 23 0
	call	random
.LVL36:
	movl	%eax, %ebx
.LVL37:
	.loc 1 22 0
	testl	%eax, %eax
	je	.L46
	sarl	$31, %eax
.LVL38:
	xorl	%eax, %ebx
.LVL39:
	subl	%eax, %ebx
.LVL40:
	.loc 1 26 0
	cmpl	$1, %ebp
	je	.L37
	cmpl	$1, %ebp
	jg	.L38
	testl	%ebp, %ebp
	je	.L39
	.p2align 4,,6
	jmp	.L36
.L38:
	cmpl	$2, %ebp
	.p2align 4,,6
	je	.L40
	cmpl	$3, %ebp
	.p2align 4,,5
	je	.L41
	.p2align 4,,5
	jmp	.L36
.L39:
	.loc 1 28 0
	negl	%ebx
.LVL41:
	movq	8(%rsp), %rax
	movl	%ebx, (%rax)
	jmp	.L42
.LVL42:
.L37:
	.loc 1 31 0
	movq	8(%rsp), %rax
	movl	%ebx, 2048(%rax)
	jmp	.L42
.L40:
	.loc 1 34 0
	movl	%ebx, %eax
	negl	%eax
	cmpl	$0, 44(%rsp)
	cmove	%eax, %ebx
.LVL43:
	movq	8(%rsp), %rax
.LVL44:
	movl	%ebx, 4096(%rax)
	jmp	.L42
.LVL45:
.L41:
	.loc 1 37 0
	call	random
.LVL46:
	andl	$1, %eax
	movl	%ebx, %edx
	negl	%edx
	testq	%rax, %rax
	cmove	%edx, %ebx
.LVL47:
	movq	8(%rsp), %rax
	movl	%ebx, 6144(%rax)
	.loc 1 40 0
	movslq	40(%rsp), %rax
	movslq	%ebp, %rbp
	salq	$9, %rbp
.LVL48:
	addq	%rbp, %rax
	movl	ival(,%rax,4), %edx
.LVL49:
	movslq	%edx, %rcx
	movq	%rcx, lval(,%rax,8)
	.loc 1 41 0
	vcvtsi2ss	%edx, %xmm0, %xmm0
	vmovss	%xmm0, fval(,%rax,4)
	.loc 1 42 0
	vcvtsi2sd	%edx, %xmm0, %xmm0
	vmovsd	%xmm0, dval(,%rax,8)
.LVL50:
	jmp	.L45
.LVL51:
.L36:
	.loc 1 40 0
	movl	0(%r13), %eax
	movslq	%eax, %rdx
	movq	(%rsp), %rdi
	movq	%rdx, (%rdi)
	.loc 1 41 0
	vcvtsi2ss	%eax, %xmm0, %xmm0
	vmovss	%xmm0, (%r14)
	.loc 1 42 0
	vcvtsi2sd	%eax, %xmm0, %xmm0
	vmovsd	%xmm0, (%r15)
.LVL52:
.LBE27:
	.loc 1 20 0
	cmpl	$3, %r12d
	jg	.L45
.LVL53:
.L49:
	addl	$1, %r12d
	addq	$2048, %r13
	addq	$4096, (%rsp)
	addq	$2048, %r14
	addq	$4096, %r15
.L48:
	leal	-1(%r12), %ebp
.LVL54:
	jmp	.L46
.LVL55:
.L45:
	.loc 1 19 0
	addl	$1, 40(%rsp)
.LVL56:
	addq	$4, 8(%rsp)
	addq	$8, 16(%rsp)
	addq	$4, 24(%rsp)
	addq	$8, 32(%rsp)
	cmpl	$512, 40(%rsp)
	je	.L47
.LVL57:
.L34:
.LBB28:
	.loc 1 37 0
	movq	32(%rsp), %r15
	movq	24(%rsp), %r14
	movq	16(%rsp), %rax
	movq	%rax, (%rsp)
	movq	8(%rsp), %r13
	movl	$1, %r12d
	.loc 1 34 0
	movl	40(%rsp), %eax
	andl	$1, %eax
	movl	%eax, 44(%rsp)
	jmp	.L48
.LVL58:
.L42:
	.loc 1 40 0
	movl	0(%r13), %eax
	movslq	%eax, %rdx
	movq	(%rsp), %rsi
	movq	%rdx, (%rsi)
	.loc 1 41 0
	vcvtsi2ss	%eax, %xmm0, %xmm0
	vmovss	%xmm0, (%r14)
	.loc 1 42 0
	vcvtsi2sd	%eax, %xmm0, %xmm0
	vmovsd	%xmm0, (%r15)
.LVL59:
	jmp	.L49
.LVL60:
.L47:
.LBE28:
.LBE26:
.LBE25:
	.loc 1 147 0
	movl	$.LC10, %esi
	movl	$itest, %edi
	call	run_tests
.LVL61:
	.loc 1 148 0
	movl	$.LC11, %esi
	movl	$ltest, %edi
	call	run_tests
.LVL62:
	.loc 1 149 0
	movl	$.LC12, %esi
	movl	$ftest, %edi
	call	run_tests
.LVL63:
	.loc 1 150 0
	movl	$.LC13, %esi
	movl	$dtest, %edi
	call	run_tests
.LVL64:
	.loc 1 152 0
	movl	$0, %eax
	addq	$56, %rsp
	.cfi_def_cfa_offset 56
	popq	%rbx
	.cfi_def_cfa_offset 48
	popq	%rbp
	.cfi_def_cfa_offset 40
	popq	%r12
	.cfi_def_cfa_offset 32
	popq	%r13
	.cfi_def_cfa_offset 24
	popq	%r14
	.cfi_def_cfa_offset 16
	popq	%r15
	.cfi_def_cfa_offset 8
	ret
	.cfi_endproc
.LFE41:
	.size	main, .-main
	.globl	use_cond
	.bss
	.align 4
	.type	use_cond, @object
	.size	use_cond, 4
use_cond:
	.zero	4
	.globl	den_type
	.align 4
	.type	den_type, @object
	.size	den_type, 4
den_type:
	.zero	4
	.globl	num_type
	.align 4
	.type	num_type, @object
	.size	num_type, 4
num_type:
	.zero	4
	.comm	dval,20480,32
	.comm	fval,10240,32
	.comm	lval,20480,32
	.comm	ival,10240,32
	.section	.rodata.cst4,"aM",@progbits,4
	.align 4
.LC0:
	.long	1065353216
	.section	.rodata.cst8,"aM",@progbits,8
	.align 8
.LC2:
	.long	0
	.long	1072693248
	.align 8
.LC4:
	.long	0
	.long	1063256064
	.text
.Letext0:
	.file 3 "/usr/lib/gcc/x86_64-linux-gnu/4.8/include/stddef.h"
	.file 4 "/usr/include/x86_64-linux-gnu/bits/types.h"
	.file 5 "/usr/include/libio.h"
	.file 6 "../include/fcyc.h"
	.file 7 "/usr/include/stdio.h"
	.file 8 "/usr/include/stdlib.h"
	.section	.note.GNU-stack,"",@progbits
