	.file	"combine.c"
	.text
.Ltext0:
	.p2align 4,,15
	.globl	combine1
	.type	combine1, @function
combine1:
.LFB12:
	.file 1 "combine.c"
	.loc 1 10 0
	.cfi_startproc
.LVL0:
	pushq	%r12
	.cfi_def_cfa_offset 16
	.cfi_offset 12, -16
	movq	%rdi, %r12
	pushq	%rbp
	.cfi_def_cfa_offset 24
	.cfi_offset 6, -24
	movq	%rsi, %rbp
	pushq	%rbx
	.cfi_def_cfa_offset 32
	.cfi_offset 3, -32
	.loc 1 14 0
	xorl	%ebx, %ebx
	.loc 1 10 0
	subq	$16, %rsp
	.cfi_def_cfa_offset 48
	.loc 1 13 0
	vmovsd	.LC0(%rip), %xmm1
	vmovsd	%xmm1, (%rsi)
.LVL1:
	.loc 1 14 0
	jmp	.L2
.LVL2:
	.p2align 4,,10
	.p2align 3
.L3:
.LBB2:
	.loc 1 16 0 discriminator 2
	leaq	8(%rsp), %rdx
	movq	%rbx, %rsi
	movq	%r12, %rdi
.LBE2:
	.loc 1 14 0 discriminator 2
	addq	$1, %rbx
.LVL3:
.LBB3:
	.loc 1 16 0 discriminator 2
	call	get_vec_element
.LVL4:
	.loc 1 18 0 discriminator 2
	vmovsd	0(%rbp), %xmm0
	vmulsd	8(%rsp), %xmm0, %xmm0
	vmovsd	%xmm0, 0(%rbp)
.LVL5:
.L2:
.LBE3:
	.loc 1 14 0 discriminator 1
	movq	%r12, %rdi
	call	vec_length
.LVL6:
	cmpq	%rax, %rbx
	jl	.L3
	.loc 1 21 0
	addq	$16, %rsp
	.cfi_def_cfa_offset 32
	popq	%rbx
	.cfi_def_cfa_offset 24
.LVL7:
	popq	%rbp
	.cfi_def_cfa_offset 16
.LVL8:
	popq	%r12
	.cfi_def_cfa_offset 8
.LVL9:
	ret
	.cfi_endproc
.LFE12:
	.size	combine1, .-combine1
	.p2align 4,,15
	.globl	combine2
	.type	combine2, @function
combine2:
.LFB13:
	.loc 1 28 0
	.cfi_startproc
.LVL10:
	pushq	%r13
	.cfi_def_cfa_offset 16
	.cfi_offset 13, -16
	movq	%rdi, %r13
	pushq	%r12
	.cfi_def_cfa_offset 24
	.cfi_offset 12, -24
	pushq	%rbp
	.cfi_def_cfa_offset 32
	.cfi_offset 6, -32
	movq	%rsi, %rbp
	pushq	%rbx
	.cfi_def_cfa_offset 40
	.cfi_offset 3, -40
	.loc 1 33 0
	xorl	%ebx, %ebx
	.loc 1 28 0
	subq	$24, %rsp
	.cfi_def_cfa_offset 64
	.loc 1 30 0
	call	vec_length
.LVL11:
	.loc 1 32 0
	vmovsd	.LC0(%rip), %xmm1
	.loc 1 33 0
	testq	%rax, %rax
	.loc 1 30 0
	movq	%rax, %r12
.LVL12:
	.loc 1 32 0
	vmovsd	%xmm1, 0(%rbp)
.LVL13:
	.loc 1 33 0
	jle	.L11
.LVL14:
	.p2align 4,,10
	.p2align 3
.L10:
.LBB4:
	.loc 1 35 0 discriminator 2
	leaq	8(%rsp), %rdx
	movq	%rbx, %rsi
	movq	%r13, %rdi
.LBE4:
	.loc 1 33 0 discriminator 2
	addq	$1, %rbx
.LVL15:
.LBB5:
	.loc 1 35 0 discriminator 2
	call	get_vec_element
.LVL16:
	.loc 1 36 0 discriminator 2
	vmovsd	0(%rbp), %xmm0
.LBE5:
	.loc 1 33 0 discriminator 2
	cmpq	%r12, %rbx
.LBB6:
	.loc 1 36 0 discriminator 2
	vmulsd	8(%rsp), %xmm0, %xmm0
	vmovsd	%xmm0, 0(%rbp)
.LBE6:
	.loc 1 33 0 discriminator 2
	jne	.L10
.LVL17:
.L11:
	.loc 1 38 0
	addq	$24, %rsp
	.cfi_def_cfa_offset 40
	popq	%rbx
	.cfi_def_cfa_offset 32
	popq	%rbp
	.cfi_def_cfa_offset 24
.LVL18:
	popq	%r12
	.cfi_def_cfa_offset 16
.LVL19:
	popq	%r13
	.cfi_def_cfa_offset 8
.LVL20:
	ret
	.cfi_endproc
.LFE13:
	.size	combine2, .-combine2
	.p2align 4,,15
	.globl	combine4b
	.type	combine4b, @function
combine4b:
.LFB17:
	.loc 1 98 0
	.cfi_startproc
.LVL21:
	pushq	%rbp
	.cfi_def_cfa_offset 16
	.cfi_offset 6, -16
	movq	%rsi, %rbp
	pushq	%rbx
	.cfi_def_cfa_offset 24
	.cfi_offset 3, -24
	movq	%rdi, %rbx
	subq	$8, %rsp
	.cfi_def_cfa_offset 32
	.loc 1 100 0
	call	vec_length
.LVL22:
	.loc 1 103 0
	testq	%rax, %rax
	.loc 1 101 0
	vmovsd	.LC0(%rip), %xmm0
	.loc 1 103 0
	jle	.L14
	xorl	%edx, %edx
.LVL23:
	.p2align 4,,10
	.p2align 3
.L16:
	.loc 1 104 0
	cmpq	%rdx, (%rbx)
	jle	.L15
	.loc 1 105 0
	movq	8(%rbx), %rcx
	vmulsd	(%rcx,%rdx,8), %xmm0, %xmm0
.LVL24:
.L15:
	.loc 1 103 0
	addq	$1, %rdx
.LVL25:
	cmpq	%rax, %rdx
	jne	.L16
.LVL26:
.L14:
	.loc 1 108 0
	vmovsd	%xmm0, 0(%rbp)
	.loc 1 109 0
	addq	$8, %rsp
	.cfi_def_cfa_offset 24
	popq	%rbx
	.cfi_def_cfa_offset 16
.LVL27:
	popq	%rbp
	.cfi_def_cfa_offset 8
.LVL28:
	ret
	.cfi_endproc
.LFE17:
	.size	combine4b, .-combine4b
	.p2align 4,,15
	.globl	combine3
	.type	combine3, @function
combine3:
.LFB14:
	.loc 1 45 0
	.cfi_startproc
.LVL29:
	pushq	%r12
	.cfi_def_cfa_offset 16
	.cfi_offset 12, -16
	pushq	%rbp
	.cfi_def_cfa_offset 24
	.cfi_offset 6, -24
	movq	%rdi, %rbp
	pushq	%rbx
	.cfi_def_cfa_offset 32
	.cfi_offset 3, -32
	.loc 1 45 0
	movq	%rsi, %rbx
	.loc 1 47 0
	call	vec_length
.LVL30:
	.loc 1 48 0
	movq	%rbp, %rdi
	.loc 1 47 0
	movq	%rax, %r12
.LVL31:
	.loc 1 48 0
	call	get_vec_start
.LVL32:
	.loc 1 50 0
	vmovsd	.LC0(%rip), %xmm0
	.loc 1 51 0
	testq	%r12, %r12
	.loc 1 50 0
	vmovsd	%xmm0, (%rbx)
.LVL33:
	.loc 1 51 0
	jle	.L23
	movq	%rax, %rdx
	leaq	(%rax,%r12,8), %rax
.LVL34:
	.p2align 4,,10
	.p2align 3
.L22:
	.loc 1 52 0 discriminator 2
	vmulsd	(%rdx), %xmm0, %xmm0
	addq	$8, %rdx
	.loc 1 51 0 discriminator 2
	cmpq	%rax, %rdx
	.loc 1 52 0 discriminator 2
	vmovsd	%xmm0, (%rbx)
	.loc 1 51 0 discriminator 2
	jne	.L22
.L23:
	.loc 1 54 0
	popq	%rbx
	.cfi_def_cfa_offset 24
.LVL35:
	popq	%rbp
	.cfi_def_cfa_offset 16
.LVL36:
	popq	%r12
	.cfi_def_cfa_offset 8
.LVL37:
	ret
	.cfi_endproc
.LFE14:
	.size	combine3, .-combine3
	.p2align 4,,15
	.globl	combine3w
	.type	combine3w, @function
combine3w:
.LFB15:
	.loc 1 61 0
	.cfi_startproc
.LVL38:
	pushq	%r12
	.cfi_def_cfa_offset 16
	.cfi_offset 12, -16
	pushq	%rbp
	.cfi_def_cfa_offset 24
	.cfi_offset 6, -24
	movq	%rdi, %rbp
	pushq	%rbx
	.cfi_def_cfa_offset 32
	.cfi_offset 3, -32
	.loc 1 61 0
	movq	%rsi, %rbx
	.loc 1 63 0
	call	vec_length
.LVL39:
	.loc 1 64 0
	movq	%rbp, %rdi
	.loc 1 63 0
	movq	%rax, %r12
.LVL40:
	.loc 1 64 0
	call	get_vec_start
.LVL41:
	.loc 1 68 0
	vmovsd	.LC0(%rip), %xmm0
	.loc 1 70 0
	testq	%r12, %r12
	.loc 1 68 0
	vmovsd	%xmm0, (%rbx)
.LVL42:
	.loc 1 70 0
	jle	.L29
	movq	%rax, %rdx
	leaq	(%rax,%r12,8), %rax
.LVL43:
	.p2align 4,,10
	.p2align 3
.L28:
	.loc 1 71 0 discriminator 2
	vmulsd	(%rdx), %xmm0, %xmm0
.LVL44:
	addq	$8, %rdx
	.loc 1 70 0 discriminator 2
	cmpq	%rax, %rdx
	.loc 1 72 0 discriminator 2
	vmovsd	%xmm0, (%rbx)
	.loc 1 70 0 discriminator 2
	jne	.L28
.LVL45:
.L29:
	.loc 1 74 0
	popq	%rbx
	.cfi_def_cfa_offset 24
.LVL46:
	popq	%rbp
	.cfi_def_cfa_offset 16
.LVL47:
	popq	%r12
	.cfi_def_cfa_offset 8
.LVL48:
	ret
	.cfi_endproc
.LFE15:
	.size	combine3w, .-combine3w
	.p2align 4,,15
	.globl	combine4
	.type	combine4, @function
combine4:
.LFB16:
	.loc 1 81 0
	.cfi_startproc
.LVL49:
	pushq	%r12
	.cfi_def_cfa_offset 16
	.cfi_offset 12, -16
	movq	%rsi, %r12
	pushq	%rbp
	.cfi_def_cfa_offset 24
	.cfi_offset 6, -24
	pushq	%rbx
	.cfi_def_cfa_offset 32
	.cfi_offset 3, -32
	.loc 1 81 0
	movq	%rdi, %rbx
	.loc 1 83 0
	call	vec_length
.LVL50:
	.loc 1 84 0
	movq	%rbx, %rdi
	.loc 1 83 0
	movq	%rax, %rbp
.LVL51:
	.loc 1 84 0
	call	get_vec_start
.LVL52:
	.loc 1 87 0
	testq	%rbp, %rbp
	jle	.L34
	movq	%rax, %rdx
	.loc 1 85 0
	vmovsd	.LC0(%rip), %xmm0
	leaq	(%rax,%rbp,8), %rax
.LVL53:
	.p2align 4,,10
	.p2align 3
.L33:
	.loc 1 88 0 discriminator 2
	vmulsd	(%rdx), %xmm0, %xmm0
.LVL54:
	addq	$8, %rdx
	.loc 1 87 0 discriminator 2
	cmpq	%rax, %rdx
	jne	.L33
.LVL55:
.L32:
	.loc 1 91 0
	popq	%rbx
	.cfi_remember_state
	.cfi_def_cfa_offset 24
.LVL56:
	popq	%rbp
	.cfi_def_cfa_offset 16
.LVL57:
	.loc 1 90 0
	vmovsd	%xmm0, (%r12)
	.loc 1 91 0
	popq	%r12
	.cfi_def_cfa_offset 8
.LVL58:
	ret
.LVL59:
.L34:
	.cfi_restore_state
	.loc 1 85 0
	vmovsd	.LC0(%rip), %xmm0
	jmp	.L32
	.cfi_endproc
.LFE16:
	.size	combine4, .-combine4
	.p2align 4,,15
	.globl	combine4p
	.type	combine4p, @function
combine4p:
.LFB18:
	.loc 1 117 0
	.cfi_startproc
.LVL60:
	pushq	%r12
	.cfi_def_cfa_offset 16
	.cfi_offset 12, -16
	pushq	%rbp
	.cfi_def_cfa_offset 24
	.cfi_offset 6, -24
	movq	%rsi, %rbp
	pushq	%rbx
	.cfi_def_cfa_offset 32
	.cfi_offset 3, -32
	.loc 1 117 0
	movq	%rdi, %rbx
	.loc 1 118 0
	call	vec_length
.LVL61:
	.loc 1 119 0
	movq	%rbx, %rdi
	.loc 1 118 0
	movq	%rax, %r12
.LVL62:
	.loc 1 119 0
	call	get_vec_start
.LVL63:
	movq	%rax, %rdx
.LVL64:
	.loc 1 120 0
	leaq	(%rax,%r12,8), %rax
.LVL65:
	.loc 1 121 0
	vmovsd	.LC0(%rip), %xmm0
	.loc 1 123 0
	cmpq	%rax, %rdx
	jae	.L37
.LVL66:
	.p2align 4,,10
	.p2align 3
.L38:
	.loc 1 124 0 discriminator 2
	vmulsd	(%rdx), %xmm0, %xmm0
.LVL67:
	.loc 1 123 0 discriminator 2
	addq	$8, %rdx
.LVL68:
	cmpq	%rdx, %rax
	ja	.L38
.LVL69:
.L37:
	.loc 1 125 0
	vmovsd	%xmm0, 0(%rbp)
	.loc 1 126 0
	popq	%rbx
	.cfi_def_cfa_offset 24
.LVL70:
	popq	%rbp
	.cfi_def_cfa_offset 16
.LVL71:
	popq	%r12
	.cfi_def_cfa_offset 8
.LVL72:
	ret
	.cfi_endproc
.LFE18:
	.size	combine4p, .-combine4p
	.p2align 4,,15
	.globl	combine5
	.type	combine5, @function
combine5:
.LFB19:
	.loc 1 134 0
	.cfi_startproc
.LVL73:
	pushq	%r13
	.cfi_def_cfa_offset 16
	.cfi_offset 13, -16
	movq	%rsi, %r13
	pushq	%r12
	.cfi_def_cfa_offset 24
	.cfi_offset 12, -24
	movq	%rdi, %r12
	pushq	%rbp
	.cfi_def_cfa_offset 32
	.cfi_offset 6, -32
	pushq	%rbx
	.cfi_def_cfa_offset 40
	.cfi_offset 3, -40
	subq	$8, %rsp
	.cfi_def_cfa_offset 48
	.loc 1 136 0
	call	vec_length
.LVL74:
	.loc 1 137 0
	leaq	-1(%rax), %rbp
	.loc 1 138 0
	movq	%r12, %rdi
	.loc 1 136 0
	movq	%rax, %rbx
.LVL75:
	.loc 1 138 0
	call	get_vec_start
.LVL76:
	.loc 1 142 0
	xorl	%edx, %edx
	testq	%rbp, %rbp
	.loc 1 138 0
	movq	%rax, %rcx
.LVL77:
	.loc 1 139 0
	vmovsd	.LC0(%rip), %xmm0
	.loc 1 142 0
	jle	.L42
.LVL78:
	.p2align 4,,10
	.p2align 3
.L44:
	.loc 1 144 0 discriminator 2
	vmulsd	(%rcx,%rdx,8), %xmm0, %xmm0
.LVL79:
	vmulsd	8(%rcx,%rdx,8), %xmm0, %xmm0
.LVL80:
	.loc 1 142 0 discriminator 2
	addq	$2, %rdx
.LVL81:
	cmpq	%rdx, %rbp
	jg	.L44
	leaq	-2(%rbx), %rax
.LVL82:
	shrq	%rax
	leaq	2(%rax,%rax), %rdx
.LVL83:
.L42:
	.loc 1 149 0 discriminator 1
	cmpq	%rdx, %rbx
	jle	.L45
	.p2align 4,,10
	.p2align 3
.L46:
	.loc 1 150 0 discriminator 2
	vmulsd	(%rcx,%rdx,8), %xmm0, %xmm0
.LVL84:
	.loc 1 149 0 discriminator 2
	addq	$1, %rdx
.LVL85:
	cmpq	%rbx, %rdx
	jne	.L46
.L45:
	.loc 1 152 0
	vmovsd	%xmm0, 0(%r13)
	.loc 1 153 0
	addq	$8, %rsp
	.cfi_def_cfa_offset 40
	popq	%rbx
	.cfi_def_cfa_offset 32
.LVL86:
	popq	%rbp
	.cfi_def_cfa_offset 24
.LVL87:
	popq	%r12
	.cfi_def_cfa_offset 16
.LVL88:
	popq	%r13
	.cfi_def_cfa_offset 8
.LVL89:
	ret
	.cfi_endproc
.LFE19:
	.size	combine5, .-combine5
	.p2align 4,,15
	.globl	unroll3a_combine
	.type	unroll3a_combine, @function
unroll3a_combine:
.LFB20:
	.loc 1 158 0
	.cfi_startproc
.LVL90:
	pushq	%r13
	.cfi_def_cfa_offset 16
	.cfi_offset 13, -16
	movq	%rsi, %r13
	pushq	%r12
	.cfi_def_cfa_offset 24
	.cfi_offset 12, -24
	movq	%rdi, %r12
	pushq	%rbp
	.cfi_def_cfa_offset 32
	.cfi_offset 6, -32
	pushq	%rbx
	.cfi_def_cfa_offset 40
	.cfi_offset 3, -40
	subq	$8, %rsp
	.cfi_def_cfa_offset 48
	.loc 1 160 0
	call	vec_length
.LVL91:
	.loc 1 161 0
	leaq	-2(%rax), %rbp
	.loc 1 162 0
	movq	%r12, %rdi
	.loc 1 160 0
	movq	%rax, %rbx
.LVL92:
	.loc 1 162 0
	call	get_vec_start
.LVL93:
	.loc 1 166 0
	xorl	%edx, %edx
	testq	%rbp, %rbp
	.loc 1 163 0
	vmovsd	.LC0(%rip), %xmm0
	.loc 1 166 0
	jle	.L50
.LVL94:
	.p2align 4,,10
	.p2align 3
.L51:
	.loc 1 167 0 discriminator 2
	vmulsd	(%rax,%rdx,8), %xmm0, %xmm0
.LVL95:
	.loc 1 168 0 discriminator 2
	vmulsd	8(%rax,%rdx,8), %xmm0, %xmm0
.LVL96:
	.loc 1 169 0 discriminator 2
	vmulsd	16(%rax,%rdx,8), %xmm0, %xmm0
.LVL97:
	.loc 1 166 0 discriminator 2
	addq	$3, %rdx
.LVL98:
	cmpq	%rdx, %rbp
	jg	.L51
.LVL99:
.L50:
	.loc 1 173 0 discriminator 1
	cmpq	%rdx, %rbx
	jle	.L52
	.p2align 4,,10
	.p2align 3
.L53:
	.loc 1 174 0 discriminator 2
	vmulsd	(%rax,%rdx,8), %xmm0, %xmm0
.LVL100:
	.loc 1 173 0 discriminator 2
	addq	$1, %rdx
.LVL101:
	cmpq	%rbx, %rdx
	jne	.L53
.L52:
	.loc 1 176 0
	vmovsd	%xmm0, 0(%r13)
	.loc 1 177 0
	addq	$8, %rsp
	.cfi_def_cfa_offset 40
	popq	%rbx
	.cfi_def_cfa_offset 32
.LVL102:
	popq	%rbp
	.cfi_def_cfa_offset 24
.LVL103:
	popq	%r12
	.cfi_def_cfa_offset 16
.LVL104:
	popq	%r13
	.cfi_def_cfa_offset 8
.LVL105:
	ret
	.cfi_endproc
.LFE20:
	.size	unroll3a_combine, .-unroll3a_combine
	.p2align 4,,15
	.globl	combine5p
	.type	combine5p, @function
combine5p:
.LFB21:
	.loc 1 184 0
	.cfi_startproc
.LVL106:
	pushq	%r12
	.cfi_def_cfa_offset 16
	.cfi_offset 12, -16
	movq	%rsi, %r12
	pushq	%rbp
	.cfi_def_cfa_offset 24
	.cfi_offset 6, -24
	movq	%rdi, %rbp
	pushq	%rbx
	.cfi_def_cfa_offset 32
	.cfi_offset 3, -32
	.loc 1 185 0
	call	get_vec_start
.LVL107:
	.loc 1 186 0
	movq	%rbp, %rdi
	.loc 1 185 0
	movq	%rax, %rbx
.LVL108:
	.loc 1 186 0
	call	vec_length
.LVL109:
	leaq	(%rbx,%rax,8), %rax
.LVL110:
	.loc 1 187 0
	leaq	-8(%rax), %rcx
.LVL111:
	.loc 1 191 0
	cmpq	%rcx, %rbx
	jae	.L62
	.loc 1 188 0
	vmovsd	.LC0(%rip), %xmm0
	.loc 1 191 0
	movq	%rbx, %rdx
.LVL112:
	.p2align 4,,10
	.p2align 3
.L59:
	.loc 1 192 0 discriminator 2
	vmulsd	(%rdx), %xmm0, %xmm0
.LVL113:
	.loc 1 191 0 discriminator 2
	addq	$16, %rdx
.LVL114:
	.loc 1 192 0 discriminator 2
	vmulsd	-8(%rdx), %xmm0, %xmm0
.LVL115:
	.loc 1 191 0 discriminator 2
	cmpq	%rdx, %rcx
	ja	.L59
	movq	%rax, %rdx
.LVL116:
	subq	%rbx, %rdx
	subq	$9, %rdx
	andq	$-16, %rdx
	leaq	16(%rbx,%rdx), %rbx
	jmp	.L64
.LVL117:
	.p2align 4,,10
	.p2align 3
.L61:
	.loc 1 197 0 discriminator 2
	vmulsd	(%rbx), %xmm0, %xmm0
.LVL118:
	.loc 1 196 0 discriminator 2
	addq	$8, %rbx
.LVL119:
.L64:
	cmpq	%rbx, %rax
	ja	.L61
	.loc 1 200 0
	popq	%rbx
	.cfi_remember_state
	.cfi_def_cfa_offset 24
.LVL120:
	popq	%rbp
	.cfi_def_cfa_offset 16
.LVL121:
	.loc 1 199 0
	vmovsd	%xmm0, (%r12)
	.loc 1 200 0
	popq	%r12
	.cfi_def_cfa_offset 8
.LVL122:
	ret
.LVL123:
.L62:
	.cfi_restore_state
	.loc 1 188 0
	vmovsd	.LC0(%rip), %xmm0
.LVL124:
	jmp	.L64
	.cfi_endproc
.LFE21:
	.size	combine5p, .-combine5p
	.p2align 4,,15
	.globl	unroll2aw_combine
	.type	unroll2aw_combine, @function
unroll2aw_combine:
.LFB22:
	.loc 1 205 0
	.cfi_startproc
.LVL125:
	pushq	%r13
	.cfi_def_cfa_offset 16
	.cfi_offset 13, -16
	movq	%rsi, %r13
	pushq	%r12
	.cfi_def_cfa_offset 24
	.cfi_offset 12, -24
	movq	%rdi, %r12
	pushq	%rbp
	.cfi_def_cfa_offset 32
	.cfi_offset 6, -32
	pushq	%rbx
	.cfi_def_cfa_offset 40
	.cfi_offset 3, -40
	subq	$8, %rsp
	.cfi_def_cfa_offset 48
	.loc 1 207 0
	call	vec_length
.LVL126:
	.loc 1 208 0
	leaq	-1(%rax), %rbp
	.loc 1 209 0
	movq	%r12, %rdi
	.loc 1 207 0
	movq	%rax, %rbx
.LVL127:
	.loc 1 209 0
	call	get_vec_start
.LVL128:
	.loc 1 206 0
	xorl	%edx, %edx
	.loc 1 213 0
	testq	%rbp, %rbp
	.loc 1 209 0
	movq	%rax, %rcx
.LVL129:
	.loc 1 210 0
	vmovsd	.LC0(%rip), %xmm0
	.loc 1 213 0
	jle	.L66
.LVL130:
	.p2align 4,,10
	.p2align 3
.L68:
	.loc 1 214 0
	vmulsd	(%rcx,%rdx,8), %xmm0, %xmm0
.LVL131:
	.loc 1 215 0
	addq	$2, %rdx
.LVL132:
	.loc 1 213 0
	cmpq	%rdx, %rbp
	.loc 1 216 0
	vmulsd	-8(%rcx,%rdx,8), %xmm0, %xmm0
.LVL133:
	.loc 1 213 0
	jg	.L68
	leaq	-2(%rbx), %rax
.LVL134:
	shrq	%rax
	leaq	2(%rax,%rax), %rdx
.LVL135:
.L66:
	.loc 1 220 0 discriminator 1
	cmpq	%rdx, %rbx
	jle	.L69
	.p2align 4,,10
	.p2align 3
.L70:
	.loc 1 221 0 discriminator 2
	vmulsd	(%rcx,%rdx,8), %xmm0, %xmm0
.LVL136:
	.loc 1 220 0 discriminator 2
	addq	$1, %rdx
.LVL137:
	cmpq	%rbx, %rdx
	jne	.L70
.L69:
	.loc 1 223 0
	vmovsd	%xmm0, 0(%r13)
	.loc 1 224 0
	addq	$8, %rsp
	.cfi_def_cfa_offset 40
	popq	%rbx
	.cfi_def_cfa_offset 32
.LVL138:
	popq	%rbp
	.cfi_def_cfa_offset 24
.LVL139:
	popq	%r12
	.cfi_def_cfa_offset 16
.LVL140:
	popq	%r13
	.cfi_def_cfa_offset 8
.LVL141:
	ret
	.cfi_endproc
.LFE22:
	.size	unroll2aw_combine, .-unroll2aw_combine
	.p2align 4,,15
	.globl	unroll4a_combine
	.type	unroll4a_combine, @function
unroll4a_combine:
.LFB23:
	.loc 1 229 0
	.cfi_startproc
.LVL142:
	pushq	%r13
	.cfi_def_cfa_offset 16
	.cfi_offset 13, -16
	movq	%rsi, %r13
	pushq	%r12
	.cfi_def_cfa_offset 24
	.cfi_offset 12, -24
	movq	%rdi, %r12
	pushq	%rbp
	.cfi_def_cfa_offset 32
	.cfi_offset 6, -32
	pushq	%rbx
	.cfi_def_cfa_offset 40
	.cfi_offset 3, -40
	subq	$8, %rsp
	.cfi_def_cfa_offset 48
	.loc 1 231 0
	call	vec_length
.LVL143:
	.loc 1 232 0
	leaq	-3(%rax), %rbp
	.loc 1 233 0
	movq	%r12, %rdi
	.loc 1 231 0
	movq	%rax, %rbx
.LVL144:
	.loc 1 233 0
	call	get_vec_start
.LVL145:
	.loc 1 237 0
	xorl	%edx, %edx
	testq	%rbp, %rbp
	.loc 1 233 0
	movq	%rax, %rcx
.LVL146:
	.loc 1 234 0
	vmovsd	.LC0(%rip), %xmm0
	.loc 1 237 0
	jle	.L74
.LVL147:
	.p2align 4,,10
	.p2align 3
.L76:
	.loc 1 238 0 discriminator 2
	vmulsd	(%rcx,%rdx,8), %xmm0, %xmm0
.LVL148:
	vmulsd	8(%rcx,%rdx,8), %xmm0, %xmm0
.LVL149:
	.loc 1 239 0 discriminator 2
	vmulsd	16(%rcx,%rdx,8), %xmm0, %xmm0
	vmulsd	24(%rcx,%rdx,8), %xmm0, %xmm0
.LVL150:
	.loc 1 237 0 discriminator 2
	addq	$4, %rdx
.LVL151:
	cmpq	%rdx, %rbp
	jg	.L76
	leaq	-4(%rbx), %rax
.LVL152:
	shrq	$2, %rax
	leaq	4(,%rax,4), %rdx
.LVL153:
.L74:
	.loc 1 243 0 discriminator 1
	cmpq	%rdx, %rbx
	jle	.L77
	.p2align 4,,10
	.p2align 3
.L78:
	.loc 1 244 0 discriminator 2
	vmulsd	(%rcx,%rdx,8), %xmm0, %xmm0
.LVL154:
	.loc 1 243 0 discriminator 2
	addq	$1, %rdx
.LVL155:
	cmpq	%rbx, %rdx
	jne	.L78
.L77:
	.loc 1 246 0
	vmovsd	%xmm0, 0(%r13)
	.loc 1 247 0
	addq	$8, %rsp
	.cfi_def_cfa_offset 40
	popq	%rbx
	.cfi_def_cfa_offset 32
.LVL156:
	popq	%rbp
	.cfi_def_cfa_offset 24
.LVL157:
	popq	%r12
	.cfi_def_cfa_offset 16
.LVL158:
	popq	%r13
	.cfi_def_cfa_offset 8
.LVL159:
	ret
	.cfi_endproc
.LFE23:
	.size	unroll4a_combine, .-unroll4a_combine
	.p2align 4,,15
	.globl	unroll5a_combine
	.type	unroll5a_combine, @function
unroll5a_combine:
.LFB24:
	.loc 1 258 0
	.cfi_startproc
.LVL160:
	pushq	%r13
	.cfi_def_cfa_offset 16
	.cfi_offset 13, -16
	movq	%rsi, %r13
	pushq	%r12
	.cfi_def_cfa_offset 24
	.cfi_offset 12, -24
	movq	%rdi, %r12
	pushq	%rbp
	.cfi_def_cfa_offset 32
	.cfi_offset 6, -32
	pushq	%rbx
	.cfi_def_cfa_offset 40
	.cfi_offset 3, -40
	subq	$8, %rsp
	.cfi_def_cfa_offset 48
	.loc 1 260 0
	call	vec_length
.LVL161:
	.loc 1 261 0
	leaq	-4(%rax), %rbp
	.loc 1 262 0
	movq	%r12, %rdi
	.loc 1 260 0
	movq	%rax, %rbx
.LVL162:
	.loc 1 262 0
	call	get_vec_start
.LVL163:
	.loc 1 266 0
	testq	%rbp, %rbp
	jle	.L86
	.loc 1 263 0
	vmovsd	.LC0(%rip), %xmm0
	movq	%rax, %rcx
	.loc 1 266 0
	xorl	%edx, %edx
.LVL164:
	.p2align 4,,10
	.p2align 3
.L83:
	.loc 1 267 0 discriminator 2
	vmulsd	(%rcx), %xmm0, %xmm0
.LVL165:
	.loc 1 266 0 discriminator 2
	addq	$5, %rdx
.LVL166:
	addq	$40, %rcx
.LVL167:
	.loc 1 267 0 discriminator 2
	vmulsd	-32(%rcx), %xmm0, %xmm0
.LVL168:
	.loc 1 268 0 discriminator 2
	vmulsd	-24(%rcx), %xmm0, %xmm0
	vmulsd	-16(%rcx), %xmm0, %xmm0
.LVL169:
	.loc 1 269 0 discriminator 2
	vmulsd	-8(%rcx), %xmm0, %xmm0
.LVL170:
	.loc 1 266 0 discriminator 2
	cmpq	%rdx, %rbp
	jg	.L83
.LVL171:
.L82:
	.loc 1 273 0 discriminator 1
	cmpq	%rdx, %rbx
	jle	.L84
	.p2align 4,,10
	.p2align 3
.L85:
	.loc 1 274 0 discriminator 2
	vmulsd	(%rax,%rdx,8), %xmm0, %xmm0
.LVL172:
	.loc 1 273 0 discriminator 2
	addq	$1, %rdx
.LVL173:
	cmpq	%rbx, %rdx
	jne	.L85
.L84:
	.loc 1 276 0
	vmovsd	%xmm0, 0(%r13)
	.loc 1 277 0
	addq	$8, %rsp
	.cfi_remember_state
	.cfi_def_cfa_offset 40
	popq	%rbx
	.cfi_def_cfa_offset 32
.LVL174:
	popq	%rbp
	.cfi_def_cfa_offset 24
.LVL175:
	popq	%r12
	.cfi_def_cfa_offset 16
.LVL176:
	popq	%r13
	.cfi_def_cfa_offset 8
.LVL177:
	ret
.LVL178:
.L86:
	.cfi_restore_state
	.loc 1 263 0
	vmovsd	.LC0(%rip), %xmm0
	.loc 1 266 0
	xorl	%edx, %edx
	jmp	.L82
	.cfi_endproc
.LFE24:
	.size	unroll5a_combine, .-unroll5a_combine
	.p2align 4,,15
	.globl	unroll6a_combine
	.type	unroll6a_combine, @function
unroll6a_combine:
.LFB25:
	.loc 1 282 0
	.cfi_startproc
.LVL179:
	pushq	%r13
	.cfi_def_cfa_offset 16
	.cfi_offset 13, -16
	movq	%rsi, %r13
	pushq	%r12
	.cfi_def_cfa_offset 24
	.cfi_offset 12, -24
	movq	%rdi, %r12
	pushq	%rbp
	.cfi_def_cfa_offset 32
	.cfi_offset 6, -32
	pushq	%rbx
	.cfi_def_cfa_offset 40
	.cfi_offset 3, -40
	subq	$8, %rsp
	.cfi_def_cfa_offset 48
	.loc 1 284 0
	call	vec_length
.LVL180:
	.loc 1 285 0
	leaq	-5(%rax), %rbp
	.loc 1 286 0
	movq	%r12, %rdi
	.loc 1 284 0
	movq	%rax, %rbx
.LVL181:
	.loc 1 286 0
	call	get_vec_start
.LVL182:
	.loc 1 290 0
	testq	%rbp, %rbp
	jle	.L93
	.loc 1 287 0
	vmovsd	.LC0(%rip), %xmm0
	movq	%rax, %rdx
	.loc 1 290 0
	xorl	%ecx, %ecx
.LVL183:
	.p2align 4,,10
	.p2align 3
.L90:
	.loc 1 291 0 discriminator 2
	vmulsd	(%rdx), %xmm0, %xmm0
.LVL184:
	.loc 1 290 0 discriminator 2
	addq	$6, %rcx
.LVL185:
	addq	$48, %rdx
.LVL186:
	.loc 1 291 0 discriminator 2
	vmulsd	-40(%rdx), %xmm0, %xmm0
.LVL187:
	.loc 1 292 0 discriminator 2
	vmulsd	-32(%rdx), %xmm0, %xmm0
	vmulsd	-24(%rdx), %xmm0, %xmm0
	.loc 1 293 0 discriminator 2
	vmulsd	-16(%rdx), %xmm0, %xmm0
	vmulsd	-8(%rdx), %xmm0, %xmm0
.LVL188:
	.loc 1 290 0 discriminator 2
	cmpq	%rcx, %rbp
	jg	.L90
.LVL189:
.L89:
	.loc 1 297 0 discriminator 1
	cmpq	%rcx, %rbx
	jle	.L91
	.p2align 4,,10
	.p2align 3
.L92:
	.loc 1 298 0 discriminator 2
	vmulsd	(%rax,%rcx,8), %xmm0, %xmm0
.LVL190:
	.loc 1 297 0 discriminator 2
	addq	$1, %rcx
.LVL191:
	cmpq	%rbx, %rcx
	jne	.L92
.L91:
	.loc 1 300 0
	vmovsd	%xmm0, 0(%r13)
	.loc 1 301 0
	addq	$8, %rsp
	.cfi_remember_state
	.cfi_def_cfa_offset 40
	popq	%rbx
	.cfi_def_cfa_offset 32
.LVL192:
	popq	%rbp
	.cfi_def_cfa_offset 24
.LVL193:
	popq	%r12
	.cfi_def_cfa_offset 16
.LVL194:
	popq	%r13
	.cfi_def_cfa_offset 8
.LVL195:
	ret
.LVL196:
.L93:
	.cfi_restore_state
	.loc 1 287 0
	vmovsd	.LC0(%rip), %xmm0
	.loc 1 290 0
	xorl	%ecx, %ecx
	jmp	.L89
	.cfi_endproc
.LFE25:
	.size	unroll6a_combine, .-unroll6a_combine
	.p2align 4,,15
	.globl	unroll7a_combine
	.type	unroll7a_combine, @function
unroll7a_combine:
.LFB26:
	.loc 1 305 0
	.cfi_startproc
.LVL197:
	pushq	%r13
	.cfi_def_cfa_offset 16
	.cfi_offset 13, -16
	movq	%rsi, %r13
	pushq	%r12
	.cfi_def_cfa_offset 24
	.cfi_offset 12, -24
	movq	%rdi, %r12
	pushq	%rbp
	.cfi_def_cfa_offset 32
	.cfi_offset 6, -32
	pushq	%rbx
	.cfi_def_cfa_offset 40
	.cfi_offset 3, -40
	subq	$8, %rsp
	.cfi_def_cfa_offset 48
	.loc 1 307 0
	call	vec_length
.LVL198:
	.loc 1 308 0
	leaq	-6(%rax), %rbp
	.loc 1 309 0
	movq	%r12, %rdi
	.loc 1 307 0
	movq	%rax, %rbx
.LVL199:
	.loc 1 309 0
	call	get_vec_start
.LVL200:
	.loc 1 313 0
	testq	%rbp, %rbp
	jle	.L100
	.loc 1 310 0
	vmovsd	.LC0(%rip), %xmm0
	movq	%rax, %rdx
	.loc 1 313 0
	xorl	%ecx, %ecx
.LVL201:
	.p2align 4,,10
	.p2align 3
.L97:
	.loc 1 314 0 discriminator 2
	vmulsd	(%rdx), %xmm0, %xmm0
.LVL202:
	.loc 1 313 0 discriminator 2
	addq	$7, %rcx
.LVL203:
	addq	$56, %rdx
.LVL204:
	.loc 1 314 0 discriminator 2
	vmulsd	-48(%rdx), %xmm0, %xmm0
.LVL205:
	.loc 1 315 0 discriminator 2
	vmulsd	-40(%rdx), %xmm0, %xmm0
	vmulsd	-32(%rdx), %xmm0, %xmm0
	.loc 1 316 0 discriminator 2
	vmulsd	-24(%rdx), %xmm0, %xmm0
	vmulsd	-16(%rdx), %xmm0, %xmm0
.LVL206:
	.loc 1 317 0 discriminator 2
	vmulsd	-8(%rdx), %xmm0, %xmm0
.LVL207:
	.loc 1 313 0 discriminator 2
	cmpq	%rcx, %rbp
	jg	.L97
.LVL208:
.L96:
	.loc 1 321 0 discriminator 1
	cmpq	%rcx, %rbx
	jle	.L98
	.p2align 4,,10
	.p2align 3
.L99:
	.loc 1 322 0 discriminator 2
	vmulsd	(%rax,%rcx,8), %xmm0, %xmm0
.LVL209:
	.loc 1 321 0 discriminator 2
	addq	$1, %rcx
.LVL210:
	cmpq	%rbx, %rcx
	jne	.L99
.L98:
	.loc 1 324 0
	vmovsd	%xmm0, 0(%r13)
	.loc 1 325 0
	addq	$8, %rsp
	.cfi_remember_state
	.cfi_def_cfa_offset 40
	popq	%rbx
	.cfi_def_cfa_offset 32
.LVL211:
	popq	%rbp
	.cfi_def_cfa_offset 24
.LVL212:
	popq	%r12
	.cfi_def_cfa_offset 16
.LVL213:
	popq	%r13
	.cfi_def_cfa_offset 8
.LVL214:
	ret
.LVL215:
.L100:
	.cfi_restore_state
	.loc 1 310 0
	vmovsd	.LC0(%rip), %xmm0
	.loc 1 313 0
	xorl	%ecx, %ecx
	jmp	.L96
	.cfi_endproc
.LFE26:
	.size	unroll7a_combine, .-unroll7a_combine
	.p2align 4,,15
	.globl	unroll8a_combine
	.type	unroll8a_combine, @function
unroll8a_combine:
.LFB27:
	.loc 1 330 0
	.cfi_startproc
.LVL216:
	pushq	%r13
	.cfi_def_cfa_offset 16
	.cfi_offset 13, -16
	movq	%rsi, %r13
	pushq	%r12
	.cfi_def_cfa_offset 24
	.cfi_offset 12, -24
	movq	%rdi, %r12
	pushq	%rbp
	.cfi_def_cfa_offset 32
	.cfi_offset 6, -32
	pushq	%rbx
	.cfi_def_cfa_offset 40
	.cfi_offset 3, -40
	subq	$8, %rsp
	.cfi_def_cfa_offset 48
	.loc 1 332 0
	call	vec_length
.LVL217:
	.loc 1 333 0
	leaq	-7(%rax), %rbp
	.loc 1 334 0
	movq	%r12, %rdi
	.loc 1 332 0
	movq	%rax, %rbx
.LVL218:
	.loc 1 334 0
	call	get_vec_start
.LVL219:
	.loc 1 338 0
	testq	%rbp, %rbp
	jle	.L108
	.loc 1 335 0
	vmovsd	.LC0(%rip), %xmm0
	movq	%rax, %rdx
	.loc 1 338 0
	xorl	%ecx, %ecx
.LVL220:
	.p2align 4,,10
	.p2align 3
.L105:
	.loc 1 339 0 discriminator 2
	vmulsd	(%rdx), %xmm0, %xmm0
.LVL221:
	.loc 1 338 0 discriminator 2
	addq	$8, %rcx
.LVL222:
	addq	$64, %rdx
.LVL223:
	.loc 1 339 0 discriminator 2
	vmulsd	-56(%rdx), %xmm0, %xmm0
.LVL224:
	.loc 1 340 0 discriminator 2
	vmulsd	-48(%rdx), %xmm0, %xmm0
	vmulsd	-40(%rdx), %xmm0, %xmm0
	.loc 1 341 0 discriminator 2
	vmulsd	-32(%rdx), %xmm0, %xmm0
	vmulsd	-24(%rdx), %xmm0, %xmm0
	.loc 1 342 0 discriminator 2
	vmulsd	-16(%rdx), %xmm0, %xmm0
	vmulsd	-8(%rdx), %xmm0, %xmm0
.LVL225:
	.loc 1 338 0 discriminator 2
	cmpq	%rcx, %rbp
	jg	.L105
	leaq	-8(%rbx), %rdx
	shrq	$3, %rdx
	leaq	8(,%rdx,8), %rdx
.LVL226:
.L103:
	.loc 1 346 0 discriminator 1
	cmpq	%rdx, %rbx
	jle	.L106
	.p2align 4,,10
	.p2align 3
.L107:
	.loc 1 347 0 discriminator 2
	vmulsd	(%rax,%rdx,8), %xmm0, %xmm0
.LVL227:
	.loc 1 346 0 discriminator 2
	addq	$1, %rdx
.LVL228:
	cmpq	%rbx, %rdx
	jne	.L107
.L106:
	.loc 1 349 0
	vmovsd	%xmm0, 0(%r13)
	.loc 1 350 0
	addq	$8, %rsp
	.cfi_remember_state
	.cfi_def_cfa_offset 40
	popq	%rbx
	.cfi_def_cfa_offset 32
.LVL229:
	popq	%rbp
	.cfi_def_cfa_offset 24
.LVL230:
	popq	%r12
	.cfi_def_cfa_offset 16
.LVL231:
	popq	%r13
	.cfi_def_cfa_offset 8
.LVL232:
	ret
.LVL233:
.L108:
	.cfi_restore_state
	.loc 1 335 0
	vmovsd	.LC0(%rip), %xmm0
	.loc 1 338 0
	xorl	%edx, %edx
	jmp	.L103
	.cfi_endproc
.LFE27:
	.size	unroll8a_combine, .-unroll8a_combine
	.p2align 4,,15
	.globl	unroll9a_combine
	.type	unroll9a_combine, @function
unroll9a_combine:
.LFB28:
	.loc 1 354 0
	.cfi_startproc
.LVL234:
	pushq	%r13
	.cfi_def_cfa_offset 16
	.cfi_offset 13, -16
	movq	%rsi, %r13
	pushq	%r12
	.cfi_def_cfa_offset 24
	.cfi_offset 12, -24
	movq	%rdi, %r12
	pushq	%rbp
	.cfi_def_cfa_offset 32
	.cfi_offset 6, -32
	pushq	%rbx
	.cfi_def_cfa_offset 40
	.cfi_offset 3, -40
	subq	$8, %rsp
	.cfi_def_cfa_offset 48
	.loc 1 356 0
	call	vec_length
.LVL235:
	.loc 1 357 0
	leaq	-8(%rax), %rbp
	.loc 1 358 0
	movq	%r12, %rdi
	.loc 1 356 0
	movq	%rax, %rbx
.LVL236:
	.loc 1 358 0
	call	get_vec_start
.LVL237:
	.loc 1 362 0
	testq	%rbp, %rbp
	jle	.L115
	.loc 1 359 0
	vmovsd	.LC0(%rip), %xmm0
	movq	%rax, %rdx
	.loc 1 362 0
	xorl	%ecx, %ecx
.LVL238:
	.p2align 4,,10
	.p2align 3
.L112:
	.loc 1 363 0 discriminator 2
	vmulsd	(%rdx), %xmm0, %xmm0
.LVL239:
	.loc 1 362 0 discriminator 2
	addq	$9, %rcx
.LVL240:
	addq	$72, %rdx
.LVL241:
	.loc 1 363 0 discriminator 2
	vmulsd	-64(%rdx), %xmm0, %xmm0
.LVL242:
	.loc 1 364 0 discriminator 2
	vmulsd	-56(%rdx), %xmm0, %xmm0
	vmulsd	-48(%rdx), %xmm0, %xmm0
	.loc 1 365 0 discriminator 2
	vmulsd	-40(%rdx), %xmm0, %xmm0
	vmulsd	-32(%rdx), %xmm0, %xmm0
	.loc 1 366 0 discriminator 2
	vmulsd	-24(%rdx), %xmm0, %xmm0
	vmulsd	-16(%rdx), %xmm0, %xmm0
.LVL243:
	.loc 1 367 0 discriminator 2
	vmulsd	-8(%rdx), %xmm0, %xmm0
.LVL244:
	.loc 1 362 0 discriminator 2
	cmpq	%rcx, %rbp
	jg	.L112
.LVL245:
.L111:
	.loc 1 371 0 discriminator 1
	cmpq	%rcx, %rbx
	jle	.L113
	.p2align 4,,10
	.p2align 3
.L114:
	.loc 1 372 0 discriminator 2
	vmulsd	(%rax,%rcx,8), %xmm0, %xmm0
.LVL246:
	.loc 1 371 0 discriminator 2
	addq	$1, %rcx
.LVL247:
	cmpq	%rbx, %rcx
	jne	.L114
.L113:
	.loc 1 374 0
	vmovsd	%xmm0, 0(%r13)
	.loc 1 375 0
	addq	$8, %rsp
	.cfi_remember_state
	.cfi_def_cfa_offset 40
	popq	%rbx
	.cfi_def_cfa_offset 32
.LVL248:
	popq	%rbp
	.cfi_def_cfa_offset 24
.LVL249:
	popq	%r12
	.cfi_def_cfa_offset 16
.LVL250:
	popq	%r13
	.cfi_def_cfa_offset 8
.LVL251:
	ret
.LVL252:
.L115:
	.cfi_restore_state
	.loc 1 359 0
	vmovsd	.LC0(%rip), %xmm0
	.loc 1 362 0
	xorl	%ecx, %ecx
	jmp	.L111
	.cfi_endproc
.LFE28:
	.size	unroll9a_combine, .-unroll9a_combine
	.p2align 4,,15
	.globl	unroll10a_combine
	.type	unroll10a_combine, @function
unroll10a_combine:
.LFB29:
	.loc 1 379 0
	.cfi_startproc
.LVL253:
	pushq	%r13
	.cfi_def_cfa_offset 16
	.cfi_offset 13, -16
	movq	%rsi, %r13
	pushq	%r12
	.cfi_def_cfa_offset 24
	.cfi_offset 12, -24
	movq	%rdi, %r12
	pushq	%rbp
	.cfi_def_cfa_offset 32
	.cfi_offset 6, -32
	pushq	%rbx
	.cfi_def_cfa_offset 40
	.cfi_offset 3, -40
	subq	$8, %rsp
	.cfi_def_cfa_offset 48
	.loc 1 381 0
	call	vec_length
.LVL254:
	.loc 1 382 0
	leaq	-9(%rax), %rbp
	.loc 1 383 0
	movq	%r12, %rdi
	.loc 1 381 0
	movq	%rax, %rbx
.LVL255:
	.loc 1 383 0
	call	get_vec_start
.LVL256:
	.loc 1 387 0
	testq	%rbp, %rbp
	jle	.L122
	.loc 1 384 0
	vmovsd	.LC0(%rip), %xmm0
	movq	%rax, %rdx
	.loc 1 387 0
	xorl	%ecx, %ecx
.LVL257:
	.p2align 4,,10
	.p2align 3
.L119:
	.loc 1 388 0 discriminator 2
	vmulsd	(%rdx), %xmm0, %xmm0
.LVL258:
	.loc 1 387 0 discriminator 2
	addq	$10, %rcx
.LVL259:
	addq	$80, %rdx
.LVL260:
	.loc 1 388 0 discriminator 2
	vmulsd	-72(%rdx), %xmm0, %xmm0
.LVL261:
	.loc 1 389 0 discriminator 2
	vmulsd	-64(%rdx), %xmm0, %xmm0
	vmulsd	-56(%rdx), %xmm0, %xmm0
	.loc 1 390 0 discriminator 2
	vmulsd	-48(%rdx), %xmm0, %xmm0
	vmulsd	-40(%rdx), %xmm0, %xmm0
	.loc 1 391 0 discriminator 2
	vmulsd	-32(%rdx), %xmm0, %xmm0
	vmulsd	-24(%rdx), %xmm0, %xmm0
	.loc 1 392 0 discriminator 2
	vmulsd	-16(%rdx), %xmm0, %xmm0
	vmulsd	-8(%rdx), %xmm0, %xmm0
.LVL262:
	.loc 1 387 0 discriminator 2
	cmpq	%rcx, %rbp
	jg	.L119
.LVL263:
.L118:
	.loc 1 396 0 discriminator 1
	cmpq	%rcx, %rbx
	jle	.L120
	.p2align 4,,10
	.p2align 3
.L121:
	.loc 1 397 0 discriminator 2
	vmulsd	(%rax,%rcx,8), %xmm0, %xmm0
.LVL264:
	.loc 1 396 0 discriminator 2
	addq	$1, %rcx
.LVL265:
	cmpq	%rbx, %rcx
	jne	.L121
.L120:
	.loc 1 399 0
	vmovsd	%xmm0, 0(%r13)
	.loc 1 400 0
	addq	$8, %rsp
	.cfi_remember_state
	.cfi_def_cfa_offset 40
	popq	%rbx
	.cfi_def_cfa_offset 32
.LVL266:
	popq	%rbp
	.cfi_def_cfa_offset 24
.LVL267:
	popq	%r12
	.cfi_def_cfa_offset 16
.LVL268:
	popq	%r13
	.cfi_def_cfa_offset 8
.LVL269:
	ret
.LVL270:
.L122:
	.cfi_restore_state
	.loc 1 384 0
	vmovsd	.LC0(%rip), %xmm0
	.loc 1 387 0
	xorl	%ecx, %ecx
	jmp	.L118
	.cfi_endproc
.LFE29:
	.size	unroll10a_combine, .-unroll10a_combine
	.p2align 4,,15
	.globl	unroll16a_combine
	.type	unroll16a_combine, @function
unroll16a_combine:
.LFB30:
	.loc 1 405 0
	.cfi_startproc
.LVL271:
	pushq	%r13
	.cfi_def_cfa_offset 16
	.cfi_offset 13, -16
	movq	%rsi, %r13
	pushq	%r12
	.cfi_def_cfa_offset 24
	.cfi_offset 12, -24
	movq	%rdi, %r12
	pushq	%rbp
	.cfi_def_cfa_offset 32
	.cfi_offset 6, -32
	pushq	%rbx
	.cfi_def_cfa_offset 40
	.cfi_offset 3, -40
	subq	$8, %rsp
	.cfi_def_cfa_offset 48
	.loc 1 407 0
	call	vec_length
.LVL272:
	.loc 1 408 0
	leaq	-15(%rax), %rbp
	.loc 1 409 0
	movq	%r12, %rdi
	.loc 1 407 0
	movq	%rax, %rbx
.LVL273:
	.loc 1 409 0
	call	get_vec_start
.LVL274:
	.loc 1 413 0
	testq	%rbp, %rbp
	jle	.L130
	.loc 1 410 0
	vmovsd	.LC0(%rip), %xmm0
	movq	%rax, %rdx
	.loc 1 413 0
	xorl	%ecx, %ecx
.LVL275:
	.p2align 4,,10
	.p2align 3
.L127:
	.loc 1 414 0 discriminator 2
	vmulsd	(%rdx), %xmm0, %xmm0
.LVL276:
	.loc 1 413 0 discriminator 2
	addq	$16, %rcx
.LVL277:
	subq	$-128, %rdx
.LVL278:
	.loc 1 414 0 discriminator 2
	vmulsd	-120(%rdx), %xmm0, %xmm0
.LVL279:
	.loc 1 415 0 discriminator 2
	vmulsd	-112(%rdx), %xmm0, %xmm0
	vmulsd	-104(%rdx), %xmm0, %xmm0
	.loc 1 416 0 discriminator 2
	vmulsd	-96(%rdx), %xmm0, %xmm0
	vmulsd	-88(%rdx), %xmm0, %xmm0
	.loc 1 417 0 discriminator 2
	vmulsd	-80(%rdx), %xmm0, %xmm0
	vmulsd	-72(%rdx), %xmm0, %xmm0
	.loc 1 418 0 discriminator 2
	vmulsd	-64(%rdx), %xmm0, %xmm0
	vmulsd	-56(%rdx), %xmm0, %xmm0
	.loc 1 419 0 discriminator 2
	vmulsd	-48(%rdx), %xmm0, %xmm0
	vmulsd	-40(%rdx), %xmm0, %xmm0
	.loc 1 420 0 discriminator 2
	vmulsd	-32(%rdx), %xmm0, %xmm0
	vmulsd	-24(%rdx), %xmm0, %xmm0
	.loc 1 421 0 discriminator 2
	vmulsd	-16(%rdx), %xmm0, %xmm0
	vmulsd	-8(%rdx), %xmm0, %xmm0
.LVL280:
	.loc 1 413 0 discriminator 2
	cmpq	%rcx, %rbp
	jg	.L127
	leaq	-16(%rbx), %rdx
	andq	$-16, %rdx
	addq	$16, %rdx
.LVL281:
.L125:
	.loc 1 425 0 discriminator 1
	cmpq	%rdx, %rbx
	jle	.L128
	.p2align 4,,10
	.p2align 3
.L129:
	.loc 1 426 0 discriminator 2
	vmulsd	(%rax,%rdx,8), %xmm0, %xmm0
.LVL282:
	.loc 1 425 0 discriminator 2
	addq	$1, %rdx
.LVL283:
	cmpq	%rbx, %rdx
	jne	.L129
.L128:
	.loc 1 428 0
	vmovsd	%xmm0, 0(%r13)
	.loc 1 429 0
	addq	$8, %rsp
	.cfi_remember_state
	.cfi_def_cfa_offset 40
	popq	%rbx
	.cfi_def_cfa_offset 32
.LVL284:
	popq	%rbp
	.cfi_def_cfa_offset 24
.LVL285:
	popq	%r12
	.cfi_def_cfa_offset 16
.LVL286:
	popq	%r13
	.cfi_def_cfa_offset 8
.LVL287:
	ret
.LVL288:
.L130:
	.cfi_restore_state
	.loc 1 410 0
	vmovsd	.LC0(%rip), %xmm0
	.loc 1 413 0
	xorl	%edx, %edx
	jmp	.L125
	.cfi_endproc
.LFE30:
	.size	unroll16a_combine, .-unroll16a_combine
	.p2align 4,,15
	.globl	unroll2_combine
	.type	unroll2_combine, @function
unroll2_combine:
.LFB31:
	.loc 1 433 0
	.cfi_startproc
.LVL289:
	pushq	%r12
	.cfi_def_cfa_offset 16
	.cfi_offset 12, -16
	movq	%rsi, %r12
	pushq	%rbp
	.cfi_def_cfa_offset 24
	.cfi_offset 6, -24
	movq	%rdi, %rbp
	pushq	%rbx
	.cfi_def_cfa_offset 32
	.cfi_offset 3, -32
	.loc 1 434 0
	call	vec_length
.LVL290:
	.loc 1 435 0
	movq	%rbp, %rdi
	.loc 1 434 0
	movq	%rax, %rbx
.LVL291:
	.loc 1 435 0
	call	get_vec_start
.LVL292:
	movq	%rax, %rcx
.LVL293:
	.loc 1 436 0
	movq	%rbx, %rax
.LVL294:
	shrq	$63, %rax
	leaq	(%rbx,%rax), %rdi
	andl	$1, %edi
	subq	%rax, %rdi
	.loc 1 437 0
	subq	%rdi, %rbx
.LVL295:
	leaq	(%rcx,%rbx,8), %rax
.LVL296:
	.loc 1 440 0
	cmpq	%rax, %rcx
	jae	.L138
	.loc 1 438 0
	vmovsd	.LC0(%rip), %xmm0
	.loc 1 440 0
	movq	%rcx, %rdx
.LVL297:
	.p2align 4,,10
	.p2align 3
.L135:
	.loc 1 441 0
	vmulsd	(%rdx), %xmm0, %xmm0
.LVL298:
	.loc 1 443 0
	addq	$16, %rdx
.LVL299:
	.loc 1 442 0
	vmulsd	-8(%rdx), %xmm0, %xmm0
.LVL300:
	.loc 1 440 0
	cmpq	%rdx, %rax
	ja	.L135
	movq	%rcx, %rdx
.LVL301:
	notq	%rdx
	addq	%rax, %rdx
	andq	$-16, %rdx
	leaq	16(%rcx,%rdx), %rcx
.LVL302:
.L133:
	.loc 1 445 0
	leaq	(%rax,%rdi,8), %rax
.LVL303:
	.loc 1 446 0
	cmpq	%rcx, %rax
	jbe	.L136
	.p2align 4,,10
	.p2align 3
.L137:
	.loc 1 447 0
	vmulsd	(%rcx), %xmm0, %xmm0
.LVL304:
	.loc 1 448 0
	addq	$8, %rcx
.LVL305:
	.loc 1 446 0
	cmpq	%rcx, %rax
	ja	.L137
.L136:
	.loc 1 451 0
	popq	%rbx
	.cfi_remember_state
	.cfi_def_cfa_offset 24
	popq	%rbp
	.cfi_def_cfa_offset 16
.LVL306:
	.loc 1 450 0
	vmovsd	%xmm0, (%r12)
	.loc 1 451 0
	popq	%r12
	.cfi_def_cfa_offset 8
.LVL307:
	ret
.LVL308:
.L138:
	.cfi_restore_state
	.loc 1 438 0
	vmovsd	.LC0(%rip), %xmm0
	jmp	.L133
	.cfi_endproc
.LFE31:
	.size	unroll2_combine, .-unroll2_combine
	.p2align 4,,15
	.globl	unroll3_combine
	.type	unroll3_combine, @function
unroll3_combine:
.LFB32:
	.loc 1 456 0
	.cfi_startproc
.LVL309:
	pushq	%r12
	.cfi_def_cfa_offset 16
	.cfi_offset 12, -16
	pushq	%rbp
	.cfi_def_cfa_offset 24
	.cfi_offset 6, -24
	movq	%rsi, %rbp
	pushq	%rbx
	.cfi_def_cfa_offset 32
	.cfi_offset 3, -32
	.loc 1 456 0
	movq	%rdi, %rbx
	.loc 1 457 0
	call	vec_length
.LVL310:
	.loc 1 458 0
	movq	%rbx, %rdi
	.loc 1 457 0
	movq	%rax, %r12
.LVL311:
	.loc 1 458 0
	call	get_vec_start
.LVL312:
	movq	%rax, %rdx
.LVL313:
	.loc 1 459 0
	leaq	-16(%rax,%r12,8), %rax
.LVL314:
	.loc 1 460 0
	vmovsd	.LC0(%rip), %xmm0
	.loc 1 462 0
	cmpq	%rax, %rdx
	jae	.L141
.LVL315:
	.p2align 4,,10
	.p2align 3
.L142:
	.loc 1 463 0
	vmulsd	(%rdx), %xmm0, %xmm0
.LVL316:
	.loc 1 466 0
	addq	$24, %rdx
.LVL317:
	.loc 1 464 0
	vmulsd	-16(%rdx), %xmm0, %xmm0
.LVL318:
	.loc 1 465 0
	vmulsd	-8(%rdx), %xmm0, %xmm0
.LVL319:
	.loc 1 462 0
	cmpq	%rdx, %rax
	ja	.L142
.LVL320:
.L141:
	.loc 1 468 0
	addq	$16, %rax
.LVL321:
	.loc 1 469 0
	cmpq	%rdx, %rax
	jbe	.L143
	.p2align 4,,10
	.p2align 3
.L144:
	.loc 1 470 0
	vmulsd	(%rdx), %xmm0, %xmm0
.LVL322:
	.loc 1 471 0
	addq	$8, %rdx
.LVL323:
	.loc 1 469 0
	cmpq	%rdx, %rax
	ja	.L144
.L143:
	.loc 1 473 0
	vmovsd	%xmm0, 0(%rbp)
	.loc 1 474 0
	popq	%rbx
	.cfi_def_cfa_offset 24
.LVL324:
	popq	%rbp
	.cfi_def_cfa_offset 16
.LVL325:
	popq	%r12
	.cfi_def_cfa_offset 8
.LVL326:
	ret
	.cfi_endproc
.LFE32:
	.size	unroll3_combine, .-unroll3_combine
	.p2align 4,,15
	.globl	unroll4_combine
	.type	unroll4_combine, @function
unroll4_combine:
.LFB33:
	.loc 1 479 0
	.cfi_startproc
.LVL327:
	pushq	%r12
	.cfi_def_cfa_offset 16
	.cfi_offset 12, -16
	pushq	%rbp
	.cfi_def_cfa_offset 24
	.cfi_offset 6, -24
	movq	%rsi, %rbp
	pushq	%rbx
	.cfi_def_cfa_offset 32
	.cfi_offset 3, -32
	.loc 1 479 0
	movq	%rdi, %rbx
	.loc 1 480 0
	call	vec_length
.LVL328:
	.loc 1 481 0
	movq	%rbx, %rdi
	.loc 1 480 0
	movq	%rax, %r12
.LVL329:
	.loc 1 481 0
	call	get_vec_start
.LVL330:
	movq	%rax, %rcx
.LVL331:
	.loc 1 482 0
	leaq	-24(%rax,%r12,8), %rax
.LVL332:
	.loc 1 485 0
	cmpq	%rax, %rcx
	jae	.L153
	.loc 1 483 0
	vmovsd	.LC0(%rip), %xmm0
	.loc 1 485 0
	movq	%rcx, %rdx
.LVL333:
	.p2align 4,,10
	.p2align 3
.L150:
	.loc 1 486 0
	vmulsd	(%rdx), %xmm0, %xmm0
.LVL334:
	.loc 1 490 0
	addq	$32, %rdx
.LVL335:
	.loc 1 487 0
	vmulsd	-24(%rdx), %xmm0, %xmm0
.LVL336:
	.loc 1 488 0
	vmulsd	-16(%rdx), %xmm0, %xmm0
.LVL337:
	.loc 1 489 0
	vmulsd	-8(%rdx), %xmm0, %xmm0
.LVL338:
	.loc 1 485 0
	cmpq	%rdx, %rax
	ja	.L150
	movq	%rcx, %rdx
.LVL339:
	notq	%rdx
	addq	%rax, %rdx
	andq	$-32, %rdx
	leaq	32(%rcx,%rdx), %rcx
.LVL340:
.L148:
	.loc 1 492 0
	addq	$24, %rax
.LVL341:
	.loc 1 493 0
	cmpq	%rcx, %rax
	jbe	.L151
	.p2align 4,,10
	.p2align 3
.L152:
	.loc 1 494 0
	vmulsd	(%rcx), %xmm0, %xmm0
.LVL342:
	.loc 1 495 0
	addq	$8, %rcx
.LVL343:
	.loc 1 493 0
	cmpq	%rcx, %rax
	ja	.L152
.L151:
	.loc 1 497 0
	vmovsd	%xmm0, 0(%rbp)
	.loc 1 498 0
	popq	%rbx
	.cfi_remember_state
	.cfi_def_cfa_offset 24
.LVL344:
	popq	%rbp
	.cfi_def_cfa_offset 16
.LVL345:
	popq	%r12
	.cfi_def_cfa_offset 8
.LVL346:
	ret
.LVL347:
.L153:
	.cfi_restore_state
	.loc 1 483 0
	vmovsd	.LC0(%rip), %xmm0
	jmp	.L148
	.cfi_endproc
.LFE33:
	.size	unroll4_combine, .-unroll4_combine
	.p2align 4,,15
	.globl	unroll8_combine
	.type	unroll8_combine, @function
unroll8_combine:
.LFB34:
	.loc 1 502 0
	.cfi_startproc
.LVL348:
	pushq	%r12
	.cfi_def_cfa_offset 16
	.cfi_offset 12, -16
	movq	%rsi, %r12
	pushq	%rbp
	.cfi_def_cfa_offset 24
	.cfi_offset 6, -24
	movq	%rdi, %rbp
	pushq	%rbx
	.cfi_def_cfa_offset 32
	.cfi_offset 3, -32
	.loc 1 503 0
	call	vec_length
.LVL349:
	.loc 1 504 0
	movq	%rbp, %rdi
	.loc 1 503 0
	movq	%rax, %rbx
.LVL350:
	.loc 1 504 0
	call	get_vec_start
.LVL351:
	.loc 1 505 0
	movq	%rbx, %rdx
	.loc 1 504 0
	movq	%rax, %rcx
.LVL352:
	.loc 1 505 0
	sarq	$63, %rdx
	shrq	$61, %rdx
	leaq	(%rbx,%rdx), %rdi
	andl	$7, %edi
	subq	%rdx, %rdi
	.loc 1 506 0
	subq	%rdi, %rbx
.LVL353:
	leaq	(%rax,%rbx,8), %rax
.LVL354:
	.loc 1 509 0
	cmpq	%rax, %rcx
	jae	.L161
	.loc 1 507 0
	vmovsd	.LC0(%rip), %xmm0
	.loc 1 509 0
	movq	%rcx, %rdx
.LVL355:
	.p2align 4,,10
	.p2align 3
.L158:
	.loc 1 510 0
	vmulsd	(%rdx), %xmm0, %xmm0
.LVL356:
	.loc 1 518 0
	addq	$64, %rdx
.LVL357:
	.loc 1 511 0
	vmulsd	-56(%rdx), %xmm0, %xmm0
.LVL358:
	.loc 1 512 0
	vmulsd	-48(%rdx), %xmm0, %xmm0
.LVL359:
	.loc 1 513 0
	vmulsd	-40(%rdx), %xmm0, %xmm0
.LVL360:
	.loc 1 514 0
	vmulsd	-32(%rdx), %xmm0, %xmm0
.LVL361:
	.loc 1 515 0
	vmulsd	-24(%rdx), %xmm0, %xmm0
.LVL362:
	.loc 1 516 0
	vmulsd	-16(%rdx), %xmm0, %xmm0
.LVL363:
	.loc 1 517 0
	vmulsd	-8(%rdx), %xmm0, %xmm0
.LVL364:
	.loc 1 509 0
	cmpq	%rdx, %rax
	ja	.L158
	movq	%rcx, %rdx
.LVL365:
	notq	%rdx
	addq	%rax, %rdx
	andq	$-64, %rdx
	leaq	64(%rcx,%rdx), %rcx
.LVL366:
.L156:
	.loc 1 520 0
	leaq	(%rax,%rdi,8), %rax
.LVL367:
	.loc 1 521 0
	cmpq	%rcx, %rax
	jbe	.L159
	.p2align 4,,10
	.p2align 3
.L160:
	.loc 1 522 0
	vmulsd	(%rcx), %xmm0, %xmm0
.LVL368:
	.loc 1 523 0
	addq	$8, %rcx
.LVL369:
	.loc 1 521 0
	cmpq	%rcx, %rax
	ja	.L160
.L159:
	.loc 1 526 0
	popq	%rbx
	.cfi_remember_state
	.cfi_def_cfa_offset 24
	popq	%rbp
	.cfi_def_cfa_offset 16
.LVL370:
	.loc 1 525 0
	vmovsd	%xmm0, (%r12)
	.loc 1 526 0
	popq	%r12
	.cfi_def_cfa_offset 8
.LVL371:
	ret
.LVL372:
.L161:
	.cfi_restore_state
	.loc 1 507 0
	vmovsd	.LC0(%rip), %xmm0
	jmp	.L156
	.cfi_endproc
.LFE34:
	.size	unroll8_combine, .-unroll8_combine
	.p2align 4,,15
	.globl	unroll16_combine
	.type	unroll16_combine, @function
unroll16_combine:
.LFB35:
	.loc 1 530 0
	.cfi_startproc
.LVL373:
	pushq	%r12
	.cfi_def_cfa_offset 16
	.cfi_offset 12, -16
	movq	%rsi, %r12
	pushq	%rbp
	.cfi_def_cfa_offset 24
	.cfi_offset 6, -24
	movq	%rdi, %rbp
	pushq	%rbx
	.cfi_def_cfa_offset 32
	.cfi_offset 3, -32
	.loc 1 531 0
	call	vec_length
.LVL374:
	.loc 1 532 0
	movq	%rbp, %rdi
	.loc 1 531 0
	movq	%rax, %rbx
.LVL375:
	.loc 1 532 0
	call	get_vec_start
.LVL376:
	.loc 1 533 0
	movq	%rbx, %rdx
	.loc 1 532 0
	movq	%rax, %rcx
.LVL377:
	.loc 1 533 0
	sarq	$63, %rdx
	shrq	$60, %rdx
	leaq	(%rbx,%rdx), %rdi
	andl	$15, %edi
	subq	%rdx, %rdi
	.loc 1 534 0
	subq	%rdi, %rbx
.LVL378:
	leaq	(%rax,%rbx,8), %rax
.LVL379:
	.loc 1 537 0
	cmpq	%rax, %rcx
	jae	.L169
	.loc 1 535 0
	vmovsd	.LC0(%rip), %xmm0
	.loc 1 537 0
	movq	%rcx, %rdx
.LVL380:
	.p2align 4,,10
	.p2align 3
.L166:
	.loc 1 538 0
	vmulsd	(%rdx), %xmm0, %xmm0
.LVL381:
	.loc 1 554 0
	subq	$-128, %rdx
.LVL382:
	.loc 1 539 0
	vmulsd	-120(%rdx), %xmm0, %xmm0
.LVL383:
	.loc 1 540 0
	vmulsd	-112(%rdx), %xmm0, %xmm0
.LVL384:
	.loc 1 541 0
	vmulsd	-104(%rdx), %xmm0, %xmm0
.LVL385:
	.loc 1 542 0
	vmulsd	-96(%rdx), %xmm0, %xmm0
.LVL386:
	.loc 1 543 0
	vmulsd	-88(%rdx), %xmm0, %xmm0
.LVL387:
	.loc 1 544 0
	vmulsd	-80(%rdx), %xmm0, %xmm0
.LVL388:
	.loc 1 545 0
	vmulsd	-72(%rdx), %xmm0, %xmm0
.LVL389:
	.loc 1 546 0
	vmulsd	-64(%rdx), %xmm0, %xmm0
.LVL390:
	.loc 1 547 0
	vmulsd	-56(%rdx), %xmm0, %xmm0
.LVL391:
	.loc 1 548 0
	vmulsd	-48(%rdx), %xmm0, %xmm0
.LVL392:
	.loc 1 549 0
	vmulsd	-40(%rdx), %xmm0, %xmm0
.LVL393:
	.loc 1 550 0
	vmulsd	-32(%rdx), %xmm0, %xmm0
.LVL394:
	.loc 1 551 0
	vmulsd	-24(%rdx), %xmm0, %xmm0
.LVL395:
	.loc 1 552 0
	vmulsd	-16(%rdx), %xmm0, %xmm0
.LVL396:
	.loc 1 553 0
	vmulsd	-8(%rdx), %xmm0, %xmm0
.LVL397:
	.loc 1 537 0
	cmpq	%rdx, %rax
	ja	.L166
	movq	%rcx, %rdx
.LVL398:
	notq	%rdx
	addq	%rax, %rdx
	andq	$-128, %rdx
	leaq	128(%rcx,%rdx), %rcx
.LVL399:
.L164:
	.loc 1 556 0
	leaq	(%rax,%rdi,8), %rax
.LVL400:
	.loc 1 557 0
	cmpq	%rcx, %rax
	jbe	.L167
	.p2align 4,,10
	.p2align 3
.L168:
	.loc 1 558 0
	vmulsd	(%rcx), %xmm0, %xmm0
.LVL401:
	.loc 1 559 0
	addq	$8, %rcx
.LVL402:
	.loc 1 557 0
	cmpq	%rcx, %rax
	ja	.L168
.L167:
	.loc 1 562 0
	popq	%rbx
	.cfi_remember_state
	.cfi_def_cfa_offset 24
	popq	%rbp
	.cfi_def_cfa_offset 16
.LVL403:
	.loc 1 561 0
	vmovsd	%xmm0, (%r12)
	.loc 1 562 0
	popq	%r12
	.cfi_def_cfa_offset 8
.LVL404:
	ret
.LVL405:
.L169:
	.cfi_restore_state
	.loc 1 535 0
	vmovsd	.LC0(%rip), %xmm0
	jmp	.L164
	.cfi_endproc
.LFE35:
	.size	unroll16_combine, .-unroll16_combine
	.p2align 4,,15
	.globl	combine6
	.type	combine6, @function
combine6:
.LFB36:
	.loc 1 569 0
	.cfi_startproc
.LVL406:
	pushq	%r13
	.cfi_def_cfa_offset 16
	.cfi_offset 13, -16
	movq	%rsi, %r13
	pushq	%r12
	.cfi_def_cfa_offset 24
	.cfi_offset 12, -24
	movq	%rdi, %r12
	pushq	%rbp
	.cfi_def_cfa_offset 32
	.cfi_offset 6, -32
	pushq	%rbx
	.cfi_def_cfa_offset 40
	.cfi_offset 3, -40
	subq	$8, %rsp
	.cfi_def_cfa_offset 48
	.loc 1 571 0
	call	vec_length
.LVL407:
	.loc 1 573 0
	movq	%r12, %rdi
	.loc 1 572 0
	leaq	-1(%rax), %rbp
	.loc 1 571 0
	movq	%rax, %rbx
.LVL408:
	.loc 1 573 0
	call	get_vec_start
.LVL409:
	.loc 1 575 0
	vmovsd	.LC0(%rip), %xmm1
	.loc 1 578 0
	xorl	%edx, %edx
	testq	%rbp, %rbp
	.loc 1 573 0
	movq	%rax, %rcx
.LVL410:
	.loc 1 574 0
	vmovapd	%xmm1, %xmm0
	.loc 1 578 0
	jle	.L172
.LVL411:
	.p2align 4,,10
	.p2align 3
.L174:
	.loc 1 579 0 discriminator 2
	vmulsd	(%rcx,%rdx,8), %xmm0, %xmm0
.LVL412:
	.loc 1 580 0 discriminator 2
	vmulsd	8(%rcx,%rdx,8), %xmm1, %xmm1
.LVL413:
	.loc 1 578 0 discriminator 2
	addq	$2, %rdx
.LVL414:
	cmpq	%rdx, %rbp
	jg	.L174
	leaq	-2(%rbx), %rax
.LVL415:
	shrq	%rax
	leaq	2(%rax,%rax), %rdx
.LVL416:
.L172:
	.loc 1 584 0 discriminator 1
	cmpq	%rdx, %rbx
	jle	.L175
	.p2align 4,,10
	.p2align 3
.L176:
	.loc 1 585 0 discriminator 2
	vmulsd	(%rcx,%rdx,8), %xmm0, %xmm0
.LVL417:
	.loc 1 584 0 discriminator 2
	addq	$1, %rdx
.LVL418:
	cmpq	%rbx, %rdx
	jne	.L176
.L175:
	.loc 1 587 0
	vmulsd	%xmm1, %xmm0, %xmm0
.LVL419:
	vmovsd	%xmm0, 0(%r13)
	.loc 1 588 0
	addq	$8, %rsp
	.cfi_def_cfa_offset 40
	popq	%rbx
	.cfi_def_cfa_offset 32
.LVL420:
	popq	%rbp
	.cfi_def_cfa_offset 24
.LVL421:
	popq	%r12
	.cfi_def_cfa_offset 16
.LVL422:
	popq	%r13
	.cfi_def_cfa_offset 8
.LVL423:
	ret
	.cfi_endproc
.LFE36:
	.size	combine6, .-combine6
	.p2align 4,,15
	.globl	unroll4x2a_combine
	.type	unroll4x2a_combine, @function
unroll4x2a_combine:
.LFB37:
	.loc 1 593 0
	.cfi_startproc
.LVL424:
	pushq	%r13
	.cfi_def_cfa_offset 16
	.cfi_offset 13, -16
	movq	%rsi, %r13
	pushq	%r12
	.cfi_def_cfa_offset 24
	.cfi_offset 12, -24
	movq	%rdi, %r12
	pushq	%rbp
	.cfi_def_cfa_offset 32
	.cfi_offset 6, -32
	pushq	%rbx
	.cfi_def_cfa_offset 40
	.cfi_offset 3, -40
	subq	$8, %rsp
	.cfi_def_cfa_offset 48
	.loc 1 595 0
	call	vec_length
.LVL425:
	.loc 1 597 0
	movq	%r12, %rdi
	.loc 1 596 0
	leaq	-3(%rax), %rbp
	.loc 1 595 0
	movq	%rax, %rbx
.LVL426:
	.loc 1 597 0
	call	get_vec_start
.LVL427:
	.loc 1 599 0
	vmovsd	.LC0(%rip), %xmm1
	.loc 1 602 0
	xorl	%edx, %edx
	testq	%rbp, %rbp
	.loc 1 597 0
	movq	%rax, %rcx
.LVL428:
	.loc 1 598 0
	vmovapd	%xmm1, %xmm0
	.loc 1 602 0
	jle	.L180
.LVL429:
	.p2align 4,,10
	.p2align 3
.L182:
	.loc 1 603 0 discriminator 2
	vmulsd	(%rcx,%rdx,8), %xmm0, %xmm0
.LVL430:
	vmulsd	8(%rcx,%rdx,8), %xmm1, %xmm1
.LVL431:
	.loc 1 604 0 discriminator 2
	vmulsd	16(%rcx,%rdx,8), %xmm0, %xmm0
.LVL432:
	vmulsd	24(%rcx,%rdx,8), %xmm1, %xmm1
.LVL433:
	.loc 1 602 0 discriminator 2
	addq	$4, %rdx
.LVL434:
	cmpq	%rdx, %rbp
	jg	.L182
	leaq	-4(%rbx), %rax
.LVL435:
	shrq	$2, %rax
	leaq	4(,%rax,4), %rdx
.LVL436:
.L180:
	.loc 1 608 0 discriminator 1
	cmpq	%rdx, %rbx
	jle	.L183
	.p2align 4,,10
	.p2align 3
.L184:
	.loc 1 609 0 discriminator 2
	vmulsd	(%rcx,%rdx,8), %xmm0, %xmm0
.LVL437:
	.loc 1 608 0 discriminator 2
	addq	$1, %rdx
.LVL438:
	cmpq	%rbx, %rdx
	jne	.L184
.L183:
	.loc 1 611 0
	vmulsd	%xmm1, %xmm0, %xmm0
.LVL439:
	vmovsd	%xmm0, 0(%r13)
	.loc 1 612 0
	addq	$8, %rsp
	.cfi_def_cfa_offset 40
	popq	%rbx
	.cfi_def_cfa_offset 32
.LVL440:
	popq	%rbp
	.cfi_def_cfa_offset 24
.LVL441:
	popq	%r12
	.cfi_def_cfa_offset 16
.LVL442:
	popq	%r13
	.cfi_def_cfa_offset 8
.LVL443:
	ret
	.cfi_endproc
.LFE37:
	.size	unroll4x2a_combine, .-unroll4x2a_combine
	.p2align 4,,15
	.globl	unroll8x2a_combine
	.type	unroll8x2a_combine, @function
unroll8x2a_combine:
.LFB38:
	.loc 1 617 0
	.cfi_startproc
.LVL444:
	pushq	%r13
	.cfi_def_cfa_offset 16
	.cfi_offset 13, -16
	movq	%rsi, %r13
	pushq	%r12
	.cfi_def_cfa_offset 24
	.cfi_offset 12, -24
	movq	%rdi, %r12
	pushq	%rbp
	.cfi_def_cfa_offset 32
	.cfi_offset 6, -32
	pushq	%rbx
	.cfi_def_cfa_offset 40
	.cfi_offset 3, -40
	subq	$8, %rsp
	.cfi_def_cfa_offset 48
	.loc 1 619 0
	call	vec_length
.LVL445:
	.loc 1 620 0
	leaq	-7(%rax), %rbp
	.loc 1 621 0
	movq	%r12, %rdi
	.loc 1 619 0
	movq	%rax, %rbx
.LVL446:
	.loc 1 621 0
	call	get_vec_start
.LVL447:
	.loc 1 626 0
	testq	%rbp, %rbp
	jle	.L193
	.loc 1 623 0
	vmovsd	.LC0(%rip), %xmm1
	movq	%rax, %rdx
	.loc 1 626 0
	xorl	%ecx, %ecx
	.loc 1 622 0
	vmovapd	%xmm1, %xmm0
.LVL448:
	.p2align 4,,10
	.p2align 3
.L190:
	.loc 1 627 0 discriminator 2
	vmulsd	(%rdx), %xmm0, %xmm0
.LVL449:
	.loc 1 626 0 discriminator 2
	addq	$8, %rcx
.LVL450:
	addq	$64, %rdx
	.loc 1 627 0 discriminator 2
	vmulsd	-56(%rdx), %xmm1, %xmm1
.LVL451:
	.loc 1 628 0 discriminator 2
	vmulsd	-48(%rdx), %xmm0, %xmm0
.LVL452:
	vmulsd	-40(%rdx), %xmm1, %xmm1
.LVL453:
	.loc 1 629 0 discriminator 2
	vmulsd	-32(%rdx), %xmm0, %xmm0
.LVL454:
	vmulsd	-24(%rdx), %xmm1, %xmm1
.LVL455:
	.loc 1 630 0 discriminator 2
	vmulsd	-16(%rdx), %xmm0, %xmm0
.LVL456:
	vmulsd	-8(%rdx), %xmm1, %xmm1
.LVL457:
	.loc 1 626 0 discriminator 2
	cmpq	%rcx, %rbp
	jg	.L190
	leaq	-8(%rbx), %rdx
	shrq	$3, %rdx
	leaq	8(,%rdx,8), %rdx
.LVL458:
.L188:
	.loc 1 634 0 discriminator 1
	cmpq	%rdx, %rbx
	jle	.L191
	.p2align 4,,10
	.p2align 3
.L192:
	.loc 1 635 0 discriminator 2
	vmulsd	(%rax,%rdx,8), %xmm0, %xmm0
.LVL459:
	.loc 1 634 0 discriminator 2
	addq	$1, %rdx
.LVL460:
	cmpq	%rbx, %rdx
	jne	.L192
.L191:
	.loc 1 637 0
	vmulsd	%xmm1, %xmm0, %xmm0
.LVL461:
	vmovsd	%xmm0, 0(%r13)
	.loc 1 638 0
	addq	$8, %rsp
	.cfi_remember_state
	.cfi_def_cfa_offset 40
	popq	%rbx
	.cfi_def_cfa_offset 32
.LVL462:
	popq	%rbp
	.cfi_def_cfa_offset 24
.LVL463:
	popq	%r12
	.cfi_def_cfa_offset 16
.LVL464:
	popq	%r13
	.cfi_def_cfa_offset 8
.LVL465:
	ret
.LVL466:
.L193:
	.cfi_restore_state
	.loc 1 623 0
	vmovsd	.LC0(%rip), %xmm1
	.loc 1 626 0
	xorl	%edx, %edx
	.loc 1 622 0
	vmovapd	%xmm1, %xmm0
	jmp	.L188
	.cfi_endproc
.LFE38:
	.size	unroll8x2a_combine, .-unroll8x2a_combine
	.p2align 4,,15
	.globl	unroll3x3a_combine
	.type	unroll3x3a_combine, @function
unroll3x3a_combine:
.LFB39:
	.loc 1 642 0
	.cfi_startproc
.LVL467:
	pushq	%r13
	.cfi_def_cfa_offset 16
	.cfi_offset 13, -16
	movq	%rsi, %r13
	pushq	%r12
	.cfi_def_cfa_offset 24
	.cfi_offset 12, -24
	movq	%rdi, %r12
	pushq	%rbp
	.cfi_def_cfa_offset 32
	.cfi_offset 6, -32
	pushq	%rbx
	.cfi_def_cfa_offset 40
	.cfi_offset 3, -40
	subq	$8, %rsp
	.cfi_def_cfa_offset 48
	.loc 1 644 0
	call	vec_length
.LVL468:
	.loc 1 646 0
	movq	%r12, %rdi
	.loc 1 645 0
	leaq	-2(%rax), %rbp
	.loc 1 644 0
	movq	%rax, %rbx
.LVL469:
	.loc 1 646 0
	call	get_vec_start
.LVL470:
	.loc 1 649 0
	vmovsd	.LC0(%rip), %xmm1
	.loc 1 652 0
	xorl	%edx, %edx
	testq	%rbp, %rbp
	.loc 1 648 0
	vmovapd	%xmm1, %xmm2
	.loc 1 647 0
	vmovapd	%xmm1, %xmm0
	.loc 1 652 0
	jle	.L196
.LVL471:
	.p2align 4,,10
	.p2align 3
.L197:
	.loc 1 653 0 discriminator 2
	vmulsd	(%rax,%rdx,8), %xmm0, %xmm0
.LVL472:
	vmulsd	8(%rax,%rdx,8), %xmm2, %xmm2
.LVL473:
	.loc 1 654 0 discriminator 2
	vmulsd	16(%rax,%rdx,8), %xmm1, %xmm1
.LVL474:
	.loc 1 652 0 discriminator 2
	addq	$3, %rdx
.LVL475:
	cmpq	%rdx, %rbp
	jg	.L197
.LVL476:
.L196:
	.loc 1 658 0 discriminator 1
	cmpq	%rdx, %rbx
	jle	.L198
	.p2align 4,,10
	.p2align 3
.L199:
	.loc 1 659 0 discriminator 2
	vmulsd	(%rax,%rdx,8), %xmm0, %xmm0
.LVL477:
	.loc 1 658 0 discriminator 2
	addq	$1, %rdx
.LVL478:
	cmpq	%rbx, %rdx
	jne	.L199
.L198:
	.loc 1 661 0
	vmulsd	%xmm2, %xmm0, %xmm0
.LVL479:
	vmulsd	%xmm1, %xmm0, %xmm1
	vmovsd	%xmm1, 0(%r13)
	.loc 1 662 0
	addq	$8, %rsp
	.cfi_def_cfa_offset 40
	popq	%rbx
	.cfi_def_cfa_offset 32
.LVL480:
	popq	%rbp
	.cfi_def_cfa_offset 24
.LVL481:
	popq	%r12
	.cfi_def_cfa_offset 16
.LVL482:
	popq	%r13
	.cfi_def_cfa_offset 8
.LVL483:
	ret
	.cfi_endproc
.LFE39:
	.size	unroll3x3a_combine, .-unroll3x3a_combine
	.p2align 4,,15
	.globl	unroll4x4a_combine
	.type	unroll4x4a_combine, @function
unroll4x4a_combine:
.LFB40:
	.loc 1 667 0
	.cfi_startproc
.LVL484:
	pushq	%r13
	.cfi_def_cfa_offset 16
	.cfi_offset 13, -16
	movq	%rsi, %r13
	pushq	%r12
	.cfi_def_cfa_offset 24
	.cfi_offset 12, -24
	movq	%rdi, %r12
	pushq	%rbp
	.cfi_def_cfa_offset 32
	.cfi_offset 6, -32
	pushq	%rbx
	.cfi_def_cfa_offset 40
	.cfi_offset 3, -40
	subq	$8, %rsp
	.cfi_def_cfa_offset 48
	.loc 1 669 0
	call	vec_length
.LVL485:
	.loc 1 670 0
	leaq	-3(%rax), %rbp
	.loc 1 671 0
	movq	%r12, %rdi
	.loc 1 669 0
	movq	%rax, %rbx
.LVL486:
	.loc 1 671 0
	call	get_vec_start
.LVL487:
	.loc 1 678 0
	testq	%rbp, %rbp
	.loc 1 671 0
	movq	%rax, %rcx
.LVL488:
	.loc 1 675 0
	vmovsd	.LC0(%rip), %xmm1
	.loc 1 678 0
	jle	.L208
	.loc 1 674 0
	vmovapd	%xmm1, %xmm3
	.loc 1 678 0
	xorl	%edx, %edx
	.loc 1 673 0
	vmovapd	%xmm1, %xmm2
	.loc 1 672 0
	vmovapd	%xmm1, %xmm0
.LVL489:
	.p2align 4,,10
	.p2align 3
.L205:
	.loc 1 679 0 discriminator 2
	vmulsd	(%rcx,%rdx,8), %xmm0, %xmm0
.LVL490:
	vmulsd	8(%rcx,%rdx,8), %xmm2, %xmm2
.LVL491:
	.loc 1 680 0 discriminator 2
	vmulsd	16(%rcx,%rdx,8), %xmm3, %xmm3
.LVL492:
	vmulsd	24(%rcx,%rdx,8), %xmm1, %xmm1
.LVL493:
	.loc 1 678 0 discriminator 2
	addq	$4, %rdx
.LVL494:
	cmpq	%rdx, %rbp
	jg	.L205
	leaq	-4(%rbx), %rax
.LVL495:
	vmulsd	%xmm1, %xmm3, %xmm1
.LVL496:
	shrq	$2, %rax
	leaq	4(,%rax,4), %rdx
.LVL497:
.L203:
	.loc 1 684 0 discriminator 1
	cmpq	%rdx, %rbx
	jle	.L206
	.p2align 4,,10
	.p2align 3
.L207:
	.loc 1 685 0 discriminator 2
	vmulsd	(%rcx,%rdx,8), %xmm0, %xmm0
.LVL498:
	.loc 1 684 0 discriminator 2
	addq	$1, %rdx
.LVL499:
	cmpq	%rbx, %rdx
	jne	.L207
.L206:
	.loc 1 687 0
	vmulsd	%xmm2, %xmm0, %xmm0
.LVL500:
	vmulsd	%xmm1, %xmm0, %xmm1
	vmovsd	%xmm1, 0(%r13)
	.loc 1 689 0
	addq	$8, %rsp
	.cfi_remember_state
	.cfi_def_cfa_offset 40
	popq	%rbx
	.cfi_def_cfa_offset 32
.LVL501:
	popq	%rbp
	.cfi_def_cfa_offset 24
.LVL502:
	popq	%r12
	.cfi_def_cfa_offset 16
.LVL503:
	popq	%r13
	.cfi_def_cfa_offset 8
.LVL504:
	ret
.LVL505:
.L208:
	.cfi_restore_state
	.loc 1 673 0
	vmovapd	%xmm1, %xmm2
	.loc 1 678 0
	xorl	%edx, %edx
	.loc 1 672 0
	vmovapd	%xmm1, %xmm0
	jmp	.L203
	.cfi_endproc
.LFE40:
	.size	unroll4x4a_combine, .-unroll4x4a_combine
	.p2align 4,,15
	.globl	unroll8x4a_combine
	.type	unroll8x4a_combine, @function
unroll8x4a_combine:
.LFB41:
	.loc 1 693 0
	.cfi_startproc
.LVL506:
	pushq	%r13
	.cfi_def_cfa_offset 16
	.cfi_offset 13, -16
	movq	%rsi, %r13
	pushq	%r12
	.cfi_def_cfa_offset 24
	.cfi_offset 12, -24
	movq	%rdi, %r12
	pushq	%rbp
	.cfi_def_cfa_offset 32
	.cfi_offset 6, -32
	pushq	%rbx
	.cfi_def_cfa_offset 40
	.cfi_offset 3, -40
	subq	$8, %rsp
	.cfi_def_cfa_offset 48
	.loc 1 695 0
	call	vec_length
.LVL507:
	.loc 1 696 0
	leaq	-7(%rax), %rbp
	.loc 1 697 0
	movq	%r12, %rdi
	.loc 1 695 0
	movq	%rax, %rbx
.LVL508:
	.loc 1 697 0
	call	get_vec_start
.LVL509:
	.loc 1 704 0
	testq	%rbp, %rbp
	jle	.L216
	.loc 1 701 0
	vmovsd	.LC0(%rip), %xmm1
	movq	%rax, %rdx
	.loc 1 704 0
	xorl	%ecx, %ecx
	.loc 1 700 0
	vmovapd	%xmm1, %xmm2
	.loc 1 699 0
	vmovapd	%xmm1, %xmm3
	.loc 1 698 0
	vmovapd	%xmm1, %xmm0
.LVL510:
	.p2align 4,,10
	.p2align 3
.L213:
	.loc 1 705 0 discriminator 2
	vmulsd	(%rdx), %xmm0, %xmm0
.LVL511:
	.loc 1 704 0 discriminator 2
	addq	$8, %rcx
.LVL512:
	addq	$64, %rdx
	.loc 1 705 0 discriminator 2
	vmulsd	-56(%rdx), %xmm3, %xmm3
.LVL513:
	.loc 1 706 0 discriminator 2
	vmulsd	-48(%rdx), %xmm2, %xmm2
.LVL514:
	vmulsd	-40(%rdx), %xmm1, %xmm1
.LVL515:
	.loc 1 707 0 discriminator 2
	vmulsd	-32(%rdx), %xmm0, %xmm0
.LVL516:
	vmulsd	-24(%rdx), %xmm3, %xmm3
.LVL517:
	.loc 1 708 0 discriminator 2
	vmulsd	-16(%rdx), %xmm2, %xmm2
.LVL518:
	vmulsd	-8(%rdx), %xmm1, %xmm1
.LVL519:
	.loc 1 704 0 discriminator 2
	cmpq	%rcx, %rbp
	jg	.L213
	leaq	-8(%rbx), %rdx
	shrq	$3, %rdx
	leaq	8(,%rdx,8), %rdx
.LVL520:
.L211:
	.loc 1 712 0 discriminator 1
	cmpq	%rdx, %rbx
	jle	.L214
	.p2align 4,,10
	.p2align 3
.L215:
	.loc 1 713 0 discriminator 2
	vmulsd	(%rax,%rdx,8), %xmm0, %xmm0
.LVL521:
	.loc 1 712 0 discriminator 2
	addq	$1, %rdx
.LVL522:
	cmpq	%rbx, %rdx
	jne	.L215
.L214:
	.loc 1 715 0
	vmulsd	%xmm3, %xmm0, %xmm0
.LVL523:
	vmulsd	%xmm2, %xmm0, %xmm2
	vmulsd	%xmm1, %xmm2, %xmm1
	vmovsd	%xmm1, 0(%r13)
	.loc 1 716 0
	addq	$8, %rsp
	.cfi_remember_state
	.cfi_def_cfa_offset 40
	popq	%rbx
	.cfi_def_cfa_offset 32
.LVL524:
	popq	%rbp
	.cfi_def_cfa_offset 24
.LVL525:
	popq	%r12
	.cfi_def_cfa_offset 16
.LVL526:
	popq	%r13
	.cfi_def_cfa_offset 8
.LVL527:
	ret
.LVL528:
.L216:
	.cfi_restore_state
	.loc 1 701 0
	vmovsd	.LC0(%rip), %xmm1
	.loc 1 704 0
	xorl	%edx, %edx
	.loc 1 700 0
	vmovapd	%xmm1, %xmm2
	.loc 1 699 0
	vmovapd	%xmm1, %xmm3
	.loc 1 698 0
	vmovapd	%xmm1, %xmm0
	jmp	.L211
	.cfi_endproc
.LFE41:
	.size	unroll8x4a_combine, .-unroll8x4a_combine
	.p2align 4,,15
	.globl	unroll12x6a_combine
	.type	unroll12x6a_combine, @function
unroll12x6a_combine:
.LFB42:
	.loc 1 720 0
	.cfi_startproc
.LVL529:
	pushq	%r13
	.cfi_def_cfa_offset 16
	.cfi_offset 13, -16
	movq	%rsi, %r13
	pushq	%r12
	.cfi_def_cfa_offset 24
	.cfi_offset 12, -24
	movq	%rdi, %r12
	pushq	%rbp
	.cfi_def_cfa_offset 32
	.cfi_offset 6, -32
	pushq	%rbx
	.cfi_def_cfa_offset 40
	.cfi_offset 3, -40
	subq	$8, %rsp
	.cfi_def_cfa_offset 48
	.loc 1 722 0
	call	vec_length
.LVL530:
	.loc 1 723 0
	leaq	-11(%rax), %rbp
	.loc 1 724 0
	movq	%r12, %rdi
	.loc 1 722 0
	movq	%rax, %rbx
.LVL531:
	.loc 1 724 0
	call	get_vec_start
.LVL532:
	.loc 1 733 0
	testq	%rbp, %rbp
	jle	.L224
	.loc 1 730 0
	vmovsd	.LC0(%rip), %xmm1
	movq	%rax, %rdx
	.loc 1 733 0
	xorl	%ecx, %ecx
	.loc 1 729 0
	vmovapd	%xmm1, %xmm3
	.loc 1 728 0
	vmovapd	%xmm1, %xmm4
	.loc 1 727 0
	vmovapd	%xmm1, %xmm5
	.loc 1 726 0
	vmovapd	%xmm1, %xmm2
	.loc 1 725 0
	vmovapd	%xmm1, %xmm0
.LVL533:
	.p2align 4,,10
	.p2align 3
.L221:
	.loc 1 734 0 discriminator 2
	vmulsd	(%rdx), %xmm0, %xmm0
.LVL534:
	.loc 1 733 0 discriminator 2
	addq	$12, %rcx
.LVL535:
	addq	$96, %rdx
	.loc 1 736 0 discriminator 2
	vmulsd	-88(%rdx), %xmm2, %xmm2
.LVL536:
	.loc 1 738 0 discriminator 2
	vmulsd	-80(%rdx), %xmm5, %xmm5
.LVL537:
	.loc 1 740 0 discriminator 2
	vmulsd	-72(%rdx), %xmm4, %xmm4
.LVL538:
	.loc 1 742 0 discriminator 2
	vmulsd	-64(%rdx), %xmm3, %xmm3
.LVL539:
	.loc 1 744 0 discriminator 2
	vmulsd	-56(%rdx), %xmm1, %xmm1
.LVL540:
	.loc 1 735 0 discriminator 2
	vmulsd	-48(%rdx), %xmm0, %xmm0
.LVL541:
	.loc 1 737 0 discriminator 2
	vmulsd	-40(%rdx), %xmm2, %xmm2
.LVL542:
	.loc 1 739 0 discriminator 2
	vmulsd	-32(%rdx), %xmm5, %xmm5
.LVL543:
	.loc 1 741 0 discriminator 2
	vmulsd	-24(%rdx), %xmm4, %xmm4
.LVL544:
	.loc 1 743 0 discriminator 2
	vmulsd	-16(%rdx), %xmm3, %xmm3
.LVL545:
	.loc 1 745 0 discriminator 2
	vmulsd	-8(%rdx), %xmm1, %xmm1
.LVL546:
	.loc 1 733 0 discriminator 2
	cmpq	%rcx, %rbp
	jg	.L221
	vmulsd	%xmm4, %xmm5, %xmm4
.LVL547:
	vmulsd	%xmm1, %xmm3, %xmm1
.LVL548:
.L219:
	.loc 1 749 0 discriminator 1
	cmpq	%rcx, %rbx
	jle	.L222
	.p2align 4,,10
	.p2align 3
.L223:
	.loc 1 750 0 discriminator 2
	vmulsd	(%rax,%rcx,8), %xmm0, %xmm0
.LVL549:
	.loc 1 749 0 discriminator 2
	addq	$1, %rcx
.LVL550:
	cmpq	%rbx, %rcx
	jne	.L223
.L222:
	.loc 1 752 0
	vmulsd	%xmm2, %xmm0, %xmm0
.LVL551:
	vmulsd	%xmm4, %xmm0, %xmm0
	vmulsd	%xmm1, %xmm0, %xmm1
	vmovsd	%xmm1, 0(%r13)
	.loc 1 753 0
	addq	$8, %rsp
	.cfi_remember_state
	.cfi_def_cfa_offset 40
	popq	%rbx
	.cfi_def_cfa_offset 32
.LVL552:
	popq	%rbp
	.cfi_def_cfa_offset 24
.LVL553:
	popq	%r12
	.cfi_def_cfa_offset 16
.LVL554:
	popq	%r13
	.cfi_def_cfa_offset 8
.LVL555:
	ret
.LVL556:
.L224:
	.cfi_restore_state
	.loc 1 733 0
	vmovsd	.LC0(%rip), %xmm1
	xorl	%ecx, %ecx
	vmovapd	%xmm1, %xmm4
	.loc 1 726 0
	vmovapd	%xmm1, %xmm2
	.loc 1 725 0
	vmovapd	%xmm1, %xmm0
	jmp	.L219
	.cfi_endproc
.LFE42:
	.size	unroll12x6a_combine, .-unroll12x6a_combine
	.p2align 4,,15
	.globl	unroll12x12a_combine
	.type	unroll12x12a_combine, @function
unroll12x12a_combine:
.LFB43:
	.loc 1 757 0
	.cfi_startproc
.LVL557:
	pushq	%r13
	.cfi_def_cfa_offset 16
	.cfi_offset 13, -16
	movq	%rsi, %r13
	pushq	%r12
	.cfi_def_cfa_offset 24
	.cfi_offset 12, -24
	movq	%rdi, %r12
	pushq	%rbp
	.cfi_def_cfa_offset 32
	.cfi_offset 6, -32
	pushq	%rbx
	.cfi_def_cfa_offset 40
	.cfi_offset 3, -40
	subq	$8, %rsp
	.cfi_def_cfa_offset 48
	.loc 1 759 0
	call	vec_length
.LVL558:
	.loc 1 760 0
	leaq	-11(%rax), %rbp
	.loc 1 761 0
	movq	%r12, %rdi
	.loc 1 759 0
	movq	%rax, %rbx
.LVL559:
	.loc 1 761 0
	call	get_vec_start
.LVL560:
	.loc 1 776 0
	testq	%rbp, %rbp
	jle	.L232
	.loc 1 773 0
	vmovsd	.LC0(%rip), %xmm1
	movq	%rax, %rdx
	.loc 1 776 0
	xorl	%ecx, %ecx
	.loc 1 772 0
	vmovapd	%xmm1, %xmm3
	.loc 1 771 0
	vmovapd	%xmm1, %xmm4
	.loc 1 770 0
	vmovapd	%xmm1, %xmm5
	.loc 1 769 0
	vmovapd	%xmm1, %xmm6
	.loc 1 768 0
	vmovapd	%xmm1, %xmm7
	.loc 1 767 0
	vmovapd	%xmm1, %xmm8
	.loc 1 766 0
	vmovapd	%xmm1, %xmm9
	.loc 1 765 0
	vmovapd	%xmm1, %xmm10
	.loc 1 764 0
	vmovapd	%xmm1, %xmm11
	.loc 1 763 0
	vmovapd	%xmm1, %xmm2
	.loc 1 762 0
	vmovapd	%xmm1, %xmm0
.LVL561:
	.p2align 4,,10
	.p2align 3
.L229:
	.loc 1 776 0 discriminator 2
	addq	$12, %rcx
.LVL562:
	.loc 1 777 0 discriminator 2
	vmulsd	(%rdx), %xmm0, %xmm0
.LVL563:
	addq	$96, %rdx
	.loc 1 778 0 discriminator 2
	vmulsd	-48(%rdx), %xmm7, %xmm7
.LVL564:
	.loc 1 779 0 discriminator 2
	vmulsd	-88(%rdx), %xmm2, %xmm2
.LVL565:
	.loc 1 780 0 discriminator 2
	vmulsd	-40(%rdx), %xmm6, %xmm6
.LVL566:
	.loc 1 781 0 discriminator 2
	vmulsd	-80(%rdx), %xmm11, %xmm11
.LVL567:
	.loc 1 782 0 discriminator 2
	vmulsd	-32(%rdx), %xmm5, %xmm5
.LVL568:
	.loc 1 783 0 discriminator 2
	vmulsd	-72(%rdx), %xmm10, %xmm10
.LVL569:
	.loc 1 784 0 discriminator 2
	vmulsd	-24(%rdx), %xmm4, %xmm4
.LVL570:
	.loc 1 785 0 discriminator 2
	vmulsd	-64(%rdx), %xmm9, %xmm9
.LVL571:
	.loc 1 786 0 discriminator 2
	vmulsd	-16(%rdx), %xmm3, %xmm3
.LVL572:
	.loc 1 787 0 discriminator 2
	vmulsd	-56(%rdx), %xmm8, %xmm8
.LVL573:
	.loc 1 788 0 discriminator 2
	vmulsd	-8(%rdx), %xmm1, %xmm1
.LVL574:
	.loc 1 776 0 discriminator 2
	cmpq	%rcx, %rbp
	jg	.L229
	vmulsd	%xmm10, %xmm11, %xmm10
.LVL575:
	vmulsd	%xmm8, %xmm9, %xmm8
.LVL576:
	vmulsd	%xmm6, %xmm7, %xmm6
.LVL577:
	vmulsd	%xmm4, %xmm5, %xmm4
.LVL578:
	vmulsd	%xmm1, %xmm3, %xmm1
.LVL579:
.L227:
	.loc 1 792 0 discriminator 1
	cmpq	%rcx, %rbx
	jle	.L230
	.p2align 4,,10
	.p2align 3
.L231:
	.loc 1 793 0 discriminator 2
	vmulsd	(%rax,%rcx,8), %xmm0, %xmm0
.LVL580:
	.loc 1 792 0 discriminator 2
	addq	$1, %rcx
.LVL581:
	cmpq	%rbx, %rcx
	jne	.L231
.L230:
	.loc 1 795 0
	vmulsd	%xmm2, %xmm0, %xmm0
.LVL582:
	vmulsd	%xmm10, %xmm0, %xmm0
	vmulsd	%xmm8, %xmm0, %xmm8
	.loc 1 796 0
	vmulsd	%xmm6, %xmm8, %xmm6
	vmulsd	%xmm4, %xmm6, %xmm4
	vmulsd	%xmm1, %xmm4, %xmm1
	.loc 1 795 0
	vmovsd	%xmm1, 0(%r13)
	.loc 1 797 0
	addq	$8, %rsp
	.cfi_remember_state
	.cfi_def_cfa_offset 40
	popq	%rbx
	.cfi_def_cfa_offset 32
.LVL583:
	popq	%rbp
	.cfi_def_cfa_offset 24
.LVL584:
	popq	%r12
	.cfi_def_cfa_offset 16
.LVL585:
	popq	%r13
	.cfi_def_cfa_offset 8
.LVL586:
	ret
.LVL587:
.L232:
	.cfi_restore_state
	.loc 1 776 0
	vmovsd	.LC0(%rip), %xmm1
	xorl	%ecx, %ecx
	vmovapd	%xmm1, %xmm4
	vmovapd	%xmm1, %xmm6
	vmovapd	%xmm1, %xmm8
	vmovapd	%xmm1, %xmm10
	.loc 1 763 0
	vmovapd	%xmm1, %xmm2
	.loc 1 762 0
	vmovapd	%xmm1, %xmm0
	jmp	.L227
	.cfi_endproc
.LFE43:
	.size	unroll12x12a_combine, .-unroll12x12a_combine
	.p2align 4,,15
	.globl	unroll16x16a_combine
	.type	unroll16x16a_combine, @function
unroll16x16a_combine:
.LFB44:
	.loc 1 801 0
	.cfi_startproc
.LVL588:
	pushq	%r12
	.cfi_def_cfa_offset 16
	.cfi_offset 12, -16
	movq	%rsi, %r12
	pushq	%rbp
	.cfi_def_cfa_offset 24
	.cfi_offset 6, -24
	movq	%rdi, %rbp
	pushq	%rbx
	.cfi_def_cfa_offset 32
	.cfi_offset 3, -32
	.loc 1 803 0
	call	vec_length
.LVL589:
	.loc 1 805 0
	movq	%rbp, %rdi
	.loc 1 803 0
	movq	%rax, %rbx
.LVL590:
	.loc 1 805 0
	call	get_vec_start
.LVL591:
	.loc 1 824 0
	cmpq	$15, %rbx
	jle	.L240
	leaq	-16(%rbx), %rcx
	.loc 1 821 0
	vmovsd	.LC0(%rip), %xmm1
	movq	%rax, %rdx
	shrq	$4, %rcx
	.loc 1 820 0
	vmovapd	%xmm1, %xmm3
	leaq	1(%rcx), %r8
	.loc 1 819 0
	vmovapd	%xmm1, %xmm4
	.loc 1 818 0
	vmovapd	%xmm1, %xmm5
	.loc 1 824 0
	xorl	%ecx, %ecx
	movq	%r8, %rdi
	.loc 1 817 0
	vmovapd	%xmm1, %xmm6
	.loc 1 816 0
	vmovapd	%xmm1, %xmm7
	salq	$7, %rdi
	.loc 1 815 0
	vmovapd	%xmm1, %xmm8
	.loc 1 814 0
	vmovapd	%xmm1, %xmm9
	.loc 1 813 0
	vmovapd	%xmm1, %xmm10
	.loc 1 812 0
	vmovapd	%xmm1, %xmm11
	.loc 1 811 0
	vmovapd	%xmm1, %xmm12
	.loc 1 810 0
	vmovapd	%xmm1, %xmm13
	.loc 1 809 0
	vmovapd	%xmm1, %xmm14
	.loc 1 808 0
	vmovapd	%xmm1, %xmm15
	.loc 1 807 0
	vmovapd	%xmm1, %xmm2
	.loc 1 806 0
	vmovapd	%xmm1, %xmm0
.LVL592:
	.p2align 4,,10
	.p2align 3
.L237:
	subq	$-128, %rcx
	.loc 1 825 0 discriminator 2
	vmulsd	(%rdx), %xmm0, %xmm0
.LVL593:
	subq	$-128, %rdx
	.loc 1 826 0 discriminator 2
	vmulsd	-80(%rdx), %xmm11, %xmm11
.LVL594:
	.loc 1 827 0 discriminator 2
	vmulsd	-120(%rdx), %xmm2, %xmm2
.LVL595:
	.loc 1 828 0 discriminator 2
	vmulsd	-72(%rdx), %xmm10, %xmm10
.LVL596:
	.loc 1 829 0 discriminator 2
	vmulsd	-112(%rdx), %xmm15, %xmm15
.LVL597:
	.loc 1 830 0 discriminator 2
	vmulsd	-64(%rdx), %xmm9, %xmm9
.LVL598:
	.loc 1 831 0 discriminator 2
	vmulsd	-104(%rdx), %xmm14, %xmm14
.LVL599:
	.loc 1 832 0 discriminator 2
	vmulsd	-56(%rdx), %xmm8, %xmm8
.LVL600:
	.loc 1 833 0 discriminator 2
	vmulsd	-96(%rdx), %xmm13, %xmm13
.LVL601:
	.loc 1 834 0 discriminator 2
	vmulsd	-48(%rdx), %xmm7, %xmm7
.LVL602:
	.loc 1 835 0 discriminator 2
	vmulsd	-88(%rdx), %xmm12, %xmm12
.LVL603:
	.loc 1 836 0 discriminator 2
	vmulsd	-40(%rdx), %xmm6, %xmm6
.LVL604:
	.loc 1 837 0 discriminator 2
	vmulsd	-32(%rdx), %xmm5, %xmm5
.LVL605:
	.loc 1 838 0 discriminator 2
	vmulsd	-24(%rdx), %xmm4, %xmm4
.LVL606:
	.loc 1 839 0 discriminator 2
	vmulsd	-16(%rdx), %xmm3, %xmm3
.LVL607:
	.loc 1 840 0 discriminator 2
	vmulsd	-8(%rdx), %xmm1, %xmm1
.LVL608:
	.loc 1 824 0 discriminator 2
	cmpq	%rdi, %rcx
	jne	.L237
	vmulsd	%xmm10, %xmm11, %xmm10
.LVL609:
	movq	%r8, %rdx
	vmulsd	%xmm8, %xmm9, %xmm8
.LVL610:
	salq	$4, %rdx
	vmulsd	%xmm6, %xmm7, %xmm7
.LVL611:
	vmulsd	%xmm4, %xmm5, %xmm4
.LVL612:
	vmulsd	%xmm1, %xmm3, %xmm1
.LVL613:
	vmulsd	%xmm8, %xmm10, %xmm8
	vmulsd	%xmm14, %xmm15, %xmm14
.LVL614:
	vmulsd	%xmm12, %xmm13, %xmm12
.LVL615:
	vmulsd	%xmm1, %xmm4, %xmm1
	vmulsd	%xmm7, %xmm8, %xmm6
.LVL616:
.L235:
	.loc 1 844 0 discriminator 1
	cmpq	%rdx, %rbx
	jle	.L238
	.p2align 4,,10
	.p2align 3
.L239:
	.loc 1 845 0 discriminator 2
	vmulsd	(%rax,%rdx,8), %xmm0, %xmm0
.LVL617:
	.loc 1 844 0 discriminator 2
	addq	$1, %rdx
.LVL618:
	cmpq	%rbx, %rdx
	jne	.L239
.L238:
	.loc 1 847 0
	vmulsd	%xmm2, %xmm0, %xmm0
.LVL619:
	.loc 1 850 0
	popq	%rbx
	.cfi_remember_state
	.cfi_def_cfa_offset 24
.LVL620:
	popq	%rbp
	.cfi_def_cfa_offset 16
.LVL621:
	.loc 1 847 0
	vmulsd	%xmm14, %xmm0, %xmm0
	vmulsd	%xmm12, %xmm0, %xmm12
	.loc 1 848 0
	vmulsd	%xmm6, %xmm12, %xmm6
	.loc 1 849 0
	vmulsd	%xmm1, %xmm6, %xmm1
	.loc 1 847 0
	vmovsd	%xmm1, (%r12)
	.loc 1 850 0
	popq	%r12
	.cfi_def_cfa_offset 8
.LVL622:
	ret
.LVL623:
.L240:
	.cfi_restore_state
	.loc 1 824 0
	vmovsd	.LC0(%rip), %xmm1
	xorl	%edx, %edx
	vmovapd	%xmm1, %xmm6
	vmovapd	%xmm1, %xmm12
	vmovapd	%xmm1, %xmm14
	.loc 1 807 0
	vmovapd	%xmm1, %xmm2
	.loc 1 806 0
	vmovapd	%xmm1, %xmm0
	jmp	.L235
	.cfi_endproc
.LFE44:
	.size	unroll16x16a_combine, .-unroll16x16a_combine
	.p2align 4,,15
	.globl	unroll20x20a_combine
	.type	unroll20x20a_combine, @function
unroll20x20a_combine:
.LFB45:
	.loc 1 854 0
	.cfi_startproc
.LVL624:
	pushq	%r13
	.cfi_def_cfa_offset 16
	.cfi_offset 13, -16
	movq	%rsi, %r13
	pushq	%r12
	.cfi_def_cfa_offset 24
	.cfi_offset 12, -24
	movq	%rdi, %r12
	pushq	%rbp
	.cfi_def_cfa_offset 32
	.cfi_offset 6, -32
	pushq	%rbx
	.cfi_def_cfa_offset 40
	.cfi_offset 3, -40
	subq	$56, %rsp
	.cfi_def_cfa_offset 96
	.loc 1 856 0
	call	vec_length
.LVL625:
	.loc 1 857 0
	leaq	-19(%rax), %rbp
	.loc 1 858 0
	movq	%r12, %rdi
	.loc 1 856 0
	movq	%rax, %rbx
.LVL626:
	.loc 1 858 0
	call	get_vec_start
.LVL627:
	.loc 1 881 0
	testq	%rbp, %rbp
	jle	.L248
	.loc 1 878 0
	vmovsd	.LC0(%rip), %xmm1
	movq	%rax, %rdx
	.loc 1 881 0
	xorl	%ecx, %ecx
	.loc 1 877 0
	vmovsd	%xmm1, 32(%rsp)
	.loc 1 876 0
	vmovapd	%xmm1, %xmm3
	.loc 1 875 0
	vmovapd	%xmm1, %xmm4
	.loc 1 867 0
	vmovsd	%xmm1, 24(%rsp)
	.loc 1 874 0
	vmovapd	%xmm1, %xmm5
	.loc 1 866 0
	vmovsd	%xmm1, 16(%rsp)
	.loc 1 873 0
	vmovapd	%xmm1, %xmm6
	.loc 1 865 0
	vmovsd	%xmm1, 8(%rsp)
	.loc 1 872 0
	vmovapd	%xmm1, %xmm7
	.loc 1 881 0
	vmovsd	%xmm1, 40(%rsp)
	.loc 1 871 0
	vmovapd	%xmm1, %xmm8
	.loc 1 870 0
	vmovapd	%xmm1, %xmm9
	.loc 1 869 0
	vmovapd	%xmm1, %xmm10
	.loc 1 868 0
	vmovapd	%xmm1, %xmm11
	.loc 1 864 0
	vmovapd	%xmm1, %xmm12
	.loc 1 863 0
	vmovapd	%xmm1, %xmm13
	.loc 1 862 0
	vmovapd	%xmm1, %xmm14
	.loc 1 861 0
	vmovapd	%xmm1, %xmm15
	.loc 1 860 0
	vmovapd	%xmm1, %xmm2
.LVL628:
	.p2align 4,,10
	.p2align 3
.L245:
	.loc 1 882 0 discriminator 2
	vmovsd	40(%rsp), %xmm0
	.loc 1 881 0 discriminator 2
	addq	$20, %rcx
.LVL629:
	.loc 1 884 0 discriminator 2
	vmulsd	8(%rdx), %xmm2, %xmm2
.LVL630:
	addq	$160, %rdx
	.loc 1 882 0 discriminator 2
	vmulsd	-160(%rdx), %xmm0, %xmm0
	.loc 1 886 0 discriminator 2
	vmulsd	-144(%rdx), %xmm15, %xmm15
.LVL631:
	.loc 1 888 0 discriminator 2
	vmulsd	-136(%rdx), %xmm14, %xmm14
.LVL632:
	.loc 1 889 0 discriminator 2
	vmulsd	-88(%rdx), %xmm11, %xmm11
.LVL633:
	.loc 1 890 0 discriminator 2
	vmulsd	-128(%rdx), %xmm13, %xmm13
.LVL634:
	.loc 1 891 0 discriminator 2
	vmulsd	-80(%rdx), %xmm10, %xmm10
.LVL635:
	.loc 1 882 0 discriminator 2
	vmovsd	%xmm0, 40(%rsp)
.LVL636:
	.loc 1 892 0 discriminator 2
	vmulsd	-120(%rdx), %xmm12, %xmm12
.LVL637:
	.loc 1 883 0 discriminator 2
	vmovsd	8(%rsp), %xmm0
.LVL638:
	.loc 1 893 0 discriminator 2
	vmulsd	-72(%rdx), %xmm9, %xmm9
.LVL639:
	.loc 1 883 0 discriminator 2
	vmulsd	-112(%rdx), %xmm0, %xmm0
	.loc 1 894 0 discriminator 2
	vmulsd	-64(%rdx), %xmm8, %xmm8
.LVL640:
	.loc 1 895 0 discriminator 2
	vmulsd	-56(%rdx), %xmm7, %xmm7
.LVL641:
	.loc 1 896 0 discriminator 2
	vmulsd	-48(%rdx), %xmm6, %xmm6
.LVL642:
	.loc 1 897 0 discriminator 2
	vmulsd	-40(%rdx), %xmm5, %xmm5
.LVL643:
	.loc 1 898 0 discriminator 2
	vmulsd	-32(%rdx), %xmm4, %xmm4
.LVL644:
	.loc 1 883 0 discriminator 2
	vmovsd	%xmm0, 8(%rsp)
.LVL645:
	.loc 1 899 0 discriminator 2
	vmulsd	-24(%rdx), %xmm3, %xmm3
.LVL646:
	.loc 1 885 0 discriminator 2
	vmovsd	16(%rsp), %xmm0
.LVL647:
	.loc 1 901 0 discriminator 2
	vmulsd	-8(%rdx), %xmm1, %xmm1
.LVL648:
	.loc 1 885 0 discriminator 2
	vmulsd	-104(%rdx), %xmm0, %xmm0
	vmovsd	%xmm0, 16(%rsp)
.LVL649:
	.loc 1 887 0 discriminator 2
	vmovsd	24(%rsp), %xmm0
.LVL650:
	vmulsd	-96(%rdx), %xmm0, %xmm0
	vmovsd	%xmm0, 24(%rsp)
.LVL651:
	.loc 1 900 0 discriminator 2
	vmovsd	32(%rsp), %xmm0
.LVL652:
	vmulsd	-16(%rdx), %xmm0, %xmm0
	.loc 1 881 0 discriminator 2
	cmpq	%rcx, %rbp
	.loc 1 900 0 discriminator 2
	vmovsd	%xmm0, 32(%rsp)
.LVL653:
	.loc 1 881 0 discriminator 2
	jg	.L245
	vmulsd	%xmm14, %xmm15, %xmm14
.LVL654:
	vmovsd	8(%rsp), %xmm15
.LVL655:
	vmulsd	%xmm12, %xmm13, %xmm12
.LVL656:
	vmulsd	24(%rsp), %xmm11, %xmm11
.LVL657:
	vmulsd	16(%rsp), %xmm15, %xmm13
.LVL658:
	vmulsd	32(%rsp), %xmm1, %xmm1
.LVL659:
	vmulsd	%xmm7, %xmm8, %xmm7
.LVL660:
	vmulsd	%xmm5, %xmm6, %xmm5
.LVL661:
	vmulsd	%xmm3, %xmm4, %xmm3
.LVL662:
	vmulsd	%xmm9, %xmm10, %xmm9
.LVL663:
	vmulsd	%xmm11, %xmm13, %xmm13
	vmulsd	%xmm5, %xmm7, %xmm5
	vmulsd	%xmm1, %xmm3, %xmm1
	vmovsd	40(%rsp), %xmm0
.LVL664:
	vmulsd	%xmm9, %xmm13, %xmm9
	vmulsd	%xmm1, %xmm5, %xmm1
.LVL665:
.L243:
	.loc 1 905 0 discriminator 1
	cmpq	%rcx, %rbx
	jle	.L246
	.p2align 4,,10
	.p2align 3
.L247:
	.loc 1 906 0 discriminator 2
	vmulsd	(%rax,%rcx,8), %xmm0, %xmm0
.LVL666:
	.loc 1 905 0 discriminator 2
	addq	$1, %rcx
.LVL667:
	cmpq	%rbx, %rcx
	jne	.L247
.L246:
	.loc 1 909 0
	vmulsd	%xmm2, %xmm0, %xmm0
.LVL668:
	vmulsd	%xmm14, %xmm0, %xmm14
	vmulsd	%xmm12, %xmm14, %xmm12
	.loc 1 910 0
	vmulsd	%xmm9, %xmm12, %xmm12
	.loc 1 911 0
	vmulsd	%xmm1, %xmm12, %xmm1
	.loc 1 908 0
	vmovsd	%xmm1, 0(%r13)
	.loc 1 913 0
	addq	$56, %rsp
	.cfi_remember_state
	.cfi_def_cfa_offset 40
	popq	%rbx
	.cfi_def_cfa_offset 32
.LVL669:
	popq	%rbp
	.cfi_def_cfa_offset 24
.LVL670:
	popq	%r12
	.cfi_def_cfa_offset 16
.LVL671:
	popq	%r13
	.cfi_def_cfa_offset 8
.LVL672:
	ret
.LVL673:
.L248:
	.cfi_restore_state
	.loc 1 881 0
	vmovsd	.LC0(%rip), %xmm1
	xorl	%ecx, %ecx
	vmovapd	%xmm1, %xmm9
	vmovapd	%xmm1, %xmm12
	vmovapd	%xmm1, %xmm14
	.loc 1 860 0
	vmovapd	%xmm1, %xmm2
	.loc 1 859 0
	vmovapd	%xmm1, %xmm0
	jmp	.L243
	.cfi_endproc
.LFE45:
	.size	unroll20x20a_combine, .-unroll20x20a_combine
	.p2align 4,,15
	.globl	unroll5x5a_combine
	.type	unroll5x5a_combine, @function
unroll5x5a_combine:
.LFB46:
	.loc 1 918 0
	.cfi_startproc
.LVL674:
	pushq	%r13
	.cfi_def_cfa_offset 16
	.cfi_offset 13, -16
	movq	%rsi, %r13
	pushq	%r12
	.cfi_def_cfa_offset 24
	.cfi_offset 12, -24
	movq	%rdi, %r12
	pushq	%rbp
	.cfi_def_cfa_offset 32
	.cfi_offset 6, -32
	pushq	%rbx
	.cfi_def_cfa_offset 40
	.cfi_offset 3, -40
	subq	$8, %rsp
	.cfi_def_cfa_offset 48
	.loc 1 920 0
	call	vec_length
.LVL675:
	.loc 1 921 0
	leaq	-4(%rax), %rbp
	.loc 1 922 0
	movq	%r12, %rdi
	.loc 1 920 0
	movq	%rax, %rbx
.LVL676:
	.loc 1 922 0
	call	get_vec_start
.LVL677:
	.loc 1 930 0
	testq	%rbp, %rbp
	jle	.L256
	.loc 1 927 0
	vmovsd	.LC0(%rip), %xmm1
	movq	%rax, %rcx
	.loc 1 930 0
	xorl	%edx, %edx
	.loc 1 926 0
	vmovapd	%xmm1, %xmm3
	.loc 1 925 0
	vmovapd	%xmm1, %xmm4
	.loc 1 924 0
	vmovapd	%xmm1, %xmm2
	.loc 1 923 0
	vmovapd	%xmm1, %xmm0
.LVL678:
	.p2align 4,,10
	.p2align 3
.L253:
	.loc 1 930 0 discriminator 2
	addq	$5, %rdx
.LVL679:
	.loc 1 931 0 discriminator 2
	vmulsd	(%rcx), %xmm0, %xmm0
.LVL680:
	addq	$40, %rcx
	vmulsd	-32(%rcx), %xmm2, %xmm2
.LVL681:
	.loc 1 932 0 discriminator 2
	vmulsd	-24(%rcx), %xmm4, %xmm4
.LVL682:
	vmulsd	-16(%rcx), %xmm3, %xmm3
.LVL683:
	.loc 1 933 0 discriminator 2
	vmulsd	-8(%rcx), %xmm1, %xmm1
.LVL684:
	.loc 1 930 0 discriminator 2
	cmpq	%rdx, %rbp
	jg	.L253
	vmulsd	%xmm3, %xmm4, %xmm3
.LVL685:
	vmulsd	%xmm3, %xmm1, %xmm1
.LVL686:
.L251:
	.loc 1 937 0 discriminator 1
	cmpq	%rdx, %rbx
	jle	.L254
	.p2align 4,,10
	.p2align 3
.L255:
	.loc 1 938 0 discriminator 2
	vmulsd	(%rax,%rdx,8), %xmm0, %xmm0
.LVL687:
	.loc 1 937 0 discriminator 2
	addq	$1, %rdx
.LVL688:
	cmpq	%rbx, %rdx
	jne	.L255
.L254:
	.loc 1 940 0
	vmulsd	%xmm2, %xmm0, %xmm0
.LVL689:
	vmulsd	%xmm1, %xmm0, %xmm1
	vmovsd	%xmm1, 0(%r13)
	.loc 1 941 0
	addq	$8, %rsp
	.cfi_remember_state
	.cfi_def_cfa_offset 40
	popq	%rbx
	.cfi_def_cfa_offset 32
.LVL690:
	popq	%rbp
	.cfi_def_cfa_offset 24
.LVL691:
	popq	%r12
	.cfi_def_cfa_offset 16
.LVL692:
	popq	%r13
	.cfi_def_cfa_offset 8
.LVL693:
	ret
.LVL694:
.L256:
	.cfi_restore_state
	.loc 1 930 0
	vmovsd	.LC0(%rip), %xmm1
	xorl	%edx, %edx
	.loc 1 924 0
	vmovapd	%xmm1, %xmm2
	.loc 1 923 0
	vmovapd	%xmm1, %xmm0
	jmp	.L251
	.cfi_endproc
.LFE46:
	.size	unroll5x5a_combine, .-unroll5x5a_combine
	.p2align 4,,15
	.globl	unroll6x6a_combine
	.type	unroll6x6a_combine, @function
unroll6x6a_combine:
.LFB47:
	.loc 1 945 0
	.cfi_startproc
.LVL695:
	pushq	%r13
	.cfi_def_cfa_offset 16
	.cfi_offset 13, -16
	movq	%rsi, %r13
	pushq	%r12
	.cfi_def_cfa_offset 24
	.cfi_offset 12, -24
	movq	%rdi, %r12
	pushq	%rbp
	.cfi_def_cfa_offset 32
	.cfi_offset 6, -32
	pushq	%rbx
	.cfi_def_cfa_offset 40
	.cfi_offset 3, -40
	subq	$8, %rsp
	.cfi_def_cfa_offset 48
	.loc 1 947 0
	call	vec_length
.LVL696:
	.loc 1 948 0
	leaq	-5(%rax), %rbp
	.loc 1 949 0
	movq	%r12, %rdi
	.loc 1 947 0
	movq	%rax, %rbx
.LVL697:
	.loc 1 949 0
	call	get_vec_start
.LVL698:
	.loc 1 958 0
	testq	%rbp, %rbp
	jle	.L264
	.loc 1 955 0
	vmovsd	.LC0(%rip), %xmm1
	movq	%rax, %rdx
	.loc 1 958 0
	xorl	%ecx, %ecx
	.loc 1 954 0
	vmovapd	%xmm1, %xmm3
	.loc 1 953 0
	vmovapd	%xmm1, %xmm4
	.loc 1 952 0
	vmovapd	%xmm1, %xmm5
	.loc 1 951 0
	vmovapd	%xmm1, %xmm2
	.loc 1 950 0
	vmovapd	%xmm1, %xmm0
.LVL699:
	.p2align 4,,10
	.p2align 3
.L261:
	.loc 1 958 0 discriminator 2
	addq	$6, %rcx
.LVL700:
	.loc 1 959 0 discriminator 2
	vmulsd	(%rdx), %xmm0, %xmm0
.LVL701:
	addq	$48, %rdx
	vmulsd	-40(%rdx), %xmm2, %xmm2
.LVL702:
	.loc 1 960 0 discriminator 2
	vmulsd	-32(%rdx), %xmm5, %xmm5
.LVL703:
	vmulsd	-24(%rdx), %xmm4, %xmm4
.LVL704:
	.loc 1 961 0 discriminator 2
	vmulsd	-16(%rdx), %xmm3, %xmm3
.LVL705:
	vmulsd	-8(%rdx), %xmm1, %xmm1
.LVL706:
	.loc 1 958 0 discriminator 2
	cmpq	%rcx, %rbp
	jg	.L261
	vmulsd	%xmm4, %xmm5, %xmm4
.LVL707:
	vmulsd	%xmm1, %xmm3, %xmm1
.LVL708:
.L259:
	.loc 1 965 0 discriminator 1
	cmpq	%rcx, %rbx
	jle	.L262
	.p2align 4,,10
	.p2align 3
.L263:
	.loc 1 966 0 discriminator 2
	vmulsd	(%rax,%rcx,8), %xmm0, %xmm0
.LVL709:
	.loc 1 965 0 discriminator 2
	addq	$1, %rcx
.LVL710:
	cmpq	%rbx, %rcx
	jne	.L263
.L262:
	.loc 1 968 0
	vmulsd	%xmm2, %xmm0, %xmm0
.LVL711:
	vmulsd	%xmm4, %xmm0, %xmm0
	vmulsd	%xmm1, %xmm0, %xmm1
	vmovsd	%xmm1, 0(%r13)
	.loc 1 969 0
	addq	$8, %rsp
	.cfi_remember_state
	.cfi_def_cfa_offset 40
	popq	%rbx
	.cfi_def_cfa_offset 32
.LVL712:
	popq	%rbp
	.cfi_def_cfa_offset 24
.LVL713:
	popq	%r12
	.cfi_def_cfa_offset 16
.LVL714:
	popq	%r13
	.cfi_def_cfa_offset 8
.LVL715:
	ret
.LVL716:
.L264:
	.cfi_restore_state
	.loc 1 958 0
	vmovsd	.LC0(%rip), %xmm1
	xorl	%ecx, %ecx
	vmovapd	%xmm1, %xmm4
	.loc 1 951 0
	vmovapd	%xmm1, %xmm2
	.loc 1 950 0
	vmovapd	%xmm1, %xmm0
	jmp	.L259
	.cfi_endproc
.LFE47:
	.size	unroll6x6a_combine, .-unroll6x6a_combine
	.p2align 4,,15
	.globl	unroll7x7a_combine
	.type	unroll7x7a_combine, @function
unroll7x7a_combine:
.LFB48:
	.loc 1 973 0
	.cfi_startproc
.LVL717:
	pushq	%r13
	.cfi_def_cfa_offset 16
	.cfi_offset 13, -16
	movq	%rsi, %r13
	pushq	%r12
	.cfi_def_cfa_offset 24
	.cfi_offset 12, -24
	movq	%rdi, %r12
	pushq	%rbp
	.cfi_def_cfa_offset 32
	.cfi_offset 6, -32
	pushq	%rbx
	.cfi_def_cfa_offset 40
	.cfi_offset 3, -40
	subq	$8, %rsp
	.cfi_def_cfa_offset 48
	.loc 1 975 0
	call	vec_length
.LVL718:
	.loc 1 976 0
	leaq	-6(%rax), %rbp
	.loc 1 977 0
	movq	%r12, %rdi
	.loc 1 975 0
	movq	%rax, %rbx
.LVL719:
	.loc 1 977 0
	call	get_vec_start
.LVL720:
	.loc 1 987 0
	testq	%rbp, %rbp
	jle	.L272
	.loc 1 984 0
	vmovsd	.LC0(%rip), %xmm1
	movq	%rax, %rdx
	.loc 1 987 0
	xorl	%ecx, %ecx
	.loc 1 983 0
	vmovapd	%xmm1, %xmm3
	.loc 1 982 0
	vmovapd	%xmm1, %xmm4
	.loc 1 981 0
	vmovapd	%xmm1, %xmm5
	.loc 1 980 0
	vmovapd	%xmm1, %xmm6
	.loc 1 979 0
	vmovapd	%xmm1, %xmm2
	.loc 1 978 0
	vmovapd	%xmm1, %xmm0
.LVL721:
	.p2align 4,,10
	.p2align 3
.L269:
	.loc 1 987 0 discriminator 2
	addq	$7, %rcx
.LVL722:
	.loc 1 988 0 discriminator 2
	vmulsd	(%rdx), %xmm0, %xmm0
.LVL723:
	addq	$56, %rdx
	vmulsd	-48(%rdx), %xmm2, %xmm2
.LVL724:
	.loc 1 989 0 discriminator 2
	vmulsd	-40(%rdx), %xmm6, %xmm6
.LVL725:
	vmulsd	-32(%rdx), %xmm5, %xmm5
.LVL726:
	.loc 1 990 0 discriminator 2
	vmulsd	-24(%rdx), %xmm4, %xmm4
.LVL727:
	vmulsd	-16(%rdx), %xmm3, %xmm3
.LVL728:
	.loc 1 991 0 discriminator 2
	vmulsd	-8(%rdx), %xmm1, %xmm1
.LVL729:
	.loc 1 987 0 discriminator 2
	cmpq	%rcx, %rbp
	jg	.L269
	vmulsd	%xmm3, %xmm4, %xmm3
.LVL730:
	vmulsd	%xmm5, %xmm6, %xmm5
.LVL731:
	vmulsd	%xmm3, %xmm1, %xmm1
.LVL732:
.L267:
	.loc 1 995 0 discriminator 1
	cmpq	%rcx, %rbx
	jle	.L270
	.p2align 4,,10
	.p2align 3
.L271:
	.loc 1 996 0 discriminator 2
	vmulsd	(%rax,%rcx,8), %xmm0, %xmm0
.LVL733:
	.loc 1 995 0 discriminator 2
	addq	$1, %rcx
.LVL734:
	cmpq	%rbx, %rcx
	jne	.L271
.L270:
	.loc 1 998 0
	vmulsd	%xmm2, %xmm0, %xmm0
.LVL735:
	vmulsd	%xmm5, %xmm0, %xmm0
	vmulsd	%xmm1, %xmm0, %xmm1
	vmovsd	%xmm1, 0(%r13)
	.loc 1 999 0
	addq	$8, %rsp
	.cfi_remember_state
	.cfi_def_cfa_offset 40
	popq	%rbx
	.cfi_def_cfa_offset 32
.LVL736:
	popq	%rbp
	.cfi_def_cfa_offset 24
.LVL737:
	popq	%r12
	.cfi_def_cfa_offset 16
.LVL738:
	popq	%r13
	.cfi_def_cfa_offset 8
.LVL739:
	ret
.LVL740:
.L272:
	.cfi_restore_state
	.loc 1 987 0
	vmovsd	.LC0(%rip), %xmm1
	xorl	%ecx, %ecx
	vmovapd	%xmm1, %xmm5
	.loc 1 979 0
	vmovapd	%xmm1, %xmm2
	.loc 1 978 0
	vmovapd	%xmm1, %xmm0
	jmp	.L267
	.cfi_endproc
.LFE48:
	.size	unroll7x7a_combine, .-unroll7x7a_combine
	.p2align 4,,15
	.globl	unroll8x8a_combine
	.type	unroll8x8a_combine, @function
unroll8x8a_combine:
.LFB49:
	.loc 1 1003 0
	.cfi_startproc
.LVL741:
	pushq	%r13
	.cfi_def_cfa_offset 16
	.cfi_offset 13, -16
	movq	%rsi, %r13
	pushq	%r12
	.cfi_def_cfa_offset 24
	.cfi_offset 12, -24
	movq	%rdi, %r12
	pushq	%rbp
	.cfi_def_cfa_offset 32
	.cfi_offset 6, -32
	pushq	%rbx
	.cfi_def_cfa_offset 40
	.cfi_offset 3, -40
	subq	$8, %rsp
	.cfi_def_cfa_offset 48
	.loc 1 1005 0
	call	vec_length
.LVL742:
	.loc 1 1006 0
	leaq	-7(%rax), %rbp
	.loc 1 1007 0
	movq	%r12, %rdi
	.loc 1 1005 0
	movq	%rax, %rbx
.LVL743:
	.loc 1 1007 0
	call	get_vec_start
.LVL744:
	.loc 1 1018 0
	testq	%rbp, %rbp
	jle	.L280
	.loc 1 1015 0
	vmovsd	.LC0(%rip), %xmm1
	movq	%rax, %rdx
	.loc 1 1018 0
	xorl	%ecx, %ecx
	.loc 1 1014 0
	vmovapd	%xmm1, %xmm3
	.loc 1 1013 0
	vmovapd	%xmm1, %xmm4
	.loc 1 1012 0
	vmovapd	%xmm1, %xmm5
	.loc 1 1011 0
	vmovapd	%xmm1, %xmm6
	.loc 1 1010 0
	vmovapd	%xmm1, %xmm7
	.loc 1 1009 0
	vmovapd	%xmm1, %xmm2
	.loc 1 1008 0
	vmovapd	%xmm1, %xmm0
.LVL745:
	.p2align 4,,10
	.p2align 3
.L277:
	.loc 1 1018 0 discriminator 2
	addq	$8, %rcx
.LVL746:
	.loc 1 1019 0 discriminator 2
	vmulsd	(%rdx), %xmm0, %xmm0
.LVL747:
	addq	$64, %rdx
	vmulsd	-56(%rdx), %xmm2, %xmm2
.LVL748:
	.loc 1 1020 0 discriminator 2
	vmulsd	-48(%rdx), %xmm7, %xmm7
.LVL749:
	vmulsd	-40(%rdx), %xmm6, %xmm6
.LVL750:
	.loc 1 1021 0 discriminator 2
	vmulsd	-32(%rdx), %xmm5, %xmm5
.LVL751:
	vmulsd	-24(%rdx), %xmm4, %xmm4
.LVL752:
	.loc 1 1022 0 discriminator 2
	vmulsd	-16(%rdx), %xmm3, %xmm3
.LVL753:
	vmulsd	-8(%rdx), %xmm1, %xmm1
.LVL754:
	.loc 1 1018 0 discriminator 2
	cmpq	%rcx, %rbp
	jg	.L277
	vmulsd	%xmm4, %xmm5, %xmm4
.LVL755:
	leaq	-8(%rbx), %rdx
	vmulsd	%xmm1, %xmm3, %xmm1
.LVL756:
	vmulsd	%xmm6, %xmm7, %xmm6
.LVL757:
	shrq	$3, %rdx
	leaq	8(,%rdx,8), %rdx
	vmulsd	%xmm1, %xmm4, %xmm1
.LVL758:
.L275:
	.loc 1 1026 0 discriminator 1
	cmpq	%rdx, %rbx
	jle	.L278
	.p2align 4,,10
	.p2align 3
.L279:
	.loc 1 1027 0 discriminator 2
	vmulsd	(%rax,%rdx,8), %xmm0, %xmm0
.LVL759:
	.loc 1 1026 0 discriminator 2
	addq	$1, %rdx
.LVL760:
	cmpq	%rbx, %rdx
	jne	.L279
.L278:
	.loc 1 1029 0
	vmulsd	%xmm2, %xmm0, %xmm0
.LVL761:
	vmulsd	%xmm6, %xmm0, %xmm0
	vmulsd	%xmm1, %xmm0, %xmm1
	vmovsd	%xmm1, 0(%r13)
	.loc 1 1030 0
	addq	$8, %rsp
	.cfi_remember_state
	.cfi_def_cfa_offset 40
	popq	%rbx
	.cfi_def_cfa_offset 32
.LVL762:
	popq	%rbp
	.cfi_def_cfa_offset 24
.LVL763:
	popq	%r12
	.cfi_def_cfa_offset 16
.LVL764:
	popq	%r13
	.cfi_def_cfa_offset 8
.LVL765:
	ret
.LVL766:
.L280:
	.cfi_restore_state
	.loc 1 1018 0
	vmovsd	.LC0(%rip), %xmm1
	xorl	%edx, %edx
	vmovapd	%xmm1, %xmm6
	.loc 1 1009 0
	vmovapd	%xmm1, %xmm2
	.loc 1 1008 0
	vmovapd	%xmm1, %xmm0
	jmp	.L275
	.cfi_endproc
.LFE49:
	.size	unroll8x8a_combine, .-unroll8x8a_combine
	.p2align 4,,15
	.globl	unroll9x9a_combine
	.type	unroll9x9a_combine, @function
unroll9x9a_combine:
.LFB50:
	.loc 1 1034 0
	.cfi_startproc
.LVL767:
	pushq	%r13
	.cfi_def_cfa_offset 16
	.cfi_offset 13, -16
	movq	%rsi, %r13
	pushq	%r12
	.cfi_def_cfa_offset 24
	.cfi_offset 12, -24
	movq	%rdi, %r12
	pushq	%rbp
	.cfi_def_cfa_offset 32
	.cfi_offset 6, -32
	pushq	%rbx
	.cfi_def_cfa_offset 40
	.cfi_offset 3, -40
	subq	$8, %rsp
	.cfi_def_cfa_offset 48
	.loc 1 1036 0
	call	vec_length
.LVL768:
	.loc 1 1037 0
	leaq	-8(%rax), %rbp
	.loc 1 1038 0
	movq	%r12, %rdi
	.loc 1 1036 0
	movq	%rax, %rbx
.LVL769:
	.loc 1 1038 0
	call	get_vec_start
.LVL770:
	.loc 1 1050 0
	testq	%rbp, %rbp
	jle	.L288
	.loc 1 1047 0
	vmovsd	.LC0(%rip), %xmm1
	movq	%rax, %rdx
	.loc 1 1050 0
	xorl	%ecx, %ecx
	.loc 1 1046 0
	vmovapd	%xmm1, %xmm3
	.loc 1 1045 0
	vmovapd	%xmm1, %xmm4
	.loc 1 1044 0
	vmovapd	%xmm1, %xmm5
	.loc 1 1043 0
	vmovapd	%xmm1, %xmm6
	.loc 1 1042 0
	vmovapd	%xmm1, %xmm7
	.loc 1 1041 0
	vmovapd	%xmm1, %xmm8
	.loc 1 1040 0
	vmovapd	%xmm1, %xmm2
	.loc 1 1039 0
	vmovapd	%xmm1, %xmm0
.LVL771:
	.p2align 4,,10
	.p2align 3
.L285:
	.loc 1 1050 0 discriminator 2
	addq	$9, %rcx
.LVL772:
	.loc 1 1051 0 discriminator 2
	vmulsd	(%rdx), %xmm0, %xmm0
.LVL773:
	addq	$72, %rdx
	vmulsd	-64(%rdx), %xmm2, %xmm2
.LVL774:
	.loc 1 1052 0 discriminator 2
	vmulsd	-56(%rdx), %xmm8, %xmm8
.LVL775:
	vmulsd	-48(%rdx), %xmm7, %xmm7
.LVL776:
	.loc 1 1053 0 discriminator 2
	vmulsd	-40(%rdx), %xmm6, %xmm6
.LVL777:
	vmulsd	-32(%rdx), %xmm5, %xmm5
.LVL778:
	.loc 1 1054 0 discriminator 2
	vmulsd	-24(%rdx), %xmm4, %xmm4
.LVL779:
	vmulsd	-16(%rdx), %xmm3, %xmm3
.LVL780:
	.loc 1 1055 0 discriminator 2
	vmulsd	-8(%rdx), %xmm1, %xmm1
.LVL781:
	.loc 1 1050 0 discriminator 2
	cmpq	%rcx, %rbp
	jg	.L285
	vmulsd	%xmm5, %xmm6, %xmm5
.LVL782:
	vmulsd	%xmm3, %xmm4, %xmm3
.LVL783:
	vmulsd	%xmm7, %xmm8, %xmm7
.LVL784:
	vmulsd	%xmm3, %xmm5, %xmm3
	vmulsd	%xmm3, %xmm1, %xmm1
.LVL785:
.L283:
	.loc 1 1059 0 discriminator 1
	cmpq	%rcx, %rbx
	jle	.L286
	.p2align 4,,10
	.p2align 3
.L287:
	.loc 1 1060 0 discriminator 2
	vmulsd	(%rax,%rcx,8), %xmm0, %xmm0
.LVL786:
	.loc 1 1059 0 discriminator 2
	addq	$1, %rcx
.LVL787:
	cmpq	%rbx, %rcx
	jne	.L287
.L286:
	.loc 1 1062 0
	vmulsd	%xmm2, %xmm0, %xmm0
.LVL788:
	vmulsd	%xmm7, %xmm0, %xmm0
	vmulsd	%xmm1, %xmm0, %xmm1
	vmovsd	%xmm1, 0(%r13)
	.loc 1 1063 0
	addq	$8, %rsp
	.cfi_remember_state
	.cfi_def_cfa_offset 40
	popq	%rbx
	.cfi_def_cfa_offset 32
.LVL789:
	popq	%rbp
	.cfi_def_cfa_offset 24
.LVL790:
	popq	%r12
	.cfi_def_cfa_offset 16
.LVL791:
	popq	%r13
	.cfi_def_cfa_offset 8
.LVL792:
	ret
.LVL793:
.L288:
	.cfi_restore_state
	.loc 1 1050 0
	vmovsd	.LC0(%rip), %xmm1
	xorl	%ecx, %ecx
	vmovapd	%xmm1, %xmm7
	.loc 1 1040 0
	vmovapd	%xmm1, %xmm2
	.loc 1 1039 0
	vmovapd	%xmm1, %xmm0
	jmp	.L283
	.cfi_endproc
.LFE50:
	.size	unroll9x9a_combine, .-unroll9x9a_combine
	.p2align 4,,15
	.globl	unroll10x10a_combine
	.type	unroll10x10a_combine, @function
unroll10x10a_combine:
.LFB51:
	.loc 1 1067 0
	.cfi_startproc
.LVL794:
	pushq	%r13
	.cfi_def_cfa_offset 16
	.cfi_offset 13, -16
	movq	%rsi, %r13
	pushq	%r12
	.cfi_def_cfa_offset 24
	.cfi_offset 12, -24
	movq	%rdi, %r12
	pushq	%rbp
	.cfi_def_cfa_offset 32
	.cfi_offset 6, -32
	pushq	%rbx
	.cfi_def_cfa_offset 40
	.cfi_offset 3, -40
	subq	$8, %rsp
	.cfi_def_cfa_offset 48
	.loc 1 1069 0
	call	vec_length
.LVL795:
	.loc 1 1070 0
	leaq	-9(%rax), %rbp
	.loc 1 1071 0
	movq	%r12, %rdi
	.loc 1 1069 0
	movq	%rax, %rbx
.LVL796:
	.loc 1 1071 0
	call	get_vec_start
.LVL797:
	.loc 1 1084 0
	testq	%rbp, %rbp
	jle	.L296
	.loc 1 1081 0
	vmovsd	.LC0(%rip), %xmm1
	movq	%rax, %rdx
	.loc 1 1084 0
	xorl	%ecx, %ecx
	.loc 1 1080 0
	vmovapd	%xmm1, %xmm3
	.loc 1 1079 0
	vmovapd	%xmm1, %xmm4
	.loc 1 1078 0
	vmovapd	%xmm1, %xmm5
	.loc 1 1077 0
	vmovapd	%xmm1, %xmm6
	.loc 1 1076 0
	vmovapd	%xmm1, %xmm7
	.loc 1 1075 0
	vmovapd	%xmm1, %xmm8
	.loc 1 1074 0
	vmovapd	%xmm1, %xmm9
	.loc 1 1073 0
	vmovapd	%xmm1, %xmm2
	.loc 1 1072 0
	vmovapd	%xmm1, %xmm0
.LVL798:
	.p2align 4,,10
	.p2align 3
.L293:
	.loc 1 1084 0 discriminator 2
	addq	$10, %rcx
.LVL799:
	.loc 1 1085 0 discriminator 2
	vmulsd	(%rdx), %xmm0, %xmm0
.LVL800:
	addq	$80, %rdx
	vmulsd	-72(%rdx), %xmm2, %xmm2
.LVL801:
	.loc 1 1086 0 discriminator 2
	vmulsd	-64(%rdx), %xmm9, %xmm9
.LVL802:
	vmulsd	-56(%rdx), %xmm8, %xmm8
.LVL803:
	.loc 1 1087 0 discriminator 2
	vmulsd	-48(%rdx), %xmm7, %xmm7
.LVL804:
	vmulsd	-40(%rdx), %xmm6, %xmm6
.LVL805:
	.loc 1 1088 0 discriminator 2
	vmulsd	-32(%rdx), %xmm5, %xmm5
.LVL806:
	vmulsd	-24(%rdx), %xmm4, %xmm4
.LVL807:
	.loc 1 1089 0 discriminator 2
	vmulsd	-16(%rdx), %xmm3, %xmm3
.LVL808:
	vmulsd	-8(%rdx), %xmm1, %xmm1
.LVL809:
	.loc 1 1084 0 discriminator 2
	cmpq	%rcx, %rbp
	jg	.L293
	vmulsd	%xmm6, %xmm7, %xmm6
.LVL810:
	vmulsd	%xmm4, %xmm5, %xmm4
.LVL811:
	vmulsd	%xmm8, %xmm9, %xmm8
.LVL812:
	vmulsd	%xmm1, %xmm3, %xmm1
.LVL813:
	vmulsd	%xmm4, %xmm6, %xmm4
.LVL814:
.L291:
	.loc 1 1093 0 discriminator 1
	cmpq	%rcx, %rbx
	jle	.L294
	.p2align 4,,10
	.p2align 3
.L295:
	.loc 1 1094 0 discriminator 2
	vmulsd	(%rax,%rcx,8), %xmm0, %xmm0
.LVL815:
	.loc 1 1093 0 discriminator 2
	addq	$1, %rcx
.LVL816:
	cmpq	%rbx, %rcx
	jne	.L295
.L294:
	.loc 1 1096 0
	vmulsd	%xmm2, %xmm0, %xmm2
	vmulsd	%xmm8, %xmm2, %xmm0
.LVL817:
	vmulsd	%xmm4, %xmm0, %xmm0
	.loc 1 1097 0
	vmulsd	%xmm1, %xmm0, %xmm1
	.loc 1 1096 0
	vmovsd	%xmm1, 0(%r13)
	.loc 1 1099 0
	addq	$8, %rsp
	.cfi_remember_state
	.cfi_def_cfa_offset 40
	popq	%rbx
	.cfi_def_cfa_offset 32
.LVL818:
	popq	%rbp
	.cfi_def_cfa_offset 24
.LVL819:
	popq	%r12
	.cfi_def_cfa_offset 16
.LVL820:
	popq	%r13
	.cfi_def_cfa_offset 8
.LVL821:
	ret
.LVL822:
.L296:
	.cfi_restore_state
	.loc 1 1084 0
	vmovsd	.LC0(%rip), %xmm1
	xorl	%ecx, %ecx
	vmovapd	%xmm1, %xmm4
	vmovapd	%xmm1, %xmm8
	.loc 1 1073 0
	vmovapd	%xmm1, %xmm2
	.loc 1 1072 0
	vmovapd	%xmm1, %xmm0
	jmp	.L291
	.cfi_endproc
.LFE51:
	.size	unroll10x10a_combine, .-unroll10x10a_combine
	.p2align 4,,15
	.globl	unrollx2as_combine
	.type	unrollx2as_combine, @function
unrollx2as_combine:
.LFB52:
	.loc 1 1103 0
	.cfi_startproc
.LVL823:
	pushq	%r13
	.cfi_def_cfa_offset 16
	.cfi_offset 13, -16
	movq	%rsi, %r13
	pushq	%r12
	.cfi_def_cfa_offset 24
	.cfi_offset 12, -24
	movq	%rdi, %r12
	pushq	%rbp
	.cfi_def_cfa_offset 32
	.cfi_offset 6, -32
	pushq	%rbx
	.cfi_def_cfa_offset 40
	.cfi_offset 3, -40
	subq	$8, %rsp
	.cfi_def_cfa_offset 48
	.loc 1 1105 0
	call	vec_length
.LVL824:
	.loc 1 1106 0
	movq	%rax, %rbx
	.loc 1 1107 0
	movq	%r12, %rdi
	.loc 1 1105 0
	movq	%rax, %rbp
.LVL825:
	.loc 1 1106 0
	shrq	$63, %rbx
	addq	%rax, %rbx
	sarq	%rbx
.LVL826:
	.loc 1 1107 0
	call	get_vec_start
.LVL827:
	.loc 1 1110 0
	vmovsd	.LC0(%rip), %xmm0
	.loc 1 1113 0
	testq	%rbx, %rbx
	.loc 1 1107 0
	movq	%rax, %rcx
.LVL828:
	.loc 1 1108 0
	leaq	(%rax,%rbx,8), %rax
.LVL829:
	.loc 1 1109 0
	vmovapd	%xmm0, %xmm1
	.loc 1 1113 0
	jle	.L299
	xorl	%edx, %edx
.LVL830:
	.p2align 4,,10
	.p2align 3
.L300:
	.loc 1 1114 0 discriminator 2
	vmulsd	(%rcx,%rdx,8), %xmm1, %xmm1
.LVL831:
	vmulsd	(%rax,%rdx,8), %xmm0, %xmm0
.LVL832:
	.loc 1 1113 0 discriminator 2
	addq	$1, %rdx
.LVL833:
	cmpq	%rbx, %rdx
	jne	.L300
.LVL834:
.L299:
	.loc 1 1118 0
	leaq	(%rbx,%rbx), %rdx
.LVL835:
	cmpq	%rdx, %rbp
	jle	.L301
	.p2align 4,,10
	.p2align 3
.L302:
	.loc 1 1119 0 discriminator 2
	vmulsd	(%rcx,%rdx,8), %xmm0, %xmm0
.LVL836:
	.loc 1 1118 0 discriminator 2
	addq	$1, %rdx
.LVL837:
	cmpq	%rbp, %rdx
	jne	.L302
.L301:
	.loc 1 1121 0
	vmulsd	%xmm0, %xmm1, %xmm0
.LVL838:
	vmovsd	%xmm0, 0(%r13)
	.loc 1 1122 0
	addq	$8, %rsp
	.cfi_def_cfa_offset 40
	popq	%rbx
	.cfi_def_cfa_offset 32
.LVL839:
	popq	%rbp
	.cfi_def_cfa_offset 24
.LVL840:
	popq	%r12
	.cfi_def_cfa_offset 16
.LVL841:
	popq	%r13
	.cfi_def_cfa_offset 8
.LVL842:
	ret
	.cfi_endproc
.LFE52:
	.size	unrollx2as_combine, .-unrollx2as_combine
	.p2align 4,,15
	.globl	unroll8x2_combine
	.type	unroll8x2_combine, @function
unroll8x2_combine:
.LFB54:
	.loc 1 1151 0
	.cfi_startproc
.LVL843:
	pushq	%r12
	.cfi_def_cfa_offset 16
	.cfi_offset 12, -16
	pushq	%rbp
	.cfi_def_cfa_offset 24
	.cfi_offset 6, -24
	movq	%rsi, %rbp
	pushq	%rbx
	.cfi_def_cfa_offset 32
	.cfi_offset 3, -32
	.loc 1 1151 0
	movq	%rdi, %rbx
	.loc 1 1152 0
	call	vec_length
.LVL844:
	.loc 1 1153 0
	movq	%rbx, %rdi
	.loc 1 1152 0
	movq	%rax, %r12
.LVL845:
	.loc 1 1153 0
	call	get_vec_start
.LVL846:
	movq	%rax, %rcx
.LVL847:
	.loc 1 1154 0
	leaq	-56(%rax,%r12,8), %rax
.LVL848:
	.loc 1 1158 0
	cmpq	%rax, %rcx
	jae	.L311
	.loc 1 1156 0
	vmovsd	.LC0(%rip), %xmm1
	.loc 1 1158 0
	movq	%rcx, %rdx
	.loc 1 1155 0
	vmovapd	%xmm1, %xmm0
.LVL849:
	.p2align 4,,10
	.p2align 3
.L308:
	.loc 1 1159 0
	vmulsd	(%rdx), %xmm0, %xmm0
.LVL850:
	.loc 1 1167 0
	addq	$64, %rdx
.LVL851:
	.loc 1 1160 0
	vmulsd	-56(%rdx), %xmm1, %xmm1
.LVL852:
	.loc 1 1161 0
	vmulsd	-48(%rdx), %xmm0, %xmm0
.LVL853:
	.loc 1 1162 0
	vmulsd	-40(%rdx), %xmm1, %xmm1
.LVL854:
	.loc 1 1163 0
	vmulsd	-32(%rdx), %xmm0, %xmm0
.LVL855:
	.loc 1 1164 0
	vmulsd	-24(%rdx), %xmm1, %xmm1
.LVL856:
	.loc 1 1165 0
	vmulsd	-16(%rdx), %xmm0, %xmm0
.LVL857:
	.loc 1 1166 0
	vmulsd	-8(%rdx), %xmm1, %xmm1
.LVL858:
	.loc 1 1158 0
	cmpq	%rdx, %rax
	ja	.L308
	movq	%rcx, %rdx
.LVL859:
	notq	%rdx
	addq	%rax, %rdx
	andq	$-64, %rdx
	leaq	64(%rcx,%rdx), %rcx
.LVL860:
.L306:
	.loc 1 1169 0
	addq	$56, %rax
.LVL861:
	.loc 1 1170 0
	cmpq	%rcx, %rax
	jbe	.L309
	.p2align 4,,10
	.p2align 3
.L310:
	.loc 1 1171 0
	vmulsd	(%rcx), %xmm0, %xmm0
.LVL862:
	.loc 1 1172 0
	addq	$8, %rcx
.LVL863:
	.loc 1 1170 0
	cmpq	%rcx, %rax
	ja	.L310
.L309:
	.loc 1 1174 0
	vmulsd	%xmm1, %xmm0, %xmm0
.LVL864:
	vmovsd	%xmm0, 0(%rbp)
	.loc 1 1175 0
	popq	%rbx
	.cfi_remember_state
	.cfi_def_cfa_offset 24
.LVL865:
	popq	%rbp
	.cfi_def_cfa_offset 16
.LVL866:
	popq	%r12
	.cfi_def_cfa_offset 8
.LVL867:
	ret
.LVL868:
.L311:
	.cfi_restore_state
	.loc 1 1156 0
	vmovsd	.LC0(%rip), %xmm1
	.loc 1 1155 0
	vmovapd	%xmm1, %xmm0
	jmp	.L306
	.cfi_endproc
.LFE54:
	.size	unroll8x2_combine, .-unroll8x2_combine
	.p2align 4,,15
	.globl	unroll9x3_combine
	.type	unroll9x3_combine, @function
unroll9x3_combine:
.LFB55:
	.loc 1 1179 0
	.cfi_startproc
.LVL869:
	pushq	%r12
	.cfi_def_cfa_offset 16
	.cfi_offset 12, -16
	pushq	%rbp
	.cfi_def_cfa_offset 24
	.cfi_offset 6, -24
	movq	%rsi, %rbp
	pushq	%rbx
	.cfi_def_cfa_offset 32
	.cfi_offset 3, -32
	.loc 1 1179 0
	movq	%rdi, %rbx
	.loc 1 1180 0
	call	vec_length
.LVL870:
	.loc 1 1181 0
	movq	%rbx, %rdi
	.loc 1 1180 0
	movq	%rax, %r12
.LVL871:
	.loc 1 1181 0
	call	get_vec_start
.LVL872:
	movq	%rax, %rdx
.LVL873:
	.loc 1 1182 0
	leaq	-64(%rax,%r12,8), %rax
.LVL874:
	.loc 1 1185 0
	vmovsd	.LC0(%rip), %xmm1
	.loc 1 1187 0
	cmpq	%rax, %rdx
	.loc 1 1184 0
	vmovapd	%xmm1, %xmm2
	.loc 1 1183 0
	vmovapd	%xmm1, %xmm0
	.loc 1 1187 0
	jae	.L314
.LVL875:
	.p2align 4,,10
	.p2align 3
.L315:
	.loc 1 1188 0
	vmulsd	(%rdx), %xmm0, %xmm0
.LVL876:
	.loc 1 1197 0
	addq	$72, %rdx
.LVL877:
	.loc 1 1189 0
	vmulsd	-64(%rdx), %xmm2, %xmm2
.LVL878:
	.loc 1 1190 0
	vmulsd	-56(%rdx), %xmm1, %xmm1
.LVL879:
	.loc 1 1191 0
	vmulsd	-48(%rdx), %xmm0, %xmm0
.LVL880:
	.loc 1 1192 0
	vmulsd	-40(%rdx), %xmm2, %xmm2
.LVL881:
	.loc 1 1193 0
	vmulsd	-32(%rdx), %xmm1, %xmm1
.LVL882:
	.loc 1 1194 0
	vmulsd	-24(%rdx), %xmm0, %xmm0
.LVL883:
	.loc 1 1195 0
	vmulsd	-16(%rdx), %xmm2, %xmm2
.LVL884:
	.loc 1 1196 0
	vmulsd	-8(%rdx), %xmm1, %xmm1
.LVL885:
	.loc 1 1187 0
	cmpq	%rdx, %rax
	ja	.L315
.LVL886:
.L314:
	.loc 1 1199 0
	addq	$64, %rax
.LVL887:
	.loc 1 1200 0
	cmpq	%rdx, %rax
	jbe	.L316
	.p2align 4,,10
	.p2align 3
.L317:
	.loc 1 1201 0
	vmulsd	(%rdx), %xmm0, %xmm0
.LVL888:
	.loc 1 1202 0
	addq	$8, %rdx
.LVL889:
	.loc 1 1200 0
	cmpq	%rdx, %rax
	ja	.L317
.L316:
	.loc 1 1204 0
	vmulsd	%xmm2, %xmm0, %xmm0
.LVL890:
	vmulsd	%xmm1, %xmm0, %xmm1
	vmovsd	%xmm1, 0(%rbp)
	.loc 1 1205 0
	popq	%rbx
	.cfi_def_cfa_offset 24
.LVL891:
	popq	%rbp
	.cfi_def_cfa_offset 16
.LVL892:
	popq	%r12
	.cfi_def_cfa_offset 8
.LVL893:
	ret
	.cfi_endproc
.LFE55:
	.size	unroll9x3_combine, .-unroll9x3_combine
	.p2align 4,,15
	.globl	unroll8x4_combine
	.type	unroll8x4_combine, @function
unroll8x4_combine:
.LFB56:
	.loc 1 1210 0
	.cfi_startproc
.LVL894:
	pushq	%r12
	.cfi_def_cfa_offset 16
	.cfi_offset 12, -16
	pushq	%rbp
	.cfi_def_cfa_offset 24
	.cfi_offset 6, -24
	movq	%rsi, %rbp
	pushq	%rbx
	.cfi_def_cfa_offset 32
	.cfi_offset 3, -32
	.loc 1 1210 0
	movq	%rdi, %rbx
	.loc 1 1211 0
	call	vec_length
.LVL895:
	.loc 1 1212 0
	movq	%rbx, %rdi
	.loc 1 1211 0
	movq	%rax, %r12
.LVL896:
	.loc 1 1212 0
	call	get_vec_start
.LVL897:
	movq	%rax, %rcx
.LVL898:
	.loc 1 1213 0
	leaq	-56(%rax,%r12,8), %rax
.LVL899:
	.loc 1 1219 0
	cmpq	%rax, %rcx
	jae	.L326
	.loc 1 1217 0
	vmovsd	.LC0(%rip), %xmm0
	.loc 1 1219 0
	movq	%rcx, %rdx
	.loc 1 1216 0
	vmovapd	%xmm0, %xmm1
	.loc 1 1215 0
	vmovapd	%xmm0, %xmm2
	.loc 1 1214 0
	vmovapd	%xmm0, %xmm3
.LVL900:
	.p2align 4,,10
	.p2align 3
.L323:
	.loc 1 1220 0
	vmulsd	(%rdx), %xmm3, %xmm3
.LVL901:
	.loc 1 1228 0
	addq	$64, %rdx
.LVL902:
	.loc 1 1221 0
	vmulsd	-56(%rdx), %xmm2, %xmm2
.LVL903:
	.loc 1 1222 0
	vmulsd	-48(%rdx), %xmm1, %xmm1
.LVL904:
	.loc 1 1223 0
	vmulsd	-40(%rdx), %xmm0, %xmm0
.LVL905:
	.loc 1 1224 0
	vmulsd	-32(%rdx), %xmm3, %xmm3
.LVL906:
	.loc 1 1225 0
	vmulsd	-24(%rdx), %xmm2, %xmm2
.LVL907:
	.loc 1 1226 0
	vmulsd	-16(%rdx), %xmm1, %xmm1
.LVL908:
	.loc 1 1227 0
	vmulsd	-8(%rdx), %xmm0, %xmm0
.LVL909:
	.loc 1 1219 0
	cmpq	%rdx, %rax
	ja	.L323
	movq	%rcx, %rdx
.LVL910:
	notq	%rdx
	addq	%rax, %rdx
	andq	$-64, %rdx
	leaq	64(%rcx,%rdx), %rcx
.LVL911:
.L321:
	.loc 1 1230 0
	addq	$56, %rax
.LVL912:
	.loc 1 1231 0
	cmpq	%rcx, %rax
	jbe	.L324
	.p2align 4,,10
	.p2align 3
.L325:
	.loc 1 1232 0
	vmulsd	(%rcx), %xmm0, %xmm0
.LVL913:
	.loc 1 1233 0
	addq	$8, %rcx
.LVL914:
	.loc 1 1231 0
	cmpq	%rcx, %rax
	ja	.L325
.L324:
	.loc 1 1235 0
	vmulsd	%xmm3, %xmm0, %xmm0
.LVL915:
	vmulsd	%xmm2, %xmm0, %xmm2
	vmulsd	%xmm1, %xmm2, %xmm1
	vmovsd	%xmm1, 0(%rbp)
	.loc 1 1236 0
	popq	%rbx
	.cfi_remember_state
	.cfi_def_cfa_offset 24
.LVL916:
	popq	%rbp
	.cfi_def_cfa_offset 16
.LVL917:
	popq	%r12
	.cfi_def_cfa_offset 8
.LVL918:
	ret
.LVL919:
.L326:
	.cfi_restore_state
	.loc 1 1217 0
	vmovsd	.LC0(%rip), %xmm0
	.loc 1 1216 0
	vmovapd	%xmm0, %xmm1
	.loc 1 1215 0
	vmovapd	%xmm0, %xmm2
	.loc 1 1214 0
	vmovapd	%xmm0, %xmm3
	jmp	.L321
	.cfi_endproc
.LFE56:
	.size	unroll8x4_combine, .-unroll8x4_combine
	.p2align 4,,15
	.globl	unroll8x8_combine
	.type	unroll8x8_combine, @function
unroll8x8_combine:
.LFB57:
	.loc 1 1240 0
	.cfi_startproc
.LVL920:
	pushq	%r12
	.cfi_def_cfa_offset 16
	.cfi_offset 12, -16
	pushq	%rbp
	.cfi_def_cfa_offset 24
	.cfi_offset 6, -24
	movq	%rsi, %rbp
	pushq	%rbx
	.cfi_def_cfa_offset 32
	.cfi_offset 3, -32
	.loc 1 1240 0
	movq	%rdi, %rbx
	.loc 1 1241 0
	call	vec_length
.LVL921:
	.loc 1 1242 0
	movq	%rbx, %rdi
	.loc 1 1241 0
	movq	%rax, %r12
.LVL922:
	.loc 1 1242 0
	call	get_vec_start
.LVL923:
	movq	%rax, %rcx
.LVL924:
	.loc 1 1243 0
	leaq	-56(%rax,%r12,8), %rax
.LVL925:
	.loc 1 1253 0
	cmpq	%rax, %rcx
	jae	.L334
	.loc 1 1251 0
	vmovsd	.LC0(%rip), %xmm1
	.loc 1 1253 0
	movq	%rcx, %rdx
	.loc 1 1250 0
	vmovapd	%xmm1, %xmm2
	.loc 1 1249 0
	vmovapd	%xmm1, %xmm3
	.loc 1 1248 0
	vmovapd	%xmm1, %xmm4
	.loc 1 1247 0
	vmovapd	%xmm1, %xmm5
	.loc 1 1246 0
	vmovapd	%xmm1, %xmm6
	.loc 1 1245 0
	vmovapd	%xmm1, %xmm7
	.loc 1 1244 0
	vmovapd	%xmm1, %xmm0
.LVL926:
	.p2align 4,,10
	.p2align 3
.L331:
	.loc 1 1254 0
	vmulsd	(%rdx), %xmm0, %xmm0
.LVL927:
	.loc 1 1262 0
	addq	$64, %rdx
.LVL928:
	.loc 1 1255 0
	vmulsd	-56(%rdx), %xmm7, %xmm7
.LVL929:
	.loc 1 1256 0
	vmulsd	-48(%rdx), %xmm6, %xmm6
.LVL930:
	.loc 1 1257 0
	vmulsd	-40(%rdx), %xmm5, %xmm5
.LVL931:
	.loc 1 1258 0
	vmulsd	-32(%rdx), %xmm4, %xmm4
.LVL932:
	.loc 1 1259 0
	vmulsd	-24(%rdx), %xmm3, %xmm3
.LVL933:
	.loc 1 1260 0
	vmulsd	-16(%rdx), %xmm2, %xmm2
.LVL934:
	.loc 1 1261 0
	vmulsd	-8(%rdx), %xmm1, %xmm1
.LVL935:
	.loc 1 1253 0
	cmpq	%rdx, %rax
	ja	.L331
	movq	%rcx, %rdx
.LVL936:
	notq	%rdx
	addq	%rax, %rdx
	andq	$-64, %rdx
	leaq	64(%rcx,%rdx), %rcx
.LVL937:
.L329:
	.loc 1 1264 0
	addq	$56, %rax
.LVL938:
	.loc 1 1265 0
	cmpq	%rcx, %rax
	jbe	.L332
	.p2align 4,,10
	.p2align 3
.L333:
	.loc 1 1266 0
	vmulsd	(%rcx), %xmm0, %xmm0
.LVL939:
	.loc 1 1267 0
	addq	$8, %rcx
.LVL940:
	.loc 1 1265 0
	cmpq	%rcx, %rax
	ja	.L333
.L332:
	.loc 1 1269 0
	vmulsd	%xmm7, %xmm0, %xmm0
.LVL941:
	vmulsd	%xmm6, %xmm0, %xmm6
	vmulsd	%xmm5, %xmm6, %xmm5
	vmulsd	%xmm4, %xmm5, %xmm4
	vmulsd	%xmm3, %xmm4, %xmm3
	vmulsd	%xmm2, %xmm3, %xmm2
	vmulsd	%xmm1, %xmm2, %xmm1
	vmovsd	%xmm1, 0(%rbp)
	.loc 1 1270 0
	popq	%rbx
	.cfi_remember_state
	.cfi_def_cfa_offset 24
.LVL942:
	popq	%rbp
	.cfi_def_cfa_offset 16
.LVL943:
	popq	%r12
	.cfi_def_cfa_offset 8
.LVL944:
	ret
.LVL945:
.L334:
	.cfi_restore_state
	.loc 1 1251 0
	vmovsd	.LC0(%rip), %xmm1
	.loc 1 1250 0
	vmovapd	%xmm1, %xmm2
	.loc 1 1249 0
	vmovapd	%xmm1, %xmm3
	.loc 1 1248 0
	vmovapd	%xmm1, %xmm4
	.loc 1 1247 0
	vmovapd	%xmm1, %xmm5
	.loc 1 1246 0
	vmovapd	%xmm1, %xmm6
	.loc 1 1245 0
	vmovapd	%xmm1, %xmm7
	.loc 1 1244 0
	vmovapd	%xmm1, %xmm0
	jmp	.L329
	.cfi_endproc
.LFE57:
	.size	unroll8x8_combine, .-unroll8x8_combine
	.p2align 4,,15
	.globl	combine7
	.type	combine7, @function
combine7:
.LFB58:
	.loc 1 1276 0
	.cfi_startproc
.LVL946:
	pushq	%r13
	.cfi_def_cfa_offset 16
	.cfi_offset 13, -16
	movq	%rsi, %r13
	pushq	%r12
	.cfi_def_cfa_offset 24
	.cfi_offset 12, -24
	movq	%rdi, %r12
	pushq	%rbp
	.cfi_def_cfa_offset 32
	.cfi_offset 6, -32
	pushq	%rbx
	.cfi_def_cfa_offset 40
	.cfi_offset 3, -40
	subq	$8, %rsp
	.cfi_def_cfa_offset 48
	.loc 1 1278 0
	call	vec_length
.LVL947:
	.loc 1 1279 0
	leaq	-1(%rax), %rbp
	.loc 1 1280 0
	movq	%r12, %rdi
	.loc 1 1278 0
	movq	%rax, %rbx
.LVL948:
	.loc 1 1280 0
	call	get_vec_start
.LVL949:
	.loc 1 1284 0
	xorl	%edx, %edx
	testq	%rbp, %rbp
	.loc 1 1280 0
	movq	%rax, %rcx
.LVL950:
	.loc 1 1281 0
	vmovsd	.LC0(%rip), %xmm0
	.loc 1 1284 0
	jle	.L337
.LVL951:
	.p2align 4,,10
	.p2align 3
.L339:
	.loc 1 1286 0 discriminator 2
	vmovsd	(%rcx,%rdx,8), %xmm1
	vmulsd	8(%rcx,%rdx,8), %xmm1, %xmm1
	.loc 1 1284 0 discriminator 2
	addq	$2, %rdx
.LVL952:
	cmpq	%rdx, %rbp
	.loc 1 1286 0 discriminator 2
	vmulsd	%xmm1, %xmm0, %xmm0
.LVL953:
	.loc 1 1284 0 discriminator 2
	jg	.L339
	leaq	-2(%rbx), %rax
.LVL954:
	shrq	%rax
	leaq	2(%rax,%rax), %rdx
.LVL955:
.L337:
	.loc 1 1291 0 discriminator 1
	cmpq	%rdx, %rbx
	jle	.L340
	.p2align 4,,10
	.p2align 3
.L341:
	.loc 1 1292 0 discriminator 2
	vmulsd	(%rcx,%rdx,8), %xmm0, %xmm0
.LVL956:
	.loc 1 1291 0 discriminator 2
	addq	$1, %rdx
.LVL957:
	cmpq	%rbx, %rdx
	jne	.L341
.L340:
	.loc 1 1294 0
	vmovsd	%xmm0, 0(%r13)
	.loc 1 1295 0
	addq	$8, %rsp
	.cfi_def_cfa_offset 40
	popq	%rbx
	.cfi_def_cfa_offset 32
.LVL958:
	popq	%rbp
	.cfi_def_cfa_offset 24
.LVL959:
	popq	%r12
	.cfi_def_cfa_offset 16
.LVL960:
	popq	%r13
	.cfi_def_cfa_offset 8
.LVL961:
	ret
	.cfi_endproc
.LFE58:
	.size	combine7, .-combine7
	.p2align 4,,15
	.globl	unroll3aa_combine
	.type	unroll3aa_combine, @function
unroll3aa_combine:
.LFB59:
	.loc 1 1300 0
	.cfi_startproc
.LVL962:
	pushq	%r13
	.cfi_def_cfa_offset 16
	.cfi_offset 13, -16
	movq	%rsi, %r13
	pushq	%r12
	.cfi_def_cfa_offset 24
	.cfi_offset 12, -24
	movq	%rdi, %r12
	pushq	%rbp
	.cfi_def_cfa_offset 32
	.cfi_offset 6, -32
	pushq	%rbx
	.cfi_def_cfa_offset 40
	.cfi_offset 3, -40
	subq	$8, %rsp
	.cfi_def_cfa_offset 48
	.loc 1 1302 0
	call	vec_length
.LVL963:
	.loc 1 1303 0
	leaq	-2(%rax), %rbp
	.loc 1 1304 0
	movq	%r12, %rdi
	.loc 1 1302 0
	movq	%rax, %rbx
.LVL964:
	.loc 1 1304 0
	call	get_vec_start
.LVL965:
	.loc 1 1308 0
	xorl	%edx, %edx
	testq	%rbp, %rbp
	.loc 1 1305 0
	vmovsd	.LC0(%rip), %xmm0
	.loc 1 1308 0
	jle	.L345
.LVL966:
	.p2align 4,,10
	.p2align 3
.L346:
	.loc 1 1309 0 discriminator 2
	vmovsd	(%rax,%rdx,8), %xmm1
	vmulsd	8(%rax,%rdx,8), %xmm1, %xmm1
	vmulsd	16(%rax,%rdx,8), %xmm1, %xmm1
	.loc 1 1308 0 discriminator 2
	addq	$3, %rdx
.LVL967:
	cmpq	%rdx, %rbp
	.loc 1 1309 0 discriminator 2
	vmulsd	%xmm1, %xmm0, %xmm0
.LVL968:
	.loc 1 1308 0 discriminator 2
	jg	.L346
.LVL969:
.L345:
	.loc 1 1313 0 discriminator 1
	cmpq	%rdx, %rbx
	jle	.L347
	.p2align 4,,10
	.p2align 3
.L348:
	.loc 1 1314 0 discriminator 2
	vmulsd	(%rax,%rdx,8), %xmm0, %xmm0
.LVL970:
	.loc 1 1313 0 discriminator 2
	addq	$1, %rdx
.LVL971:
	cmpq	%rbx, %rdx
	jne	.L348
.L347:
	.loc 1 1316 0
	vmovsd	%xmm0, 0(%r13)
	.loc 1 1317 0
	addq	$8, %rsp
	.cfi_def_cfa_offset 40
	popq	%rbx
	.cfi_def_cfa_offset 32
.LVL972:
	popq	%rbp
	.cfi_def_cfa_offset 24
.LVL973:
	popq	%r12
	.cfi_def_cfa_offset 16
.LVL974:
	popq	%r13
	.cfi_def_cfa_offset 8
.LVL975:
	ret
	.cfi_endproc
.LFE59:
	.size	unroll3aa_combine, .-unroll3aa_combine
	.p2align 4,,15
	.globl	unroll4aa_combine
	.type	unroll4aa_combine, @function
unroll4aa_combine:
.LFB60:
	.loc 1 1321 0
	.cfi_startproc
.LVL976:
	pushq	%r13
	.cfi_def_cfa_offset 16
	.cfi_offset 13, -16
	movq	%rsi, %r13
	pushq	%r12
	.cfi_def_cfa_offset 24
	.cfi_offset 12, -24
	movq	%rdi, %r12
	pushq	%rbp
	.cfi_def_cfa_offset 32
	.cfi_offset 6, -32
	pushq	%rbx
	.cfi_def_cfa_offset 40
	.cfi_offset 3, -40
	subq	$8, %rsp
	.cfi_def_cfa_offset 48
	.loc 1 1323 0
	call	vec_length
.LVL977:
	.loc 1 1324 0
	leaq	-3(%rax), %rbp
	.loc 1 1325 0
	movq	%r12, %rdi
	.loc 1 1323 0
	movq	%rax, %rbx
.LVL978:
	.loc 1 1325 0
	call	get_vec_start
.LVL979:
	.loc 1 1329 0
	xorl	%edx, %edx
	testq	%rbp, %rbp
	.loc 1 1325 0
	movq	%rax, %rcx
.LVL980:
	.loc 1 1326 0
	vmovsd	.LC0(%rip), %xmm0
	.loc 1 1329 0
	jle	.L352
.LVL981:
	.p2align 4,,10
	.p2align 3
.L354:
.LBB7:
	.loc 1 1330 0 discriminator 2
	vmovsd	(%rcx,%rdx,8), %xmm2
	.loc 1 1331 0 discriminator 2
	vmovsd	16(%rcx,%rdx,8), %xmm1
	.loc 1 1330 0 discriminator 2
	vmulsd	8(%rcx,%rdx,8), %xmm2, %xmm2
	.loc 1 1331 0 discriminator 2
	vmulsd	24(%rcx,%rdx,8), %xmm1, %xmm1
.LBE7:
	.loc 1 1329 0 discriminator 2
	addq	$4, %rdx
.LVL982:
	cmpq	%rdx, %rbp
.LBB8:
	.loc 1 1332 0 discriminator 2
	vmulsd	%xmm1, %xmm2, %xmm1
	vmulsd	%xmm1, %xmm0, %xmm0
.LVL983:
.LBE8:
	.loc 1 1329 0 discriminator 2
	jg	.L354
	leaq	-4(%rbx), %rax
.LVL984:
	shrq	$2, %rax
	leaq	4(,%rax,4), %rdx
.LVL985:
.L352:
	.loc 1 1336 0 discriminator 1
	cmpq	%rdx, %rbx
	jle	.L355
	.p2align 4,,10
	.p2align 3
.L356:
	.loc 1 1337 0 discriminator 2
	vmulsd	(%rcx,%rdx,8), %xmm0, %xmm0
.LVL986:
	.loc 1 1336 0 discriminator 2
	addq	$1, %rdx
.LVL987:
	cmpq	%rbx, %rdx
	jne	.L356
.L355:
	.loc 1 1339 0
	vmovsd	%xmm0, 0(%r13)
	.loc 1 1340 0
	addq	$8, %rsp
	.cfi_def_cfa_offset 40
	popq	%rbx
	.cfi_def_cfa_offset 32
.LVL988:
	popq	%rbp
	.cfi_def_cfa_offset 24
.LVL989:
	popq	%r12
	.cfi_def_cfa_offset 16
.LVL990:
	popq	%r13
	.cfi_def_cfa_offset 8
.LVL991:
	ret
	.cfi_endproc
.LFE60:
	.size	unroll4aa_combine, .-unroll4aa_combine
	.p2align 4,,15
	.globl	unroll5aa_combine
	.type	unroll5aa_combine, @function
unroll5aa_combine:
.LFB61:
	.loc 1 1344 0
	.cfi_startproc
.LVL992:
	pushq	%r13
	.cfi_def_cfa_offset 16
	.cfi_offset 13, -16
	movq	%rsi, %r13
	pushq	%r12
	.cfi_def_cfa_offset 24
	.cfi_offset 12, -24
	movq	%rdi, %r12
	pushq	%rbp
	.cfi_def_cfa_offset 32
	.cfi_offset 6, -32
	pushq	%rbx
	.cfi_def_cfa_offset 40
	.cfi_offset 3, -40
	subq	$8, %rsp
	.cfi_def_cfa_offset 48
	.loc 1 1346 0
	call	vec_length
.LVL993:
	.loc 1 1347 0
	leaq	-4(%rax), %rbp
	.loc 1 1348 0
	movq	%r12, %rdi
	.loc 1 1346 0
	movq	%rax, %rbx
.LVL994:
	.loc 1 1348 0
	call	get_vec_start
.LVL995:
	.loc 1 1352 0
	testq	%rbp, %rbp
	jle	.L364
	.loc 1 1349 0
	vmovsd	.LC0(%rip), %xmm0
	movq	%rax, %rcx
	.loc 1 1352 0
	xorl	%edx, %edx
.LVL996:
	.p2align 4,,10
	.p2align 3
.L361:
.LBB9:
	.loc 1 1353 0 discriminator 2
	vmovsd	(%rcx), %xmm2
.LBE9:
	.loc 1 1352 0 discriminator 2
	addq	$5, %rdx
.LVL997:
.LBB10:
	.loc 1 1354 0 discriminator 2
	vmovsd	16(%rcx), %xmm1
	addq	$40, %rcx
.LVL998:
	.loc 1 1353 0 discriminator 2
	vmulsd	-32(%rcx), %xmm2, %xmm2
.LVL999:
	.loc 1 1354 0 discriminator 2
	vmulsd	-16(%rcx), %xmm1, %xmm1
.LVL1000:
	.loc 1 1356 0 discriminator 2
	vmulsd	%xmm1, %xmm2, %xmm1
	vmulsd	-8(%rcx), %xmm1, %xmm1
.LBE10:
	.loc 1 1352 0 discriminator 2
	cmpq	%rdx, %rbp
.LBB11:
	.loc 1 1356 0 discriminator 2
	vmulsd	%xmm1, %xmm0, %xmm0
.LVL1001:
.LBE11:
	.loc 1 1352 0 discriminator 2
	jg	.L361
.LVL1002:
.L360:
	.loc 1 1360 0 discriminator 1
	cmpq	%rdx, %rbx
	jle	.L362
	.p2align 4,,10
	.p2align 3
.L363:
	.loc 1 1361 0 discriminator 2
	vmulsd	(%rax,%rdx,8), %xmm0, %xmm0
.LVL1003:
	.loc 1 1360 0 discriminator 2
	addq	$1, %rdx
.LVL1004:
	cmpq	%rbx, %rdx
	jne	.L363
.L362:
	.loc 1 1363 0
	vmovsd	%xmm0, 0(%r13)
	.loc 1 1364 0
	addq	$8, %rsp
	.cfi_remember_state
	.cfi_def_cfa_offset 40
	popq	%rbx
	.cfi_def_cfa_offset 32
.LVL1005:
	popq	%rbp
	.cfi_def_cfa_offset 24
.LVL1006:
	popq	%r12
	.cfi_def_cfa_offset 16
.LVL1007:
	popq	%r13
	.cfi_def_cfa_offset 8
.LVL1008:
	ret
.LVL1009:
.L364:
	.cfi_restore_state
	.loc 1 1349 0
	vmovsd	.LC0(%rip), %xmm0
	.loc 1 1352 0
	xorl	%edx, %edx
	jmp	.L360
	.cfi_endproc
.LFE61:
	.size	unroll5aa_combine, .-unroll5aa_combine
	.p2align 4,,15
	.globl	unroll6aa_combine
	.type	unroll6aa_combine, @function
unroll6aa_combine:
.LFB62:
	.loc 1 1368 0
	.cfi_startproc
.LVL1010:
	pushq	%r13
	.cfi_def_cfa_offset 16
	.cfi_offset 13, -16
	movq	%rsi, %r13
	pushq	%r12
	.cfi_def_cfa_offset 24
	.cfi_offset 12, -24
	movq	%rdi, %r12
	pushq	%rbp
	.cfi_def_cfa_offset 32
	.cfi_offset 6, -32
	pushq	%rbx
	.cfi_def_cfa_offset 40
	.cfi_offset 3, -40
	subq	$8, %rsp
	.cfi_def_cfa_offset 48
	.loc 1 1370 0
	call	vec_length
.LVL1011:
	.loc 1 1371 0
	leaq	-5(%rax), %rbp
	.loc 1 1372 0
	movq	%r12, %rdi
	.loc 1 1370 0
	movq	%rax, %rbx
.LVL1012:
	.loc 1 1372 0
	call	get_vec_start
.LVL1013:
	.loc 1 1376 0
	testq	%rbp, %rbp
	jle	.L371
	.loc 1 1373 0
	vmovsd	.LC0(%rip), %xmm0
	movq	%rax, %rdx
	.loc 1 1376 0
	xorl	%ecx, %ecx
.LVL1014:
	.p2align 4,,10
	.p2align 3
.L368:
.LBB12:
	.loc 1 1377 0 discriminator 2
	vmovsd	(%rdx), %xmm2
.LBE12:
	.loc 1 1376 0 discriminator 2
	addq	$6, %rcx
.LVL1015:
.LBB13:
	.loc 1 1378 0 discriminator 2
	vmovsd	16(%rdx), %xmm1
	addq	$48, %rdx
.LVL1016:
	.loc 1 1377 0 discriminator 2
	vmulsd	-40(%rdx), %xmm2, %xmm2
.LVL1017:
	.loc 1 1378 0 discriminator 2
	vmulsd	-24(%rdx), %xmm1, %xmm1
.LVL1018:
	.loc 1 1380 0 discriminator 2
	vmulsd	%xmm1, %xmm2, %xmm1
	.loc 1 1379 0 discriminator 2
	vmovsd	-16(%rdx), %xmm2
	vmulsd	-8(%rdx), %xmm2, %xmm2
.LBE13:
	.loc 1 1376 0 discriminator 2
	cmpq	%rcx, %rbp
.LBB14:
	.loc 1 1380 0 discriminator 2
	vmulsd	%xmm2, %xmm1, %xmm1
	vmulsd	%xmm1, %xmm0, %xmm0
.LVL1019:
.LBE14:
	.loc 1 1376 0 discriminator 2
	jg	.L368
.LVL1020:
.L367:
	.loc 1 1384 0 discriminator 1
	cmpq	%rcx, %rbx
	jle	.L369
	.p2align 4,,10
	.p2align 3
.L370:
	.loc 1 1385 0 discriminator 2
	vmulsd	(%rax,%rcx,8), %xmm0, %xmm0
.LVL1021:
	.loc 1 1384 0 discriminator 2
	addq	$1, %rcx
.LVL1022:
	cmpq	%rbx, %rcx
	jne	.L370
.L369:
	.loc 1 1387 0
	vmovsd	%xmm0, 0(%r13)
	.loc 1 1388 0
	addq	$8, %rsp
	.cfi_remember_state
	.cfi_def_cfa_offset 40
	popq	%rbx
	.cfi_def_cfa_offset 32
.LVL1023:
	popq	%rbp
	.cfi_def_cfa_offset 24
.LVL1024:
	popq	%r12
	.cfi_def_cfa_offset 16
.LVL1025:
	popq	%r13
	.cfi_def_cfa_offset 8
.LVL1026:
	ret
.LVL1027:
.L371:
	.cfi_restore_state
	.loc 1 1373 0
	vmovsd	.LC0(%rip), %xmm0
	.loc 1 1376 0
	xorl	%ecx, %ecx
	jmp	.L367
	.cfi_endproc
.LFE62:
	.size	unroll6aa_combine, .-unroll6aa_combine
	.p2align 4,,15
	.globl	unroll7aa_combine
	.type	unroll7aa_combine, @function
unroll7aa_combine:
.LFB63:
	.loc 1 1392 0
	.cfi_startproc
.LVL1028:
	pushq	%r13
	.cfi_def_cfa_offset 16
	.cfi_offset 13, -16
	movq	%rsi, %r13
	pushq	%r12
	.cfi_def_cfa_offset 24
	.cfi_offset 12, -24
	movq	%rdi, %r12
	pushq	%rbp
	.cfi_def_cfa_offset 32
	.cfi_offset 6, -32
	pushq	%rbx
	.cfi_def_cfa_offset 40
	.cfi_offset 3, -40
	subq	$8, %rsp
	.cfi_def_cfa_offset 48
	.loc 1 1394 0
	call	vec_length
.LVL1029:
	.loc 1 1395 0
	leaq	-6(%rax), %rbp
	.loc 1 1396 0
	movq	%r12, %rdi
	.loc 1 1394 0
	movq	%rax, %rbx
.LVL1030:
	.loc 1 1396 0
	call	get_vec_start
.LVL1031:
	.loc 1 1400 0
	testq	%rbp, %rbp
	jle	.L378
	.loc 1 1397 0
	vmovsd	.LC0(%rip), %xmm0
	movq	%rax, %rdx
	.loc 1 1400 0
	xorl	%ecx, %ecx
.LVL1032:
	.p2align 4,,10
	.p2align 3
.L375:
.LBB15:
	.loc 1 1401 0 discriminator 2
	vmovsd	(%rdx), %xmm2
.LBE15:
	.loc 1 1400 0 discriminator 2
	addq	$7, %rcx
.LVL1033:
.LBB16:
	.loc 1 1402 0 discriminator 2
	vmovsd	16(%rdx), %xmm1
	addq	$56, %rdx
.LVL1034:
	.loc 1 1401 0 discriminator 2
	vmulsd	-48(%rdx), %xmm2, %xmm2
.LVL1035:
	.loc 1 1402 0 discriminator 2
	vmulsd	-32(%rdx), %xmm1, %xmm1
.LVL1036:
	.loc 1 1403 0 discriminator 2
	vmulsd	%xmm1, %xmm2, %xmm1
	.loc 1 1404 0 discriminator 2
	vmovsd	-24(%rdx), %xmm2
	vmulsd	-16(%rdx), %xmm2, %xmm2
	.loc 1 1406 0 discriminator 2
	vmulsd	-8(%rdx), %xmm2, %xmm2
.LBE16:
	.loc 1 1400 0 discriminator 2
	cmpq	%rcx, %rbp
.LBB17:
	.loc 1 1407 0 discriminator 2
	vmulsd	%xmm2, %xmm1, %xmm1
	vmulsd	%xmm1, %xmm0, %xmm0
.LVL1037:
.LBE17:
	.loc 1 1400 0 discriminator 2
	jg	.L375
.LVL1038:
.L374:
	.loc 1 1411 0 discriminator 1
	cmpq	%rcx, %rbx
	jle	.L376
	.p2align 4,,10
	.p2align 3
.L377:
	.loc 1 1412 0 discriminator 2
	vmulsd	(%rax,%rcx,8), %xmm0, %xmm0
.LVL1039:
	.loc 1 1411 0 discriminator 2
	addq	$1, %rcx
.LVL1040:
	cmpq	%rbx, %rcx
	jne	.L377
.L376:
	.loc 1 1415 0
	vmovsd	%xmm0, 0(%r13)
	.loc 1 1416 0
	addq	$8, %rsp
	.cfi_remember_state
	.cfi_def_cfa_offset 40
	popq	%rbx
	.cfi_def_cfa_offset 32
.LVL1041:
	popq	%rbp
	.cfi_def_cfa_offset 24
.LVL1042:
	popq	%r12
	.cfi_def_cfa_offset 16
.LVL1043:
	popq	%r13
	.cfi_def_cfa_offset 8
.LVL1044:
	ret
.LVL1045:
.L378:
	.cfi_restore_state
	.loc 1 1397 0
	vmovsd	.LC0(%rip), %xmm0
	.loc 1 1400 0
	xorl	%ecx, %ecx
	jmp	.L374
	.cfi_endproc
.LFE63:
	.size	unroll7aa_combine, .-unroll7aa_combine
	.p2align 4,,15
	.globl	unroll8aa_combine
	.type	unroll8aa_combine, @function
unroll8aa_combine:
.LFB64:
	.loc 1 1420 0
	.cfi_startproc
.LVL1046:
	pushq	%r13
	.cfi_def_cfa_offset 16
	.cfi_offset 13, -16
	movq	%rsi, %r13
	pushq	%r12
	.cfi_def_cfa_offset 24
	.cfi_offset 12, -24
	movq	%rdi, %r12
	pushq	%rbp
	.cfi_def_cfa_offset 32
	.cfi_offset 6, -32
	pushq	%rbx
	.cfi_def_cfa_offset 40
	.cfi_offset 3, -40
	subq	$8, %rsp
	.cfi_def_cfa_offset 48
	.loc 1 1422 0
	call	vec_length
.LVL1047:
	.loc 1 1423 0
	leaq	-7(%rax), %rbp
	.loc 1 1424 0
	movq	%r12, %rdi
	.loc 1 1422 0
	movq	%rax, %rbx
.LVL1048:
	.loc 1 1424 0
	call	get_vec_start
.LVL1049:
	.loc 1 1428 0
	testq	%rbp, %rbp
	jle	.L386
	.loc 1 1425 0
	vmovsd	.LC0(%rip), %xmm0
	movq	%rax, %rdx
	.loc 1 1428 0
	xorl	%ecx, %ecx
.LVL1050:
	.p2align 4,,10
	.p2align 3
.L383:
.LBB18:
	.loc 1 1429 0 discriminator 2
	vmovsd	(%rdx), %xmm2
.LBE18:
	.loc 1 1428 0 discriminator 2
	addq	$8, %rcx
.LVL1051:
.LBB19:
	.loc 1 1430 0 discriminator 2
	vmovsd	16(%rdx), %xmm1
	addq	$64, %rdx
.LVL1052:
	.loc 1 1429 0 discriminator 2
	vmulsd	-56(%rdx), %xmm2, %xmm2
.LVL1053:
	.loc 1 1430 0 discriminator 2
	vmulsd	-40(%rdx), %xmm1, %xmm1
.LVL1054:
	.loc 1 1432 0 discriminator 2
	vmovsd	-32(%rdx), %xmm3
	vmulsd	-24(%rdx), %xmm3, %xmm3
	.loc 1 1431 0 discriminator 2
	vmulsd	%xmm1, %xmm2, %xmm2
	.loc 1 1433 0 discriminator 2
	vmovsd	-16(%rdx), %xmm1
	vmulsd	-8(%rdx), %xmm1, %xmm1
.LBE19:
	.loc 1 1428 0 discriminator 2
	cmpq	%rcx, %rbp
.LBB20:
	.loc 1 1434 0 discriminator 2
	vmulsd	%xmm1, %xmm3, %xmm1
	.loc 1 1435 0 discriminator 2
	vmulsd	%xmm1, %xmm2, %xmm1
	vmulsd	%xmm1, %xmm0, %xmm0
.LVL1055:
.LBE20:
	.loc 1 1428 0 discriminator 2
	jg	.L383
	leaq	-8(%rbx), %rdx
.LVL1056:
	shrq	$3, %rdx
	leaq	8(,%rdx,8), %rdx
.LVL1057:
.L381:
	.loc 1 1439 0 discriminator 1
	cmpq	%rdx, %rbx
	jle	.L384
	.p2align 4,,10
	.p2align 3
.L385:
	.loc 1 1440 0 discriminator 2
	vmulsd	(%rax,%rdx,8), %xmm0, %xmm0
.LVL1058:
	.loc 1 1439 0 discriminator 2
	addq	$1, %rdx
.LVL1059:
	cmpq	%rbx, %rdx
	jne	.L385
.L384:
	.loc 1 1443 0
	vmovsd	%xmm0, 0(%r13)
	.loc 1 1444 0
	addq	$8, %rsp
	.cfi_remember_state
	.cfi_def_cfa_offset 40
	popq	%rbx
	.cfi_def_cfa_offset 32
.LVL1060:
	popq	%rbp
	.cfi_def_cfa_offset 24
.LVL1061:
	popq	%r12
	.cfi_def_cfa_offset 16
.LVL1062:
	popq	%r13
	.cfi_def_cfa_offset 8
.LVL1063:
	ret
.LVL1064:
.L386:
	.cfi_restore_state
	.loc 1 1425 0
	vmovsd	.LC0(%rip), %xmm0
	.loc 1 1428 0
	xorl	%edx, %edx
	jmp	.L381
	.cfi_endproc
.LFE64:
	.size	unroll8aa_combine, .-unroll8aa_combine
	.p2align 4,,15
	.globl	unroll9aa_combine
	.type	unroll9aa_combine, @function
unroll9aa_combine:
.LFB65:
	.loc 1 1448 0
	.cfi_startproc
.LVL1065:
	pushq	%r13
	.cfi_def_cfa_offset 16
	.cfi_offset 13, -16
	movq	%rsi, %r13
	pushq	%r12
	.cfi_def_cfa_offset 24
	.cfi_offset 12, -24
	movq	%rdi, %r12
	pushq	%rbp
	.cfi_def_cfa_offset 32
	.cfi_offset 6, -32
	pushq	%rbx
	.cfi_def_cfa_offset 40
	.cfi_offset 3, -40
	subq	$8, %rsp
	.cfi_def_cfa_offset 48
	.loc 1 1450 0
	call	vec_length
.LVL1066:
	.loc 1 1451 0
	leaq	-8(%rax), %rbp
	.loc 1 1452 0
	movq	%r12, %rdi
	.loc 1 1450 0
	movq	%rax, %rbx
.LVL1067:
	.loc 1 1452 0
	call	get_vec_start
.LVL1068:
	.loc 1 1456 0
	testq	%rbp, %rbp
	jle	.L393
	.loc 1 1453 0
	vmovsd	.LC0(%rip), %xmm0
	movq	%rax, %rdx
	.loc 1 1456 0
	xorl	%ecx, %ecx
.LVL1069:
	.p2align 4,,10
	.p2align 3
.L390:
.LBB21:
	.loc 1 1457 0 discriminator 2
	vmovsd	(%rdx), %xmm2
.LBE21:
	.loc 1 1456 0 discriminator 2
	addq	$9, %rcx
.LVL1070:
.LBB22:
	.loc 1 1458 0 discriminator 2
	vmovsd	16(%rdx), %xmm1
	addq	$72, %rdx
.LVL1071:
	.loc 1 1457 0 discriminator 2
	vmulsd	-64(%rdx), %xmm2, %xmm2
.LVL1072:
	.loc 1 1458 0 discriminator 2
	vmulsd	-48(%rdx), %xmm1, %xmm1
.LVL1073:
	.loc 1 1460 0 discriminator 2
	vmovsd	-40(%rdx), %xmm3
	vmulsd	-32(%rdx), %xmm3, %xmm3
	.loc 1 1459 0 discriminator 2
	vmulsd	%xmm1, %xmm2, %xmm1
	.loc 1 1461 0 discriminator 2
	vmovsd	-24(%rdx), %xmm2
	vmulsd	-16(%rdx), %xmm2, %xmm2
	.loc 1 1463 0 discriminator 2
	vmulsd	%xmm2, %xmm3, %xmm2
	vmulsd	-8(%rdx), %xmm2, %xmm2
.LBE22:
	.loc 1 1456 0 discriminator 2
	cmpq	%rcx, %rbp
.LBB23:
	.loc 1 1464 0 discriminator 2
	vmulsd	%xmm2, %xmm1, %xmm1
	vmulsd	%xmm1, %xmm0, %xmm0
.LVL1074:
.LBE23:
	.loc 1 1456 0 discriminator 2
	jg	.L390
.LVL1075:
.L389:
	.loc 1 1468 0 discriminator 1
	cmpq	%rcx, %rbx
	jle	.L391
	.p2align 4,,10
	.p2align 3
.L392:
	.loc 1 1469 0 discriminator 2
	vmulsd	(%rax,%rcx,8), %xmm0, %xmm0
.LVL1076:
	.loc 1 1468 0 discriminator 2
	addq	$1, %rcx
.LVL1077:
	cmpq	%rbx, %rcx
	jne	.L392
.L391:
	.loc 1 1472 0
	vmovsd	%xmm0, 0(%r13)
	.loc 1 1473 0
	addq	$8, %rsp
	.cfi_remember_state
	.cfi_def_cfa_offset 40
	popq	%rbx
	.cfi_def_cfa_offset 32
.LVL1078:
	popq	%rbp
	.cfi_def_cfa_offset 24
.LVL1079:
	popq	%r12
	.cfi_def_cfa_offset 16
.LVL1080:
	popq	%r13
	.cfi_def_cfa_offset 8
.LVL1081:
	ret
.LVL1082:
.L393:
	.cfi_restore_state
	.loc 1 1453 0
	vmovsd	.LC0(%rip), %xmm0
	.loc 1 1456 0
	xorl	%ecx, %ecx
	jmp	.L389
	.cfi_endproc
.LFE65:
	.size	unroll9aa_combine, .-unroll9aa_combine
	.p2align 4,,15
	.globl	unroll10aa_combine
	.type	unroll10aa_combine, @function
unroll10aa_combine:
.LFB66:
	.loc 1 1477 0
	.cfi_startproc
.LVL1083:
	pushq	%r13
	.cfi_def_cfa_offset 16
	.cfi_offset 13, -16
	movq	%rsi, %r13
	pushq	%r12
	.cfi_def_cfa_offset 24
	.cfi_offset 12, -24
	movq	%rdi, %r12
	pushq	%rbp
	.cfi_def_cfa_offset 32
	.cfi_offset 6, -32
	pushq	%rbx
	.cfi_def_cfa_offset 40
	.cfi_offset 3, -40
	subq	$8, %rsp
	.cfi_def_cfa_offset 48
	.loc 1 1479 0
	call	vec_length
.LVL1084:
	.loc 1 1480 0
	leaq	-9(%rax), %rbp
	.loc 1 1481 0
	movq	%r12, %rdi
	.loc 1 1479 0
	movq	%rax, %rbx
.LVL1085:
	.loc 1 1481 0
	call	get_vec_start
.LVL1086:
	.loc 1 1485 0
	testq	%rbp, %rbp
	jle	.L400
	.loc 1 1482 0
	vmovsd	.LC0(%rip), %xmm0
	movq	%rax, %rdx
	.loc 1 1485 0
	xorl	%ecx, %ecx
.LVL1087:
	.p2align 4,,10
	.p2align 3
.L397:
.LBB24:
	.loc 1 1486 0 discriminator 2
	vmovsd	(%rdx), %xmm2
.LBE24:
	.loc 1 1485 0 discriminator 2
	addq	$10, %rcx
.LVL1088:
.LBB25:
	.loc 1 1487 0 discriminator 2
	vmovsd	16(%rdx), %xmm1
	addq	$80, %rdx
.LVL1089:
	.loc 1 1486 0 discriminator 2
	vmulsd	-72(%rdx), %xmm2, %xmm2
.LVL1090:
	.loc 1 1487 0 discriminator 2
	vmulsd	-56(%rdx), %xmm1, %xmm1
.LVL1091:
	.loc 1 1489 0 discriminator 2
	vmovsd	-48(%rdx), %xmm3
	vmulsd	-40(%rdx), %xmm3, %xmm3
	.loc 1 1488 0 discriminator 2
	vmulsd	%xmm1, %xmm2, %xmm2
	.loc 1 1490 0 discriminator 2
	vmovsd	-32(%rdx), %xmm1
	vmulsd	-24(%rdx), %xmm1, %xmm1
	.loc 1 1492 0 discriminator 2
	vmulsd	%xmm1, %xmm3, %xmm1
	.loc 1 1491 0 discriminator 2
	vmovsd	-16(%rdx), %xmm3
	vmulsd	-8(%rdx), %xmm3, %xmm3
.LBE25:
	.loc 1 1485 0 discriminator 2
	cmpq	%rcx, %rbp
.LBB26:
	.loc 1 1492 0 discriminator 2
	vmulsd	%xmm3, %xmm1, %xmm1
	.loc 1 1493 0 discriminator 2
	vmulsd	%xmm1, %xmm2, %xmm1
	vmulsd	%xmm1, %xmm0, %xmm0
.LVL1092:
.LBE26:
	.loc 1 1485 0 discriminator 2
	jg	.L397
.LVL1093:
.L396:
	.loc 1 1497 0 discriminator 1
	cmpq	%rcx, %rbx
	jle	.L398
	.p2align 4,,10
	.p2align 3
.L399:
	.loc 1 1498 0 discriminator 2
	vmulsd	(%rax,%rcx,8), %xmm0, %xmm0
.LVL1094:
	.loc 1 1497 0 discriminator 2
	addq	$1, %rcx
.LVL1095:
	cmpq	%rbx, %rcx
	jne	.L399
.L398:
	.loc 1 1501 0
	vmovsd	%xmm0, 0(%r13)
	.loc 1 1502 0
	addq	$8, %rsp
	.cfi_remember_state
	.cfi_def_cfa_offset 40
	popq	%rbx
	.cfi_def_cfa_offset 32
.LVL1096:
	popq	%rbp
	.cfi_def_cfa_offset 24
.LVL1097:
	popq	%r12
	.cfi_def_cfa_offset 16
.LVL1098:
	popq	%r13
	.cfi_def_cfa_offset 8
.LVL1099:
	ret
.LVL1100:
.L400:
	.cfi_restore_state
	.loc 1 1482 0
	vmovsd	.LC0(%rip), %xmm0
	.loc 1 1485 0
	xorl	%ecx, %ecx
	jmp	.L396
	.cfi_endproc
.LFE66:
	.size	unroll10aa_combine, .-unroll10aa_combine
	.p2align 4,,15
	.globl	unroll12aa_combine
	.type	unroll12aa_combine, @function
unroll12aa_combine:
.LFB67:
	.loc 1 1507 0
	.cfi_startproc
.LVL1101:
	pushq	%r13
	.cfi_def_cfa_offset 16
	.cfi_offset 13, -16
	movq	%rsi, %r13
	pushq	%r12
	.cfi_def_cfa_offset 24
	.cfi_offset 12, -24
	movq	%rdi, %r12
	pushq	%rbp
	.cfi_def_cfa_offset 32
	.cfi_offset 6, -32
	pushq	%rbx
	.cfi_def_cfa_offset 40
	.cfi_offset 3, -40
	subq	$8, %rsp
	.cfi_def_cfa_offset 48
	.loc 1 1509 0
	call	vec_length
.LVL1102:
	.loc 1 1510 0
	leaq	-11(%rax), %rbp
	.loc 1 1511 0
	movq	%r12, %rdi
	.loc 1 1509 0
	movq	%rax, %rbx
.LVL1103:
	.loc 1 1511 0
	call	get_vec_start
.LVL1104:
	.loc 1 1515 0
	testq	%rbp, %rbp
	jle	.L407
	.loc 1 1512 0
	vmovsd	.LC0(%rip), %xmm0
	movq	%rax, %rdx
	.loc 1 1515 0
	xorl	%ecx, %ecx
.LVL1105:
	.p2align 4,,10
	.p2align 3
.L404:
.LBB27:
	.loc 1 1516 0 discriminator 2
	vmovsd	(%rdx), %xmm2
.LBE27:
	.loc 1 1515 0 discriminator 2
	addq	$12, %rcx
.LVL1106:
.LBB28:
	.loc 1 1517 0 discriminator 2
	vmovsd	16(%rdx), %xmm1
	addq	$96, %rdx
.LVL1107:
	.loc 1 1516 0 discriminator 2
	vmulsd	-88(%rdx), %xmm2, %xmm2
.LVL1108:
	.loc 1 1517 0 discriminator 2
	vmulsd	-72(%rdx), %xmm1, %xmm1
.LVL1109:
	.loc 1 1519 0 discriminator 2
	vmovsd	-64(%rdx), %xmm3
	vmulsd	-56(%rdx), %xmm3, %xmm3
	.loc 1 1518 0 discriminator 2
	vmulsd	%xmm1, %xmm2, %xmm2
	.loc 1 1520 0 discriminator 2
	vmovsd	-48(%rdx), %xmm1
	vmulsd	-40(%rdx), %xmm1, %xmm1
	.loc 1 1521 0 discriminator 2
	vmulsd	%xmm1, %xmm3, %xmm1
	.loc 1 1522 0 discriminator 2
	vmovsd	-32(%rdx), %xmm3
	vmulsd	-24(%rdx), %xmm3, %xmm3
	.loc 1 1525 0 discriminator 2
	vmulsd	%xmm1, %xmm2, %xmm2
	.loc 1 1523 0 discriminator 2
	vmovsd	-16(%rdx), %xmm1
	vmulsd	-8(%rdx), %xmm1, %xmm1
.LBE28:
	.loc 1 1515 0 discriminator 2
	cmpq	%rcx, %rbp
.LBB29:
	.loc 1 1524 0 discriminator 2
	vmulsd	%xmm1, %xmm3, %xmm1
	.loc 1 1525 0 discriminator 2
	vmulsd	%xmm1, %xmm2, %xmm1
	vmulsd	%xmm1, %xmm0, %xmm0
.LVL1110:
.LBE29:
	.loc 1 1515 0 discriminator 2
	jg	.L404
.LVL1111:
.L403:
	.loc 1 1529 0 discriminator 1
	cmpq	%rcx, %rbx
	jle	.L405
	.p2align 4,,10
	.p2align 3
.L406:
	.loc 1 1530 0 discriminator 2
	vmulsd	(%rax,%rcx,8), %xmm0, %xmm0
.LVL1112:
	.loc 1 1529 0 discriminator 2
	addq	$1, %rcx
.LVL1113:
	cmpq	%rbx, %rcx
	jne	.L406
.L405:
	.loc 1 1533 0
	vmovsd	%xmm0, 0(%r13)
	.loc 1 1534 0
	addq	$8, %rsp
	.cfi_remember_state
	.cfi_def_cfa_offset 40
	popq	%rbx
	.cfi_def_cfa_offset 32
.LVL1114:
	popq	%rbp
	.cfi_def_cfa_offset 24
.LVL1115:
	popq	%r12
	.cfi_def_cfa_offset 16
.LVL1116:
	popq	%r13
	.cfi_def_cfa_offset 8
.LVL1117:
	ret
.LVL1118:
.L407:
	.cfi_restore_state
	.loc 1 1512 0
	vmovsd	.LC0(%rip), %xmm0
	.loc 1 1515 0
	xorl	%ecx, %ecx
	jmp	.L403
	.cfi_endproc
.LFE67:
	.size	unroll12aa_combine, .-unroll12aa_combine
	.p2align 4,,15
	.globl	simd_v1_combine
	.type	simd_v1_combine, @function
simd_v1_combine:
.LFB68:
	.loc 1 1561 0
	.cfi_startproc
.LVL1119:
	pushq	%rbp
	.cfi_def_cfa_offset 16
	.cfi_offset 6, -16
	movq	%rsp, %rbp
	.cfi_def_cfa_register 6
	pushq	%r13
	.cfi_offset 13, -24
	movq	%rsi, %r13
	pushq	%r12
	.cfi_offset 12, -32
	movq	%rdi, %r12
	pushq	%rbx
	andq	$-32, %rsp
	subq	$32, %rsp
	.cfi_offset 3, -40
	.loc 1 1565 0
	call	get_vec_start
.LVL1120:
	.loc 1 1566 0
	movq	%r12, %rdi
	.loc 1 1565 0
	movq	%rax, %rbx
.LVL1121:
	.loc 1 1566 0
	call	vec_length
.LVL1122:
	.loc 1 1571 0
	vmovsd	.LC0(%rip), %xmm0
	.loc 1 1576 0
	testb	$31, %bl
	.loc 1 1566 0
	movl	%eax, %edx
.LVL1123:
	.loc 1 1571 0
	vmovsd	%xmm0, (%rsp)
.LVL1124:
	vmovsd	%xmm0, 8(%rsp)
.LVL1125:
	vmovsd	%xmm0, 16(%rsp)
.LVL1126:
	vmovsd	%xmm0, 24(%rsp)
.LVL1127:
	.loc 1 1572 0
	vmovapd	(%rsp), %ymm1
.LVL1128:
	.loc 1 1576 0
	je	.L410
	testl	%eax, %eax
	jne	.L415
	jmp	.L418
.LVL1129:
	.p2align 4,,10
	.p2align 3
.L412:
	.loc 1 1576 0 is_stmt 0 discriminator 2
	testl	%edx, %edx
	je	.L418
.LVL1130:
.L415:
	.loc 1 1577 0 is_stmt 1
	addq	$8, %rbx
.LVL1131:
	.loc 1 1578 0
	subl	$1, %edx
	.loc 1 1577 0
	vmulsd	-8(%rbx), %xmm0, %xmm0
.LVL1132:
	.loc 1 1576 0
	testb	$31, %bl
	jne	.L412
.LVL1133:
.L410:
	.loc 1 1582 0 discriminator 1
	cmpl	$3, %edx
	jbe	.L414
	.loc 1 1582 0 is_stmt 0
	movl	%edx, %ecx
	movq	%rbx, %rax
.LVL1134:
	.p2align 4,,10
	.p2align 3
.L417:
.LBB30:
	.loc 1 1586 0 is_stmt 1
	subl	$4, %ecx
	.loc 1 1584 0
	vmulpd	(%rax), %ymm1, %ymm1
.LVL1135:
	.loc 1 1585 0
	addq	$32, %rax
.LVL1136:
.LBE30:
	.loc 1 1582 0
	cmpl	$3, %ecx
	ja	.L417
	subl	$4, %edx
	movl	%edx, %ecx
.LVL1137:
	shrl	$2, %ecx
	movl	%ecx, %eax
.LVL1138:
	negl	%ecx
	addq	$1, %rax
	leal	(%rdx,%rcx,4), %edx
	salq	$5, %rax
	addq	%rax, %rbx
.L414:
.LVL1139:
	.loc 1 1590 0 discriminator 1
	testl	%edx, %edx
	je	.L418
	.p2align 4,,10
	.p2align 3
.L419:
	.loc 1 1591 0
	addq	$8, %rbx
.LVL1140:
	.loc 1 1590 0
	subl	$1, %edx
	.loc 1 1591 0
	vmulsd	-8(%rbx), %xmm0, %xmm0
.LVL1141:
	.loc 1 1590 0
	jne	.L419
.LVL1142:
.L418:
	.loc 1 1596 0
	vmovapd	%ymm1, (%rsp)
.LVL1143:
	.loc 1 1598 0
	vmulsd	(%rsp), %xmm0, %xmm0
.LVL1144:
	vmulsd	8(%rsp), %xmm0, %xmm0
.LVL1145:
	vmulsd	16(%rsp), %xmm0, %xmm0
.LVL1146:
	vmulsd	24(%rsp), %xmm0, %xmm0
.LVL1147:
	.loc 1 1601 0
	vmovsd	%xmm0, 0(%r13)
	vzeroupper
	.loc 1 1602 0
	leaq	-24(%rbp), %rsp
	popq	%rbx
.LVL1148:
	popq	%r12
.LVL1149:
	popq	%r13
.LVL1150:
	popq	%rbp
	.cfi_def_cfa 7, 8
	ret
	.cfi_endproc
.LFE68:
	.size	simd_v1_combine, .-simd_v1_combine
	.p2align 4,,15
	.globl	simd_v2_combine
	.type	simd_v2_combine, @function
simd_v2_combine:
.LFB69:
	.loc 1 1608 0
	.cfi_startproc
.LVL1151:
	pushq	%rbp
	.cfi_def_cfa_offset 16
	.cfi_offset 6, -16
	movq	%rsp, %rbp
	.cfi_def_cfa_register 6
	pushq	%r13
	.cfi_offset 13, -24
	movq	%rsi, %r13
	pushq	%r12
	.cfi_offset 12, -32
	movq	%rdi, %r12
	pushq	%rbx
	andq	$-32, %rsp
	subq	$32, %rsp
	.cfi_offset 3, -40
	.loc 1 1612 0
	call	get_vec_start
.LVL1152:
	.loc 1 1613 0
	movq	%r12, %rdi
	.loc 1 1612 0
	movq	%rax, %rbx
.LVL1153:
	.loc 1 1613 0
	call	vec_length
.LVL1154:
	.loc 1 1618 0
	vmovsd	.LC0(%rip), %xmm0
	.loc 1 1623 0
	testb	$31, %bl
	.loc 1 1613 0
	movl	%eax, %edx
.LVL1155:
	.loc 1 1618 0
	vmovsd	%xmm0, (%rsp)
.LVL1156:
	vmovsd	%xmm0, 8(%rsp)
.LVL1157:
	vmovsd	%xmm0, 16(%rsp)
.LVL1158:
	vmovsd	%xmm0, 24(%rsp)
.LVL1159:
	.loc 1 1619 0
	vmovapd	(%rsp), %ymm1
.LVL1160:
	.loc 1 1623 0
	je	.L433
	testl	%eax, %eax
	jne	.L438
	jmp	.L434
.LVL1161:
	.p2align 4,,10
	.p2align 3
.L435:
	.loc 1 1623 0 is_stmt 0 discriminator 2
	testl	%edx, %edx
	je	.L434
.LVL1162:
.L438:
	.loc 1 1624 0 is_stmt 1
	addq	$8, %rbx
.LVL1163:
	.loc 1 1625 0
	subl	$1, %edx
	.loc 1 1624 0
	vmulsd	-8(%rbx), %xmm0, %xmm0
.LVL1164:
	.loc 1 1623 0
	testb	$31, %bl
	jne	.L435
.LVL1165:
.L433:
	.loc 1 1628 0 discriminator 1
	cmpl	$7, %edx
	jbe	.L455
	.loc 1 1628 0 is_stmt 0
	vmovapd	%ymm1, %ymm2
	movl	%edx, %ecx
	movq	%rbx, %rax
.LVL1166:
	.p2align 4,,10
	.p2align 3
.L440:
.LBB31:
	.loc 1 1634 0 is_stmt 1
	subl	$8, %ecx
	.loc 1 1631 0
	vmulpd	(%rax), %ymm1, %ymm1
.LVL1167:
	.loc 1 1633 0
	addq	$64, %rax
.LVL1168:
	.loc 1 1632 0
	vmulpd	-32(%rax), %ymm2, %ymm2
.LVL1169:
.LBE31:
	.loc 1 1628 0
	cmpl	$7, %ecx
	ja	.L440
	subl	$8, %edx
	movl	%edx, %ecx
.LVL1170:
	shrl	$3, %ecx
	movl	%ecx, %eax
.LVL1171:
	negl	%ecx
	addq	$1, %rax
	leal	(%rdx,%rcx,8), %edx
	salq	$6, %rax
	addq	%rax, %rbx
.L437:
.LVL1172:
	.loc 1 1636 0 discriminator 1
	testl	%edx, %edx
	je	.L441
	.p2align 4,,10
	.p2align 3
.L442:
	.loc 1 1637 0
	addq	$8, %rbx
.LVL1173:
	.loc 1 1636 0
	subl	$1, %edx
	.loc 1 1637 0
	vmulsd	-8(%rbx), %xmm0, %xmm0
.LVL1174:
	.loc 1 1636 0
	jne	.L442
.LVL1175:
.L441:
	.loc 1 1640 0
	vmulpd	%ymm2, %ymm1, %ymm1
.LVL1176:
	vmovapd	%ymm1, (%rsp)
.LVL1177:
	.loc 1 1642 0
	vmulsd	(%rsp), %xmm0, %xmm0
.LVL1178:
	vmulsd	8(%rsp), %xmm0, %xmm0
.LVL1179:
	vmulsd	16(%rsp), %xmm0, %xmm0
.LVL1180:
	vmulsd	24(%rsp), %xmm0, %xmm0
.LVL1181:
	.loc 1 1643 0
	vmovsd	%xmm0, 0(%r13)
	vzeroupper
	.loc 1 1644 0
	leaq	-24(%rbp), %rsp
	popq	%rbx
	popq	%r12
.LVL1182:
	popq	%r13
.LVL1183:
	popq	%rbp
	.cfi_remember_state
	.cfi_def_cfa 7, 8
	ret
.LVL1184:
	.p2align 4,,10
	.p2align 3
.L434:
	.cfi_restore_state
	.loc 1 1614 0
	vmovapd	%ymm1, %ymm2
	jmp	.L441
.LVL1185:
.L455:
	.loc 1 1628 0
	vmovapd	%ymm1, %ymm2
	jmp	.L437
	.cfi_endproc
.LFE69:
	.size	simd_v2_combine, .-simd_v2_combine
	.p2align 4,,15
	.globl	simd_v4_combine
	.type	simd_v4_combine, @function
simd_v4_combine:
.LFB70:
	.loc 1 1648 0
	.cfi_startproc
.LVL1186:
	pushq	%rbp
	.cfi_def_cfa_offset 16
	.cfi_offset 6, -16
	movq	%rsp, %rbp
	.cfi_def_cfa_register 6
	pushq	%r13
	.cfi_offset 13, -24
	movq	%rsi, %r13
	pushq	%r12
	.cfi_offset 12, -32
	movq	%rdi, %r12
	pushq	%rbx
	andq	$-32, %rsp
	subq	$32, %rsp
	.cfi_offset 3, -40
	.loc 1 1651 0
	call	get_vec_start
.LVL1187:
	.loc 1 1652 0
	movq	%r12, %rdi
	.loc 1 1651 0
	movq	%rax, %rbx
.LVL1188:
	.loc 1 1652 0
	call	vec_length
.LVL1189:
	.loc 1 1658 0
	vmovsd	.LC0(%rip), %xmm0
	.loc 1 1663 0
	testb	$31, %bl
	.loc 1 1652 0
	movl	%eax, %edx
.LVL1190:
	.loc 1 1658 0
	vmovsd	%xmm0, (%rsp)
.LVL1191:
	vmovsd	%xmm0, 8(%rsp)
.LVL1192:
	vmovsd	%xmm0, 16(%rsp)
.LVL1193:
	vmovsd	%xmm0, 24(%rsp)
.LVL1194:
	.loc 1 1659 0
	vmovapd	(%rsp), %ymm1
.LVL1195:
	.loc 1 1663 0
	je	.L457
	testl	%eax, %eax
	jne	.L462
	jmp	.L458
.LVL1196:
	.p2align 4,,10
	.p2align 3
.L459:
	.loc 1 1663 0 is_stmt 0 discriminator 2
	testl	%edx, %edx
	je	.L458
.LVL1197:
.L462:
	.loc 1 1664 0 is_stmt 1
	addq	$8, %rbx
.LVL1198:
	.loc 1 1665 0
	subl	$1, %edx
	.loc 1 1664 0
	vmulsd	-8(%rbx), %xmm0, %xmm0
.LVL1199:
	.loc 1 1663 0
	testb	$31, %bl
	jne	.L459
.LVL1200:
.L457:
	.loc 1 1670 0 discriminator 1
	cmpl	$15, %edx
	jbe	.L479
	.loc 1 1670 0 is_stmt 0
	vmovapd	%ymm1, %ymm2
	vmovapd	%ymm1, %ymm3
	movl	%edx, %ecx
	vmovapd	%ymm1, %ymm4
	movq	%rbx, %rax
.LVL1201:
	.p2align 4,,10
	.p2align 3
.L464:
.LBB32:
	.loc 1 1680 0 is_stmt 1
	subl	$16, %ecx
	.loc 1 1675 0
	vmulpd	(%rax), %ymm1, %ymm1
.LVL1202:
	.loc 1 1679 0
	subq	$-128, %rax
.LVL1203:
	.loc 1 1676 0
	vmulpd	-96(%rax), %ymm4, %ymm4
.LVL1204:
	.loc 1 1677 0
	vmulpd	-64(%rax), %ymm3, %ymm3
.LVL1205:
	.loc 1 1678 0
	vmulpd	-32(%rax), %ymm2, %ymm2
.LVL1206:
.LBE32:
	.loc 1 1670 0
	cmpl	$15, %ecx
	ja	.L464
	subl	$16, %edx
	movl	%edx, %ecx
.LVL1207:
	shrl	$4, %ecx
	movl	%ecx, %eax
.LVL1208:
	sall	$4, %ecx
	addq	$1, %rax
	subl	%ecx, %edx
	salq	$7, %rax
	addq	%rax, %rbx
.L461:
.LVL1209:
	.loc 1 1684 0 discriminator 1
	testl	%edx, %edx
	je	.L465
	.p2align 4,,10
	.p2align 3
.L466:
	.loc 1 1685 0
	addq	$8, %rbx
.LVL1210:
	.loc 1 1684 0
	subl	$1, %edx
	.loc 1 1685 0
	vmulsd	-8(%rbx), %xmm0, %xmm0
.LVL1211:
	.loc 1 1684 0
	jne	.L466
.LVL1212:
.L465:
	.loc 1 1691 0
	vmulpd	%ymm4, %ymm1, %ymm1
.LVL1213:
	vmulpd	%ymm2, %ymm3, %ymm2
.LVL1214:
	vmulpd	%ymm2, %ymm1, %ymm1
	vmovapd	%ymm1, (%rsp)
.LVL1215:
	.loc 1 1695 0
	vmulsd	(%rsp), %xmm0, %xmm0
.LVL1216:
	vmulsd	8(%rsp), %xmm0, %xmm0
.LVL1217:
	vmulsd	16(%rsp), %xmm0, %xmm0
.LVL1218:
	vmulsd	24(%rsp), %xmm0, %xmm0
.LVL1219:
	.loc 1 1697 0
	vmovsd	%xmm0, 0(%r13)
	vzeroupper
	.loc 1 1698 0
	leaq	-24(%rbp), %rsp
	popq	%rbx
	popq	%r12
.LVL1220:
	popq	%r13
.LVL1221:
	popq	%rbp
	.cfi_remember_state
	.cfi_def_cfa 7, 8
	ret
.LVL1222:
	.p2align 4,,10
	.p2align 3
.L458:
	.cfi_restore_state
	.loc 1 1653 0
	vmovapd	%ymm1, %ymm3
	vmovapd	%ymm1, %ymm4
	vmovapd	%ymm1, %ymm2
	jmp	.L465
.LVL1223:
.L479:
	.loc 1 1670 0
	vmovapd	%ymm1, %ymm2
	vmovapd	%ymm1, %ymm3
	vmovapd	%ymm1, %ymm4
	jmp	.L461
	.cfi_endproc
.LFE70:
	.size	simd_v4_combine, .-simd_v4_combine
	.p2align 4,,15
	.globl	simd_v8_combine
	.type	simd_v8_combine, @function
simd_v8_combine:
.LFB71:
	.loc 1 1702 0
	.cfi_startproc
.LVL1224:
	pushq	%rbp
	.cfi_def_cfa_offset 16
	.cfi_offset 6, -16
	movq	%rsp, %rbp
	.cfi_def_cfa_register 6
	pushq	%r13
	.cfi_offset 13, -24
	movq	%rsi, %r13
	pushq	%r12
	.cfi_offset 12, -32
	movq	%rdi, %r12
	pushq	%rbx
	andq	$-32, %rsp
	subq	$32, %rsp
	.cfi_offset 3, -40
	.loc 1 1706 0
	call	get_vec_start
.LVL1225:
	.loc 1 1707 0
	movq	%r12, %rdi
	.loc 1 1706 0
	movq	%rax, %rbx
.LVL1226:
	.loc 1 1707 0
	call	vec_length
.LVL1227:
	.loc 1 1712 0
	vmovsd	.LC0(%rip), %xmm0
	.loc 1 1723 0
	testb	$31, %bl
	.loc 1 1707 0
	movl	%eax, %ecx
.LVL1228:
	.loc 1 1712 0
	vmovsd	%xmm0, (%rsp)
.LVL1229:
	vmovsd	%xmm0, 8(%rsp)
.LVL1230:
	vmovsd	%xmm0, 16(%rsp)
.LVL1231:
	vmovsd	%xmm0, 24(%rsp)
.LVL1232:
	.loc 1 1713 0
	vmovapd	(%rsp), %ymm1
.LVL1233:
	.loc 1 1723 0
	je	.L481
	testl	%eax, %eax
	jne	.L486
	jmp	.L482
.LVL1234:
	.p2align 4,,10
	.p2align 3
.L483:
	.loc 1 1723 0 is_stmt 0 discriminator 2
	testl	%ecx, %ecx
	je	.L482
.LVL1235:
.L486:
	.loc 1 1724 0 is_stmt 1
	addq	$8, %rbx
.LVL1236:
	.loc 1 1725 0
	subl	$1, %ecx
	.loc 1 1724 0
	vmulsd	-8(%rbx), %xmm0, %xmm0
.LVL1237:
	.loc 1 1723 0
	testb	$31, %bl
	jne	.L483
.LVL1238:
.L481:
	.loc 1 1728 0 discriminator 1
	cmpl	$31, %ecx
	jbe	.L503
	.loc 1 1728 0 is_stmt 0
	vmovapd	%ymm1, %ymm2
	vmovapd	%ymm1, %ymm3
	movl	%ecx, %eax
	vmovapd	%ymm1, %ymm4
	vmovapd	%ymm1, %ymm5
	movq	%rbx, %rdx
	vmovapd	%ymm1, %ymm6
	vmovapd	%ymm1, %ymm7
	vmovapd	%ymm1, %ymm8
.LVL1239:
	.p2align 4,,10
	.p2align 3
.L488:
.LBB33:
	.loc 1 1746 0 is_stmt 1
	subl	$32, %eax
	.loc 1 1737 0
	vmulpd	(%rdx), %ymm1, %ymm1
.LVL1240:
	.loc 1 1745 0
	addq	$256, %rdx
.LVL1241:
	.loc 1 1738 0
	vmulpd	-224(%rdx), %ymm8, %ymm8
.LVL1242:
	.loc 1 1739 0
	vmulpd	-192(%rdx), %ymm7, %ymm7
.LVL1243:
	.loc 1 1740 0
	vmulpd	-160(%rdx), %ymm6, %ymm6
.LVL1244:
	.loc 1 1741 0
	vmulpd	-128(%rdx), %ymm5, %ymm5
.LVL1245:
	.loc 1 1742 0
	vmulpd	-96(%rdx), %ymm4, %ymm4
.LVL1246:
	.loc 1 1743 0
	vmulpd	-64(%rdx), %ymm3, %ymm3
.LVL1247:
	.loc 1 1744 0
	vmulpd	-32(%rdx), %ymm2, %ymm2
.LVL1248:
.LBE33:
	.loc 1 1728 0
	cmpl	$31, %eax
	ja	.L488
	subl	$32, %ecx
	movl	%ecx, %edx
.LVL1249:
	shrl	$5, %edx
	movl	%edx, %eax
.LVL1250:
	sall	$5, %edx
	addq	$1, %rax
	subl	%edx, %ecx
	salq	$8, %rax
	addq	%rax, %rbx
.L485:
.LVL1251:
	.loc 1 1748 0 discriminator 1
	testl	%ecx, %ecx
	je	.L489
	.p2align 4,,10
	.p2align 3
.L490:
	.loc 1 1749 0
	addq	$8, %rbx
.LVL1252:
	.loc 1 1748 0
	subl	$1, %ecx
	.loc 1 1749 0
	vmulsd	-8(%rbx), %xmm0, %xmm0
.LVL1253:
	.loc 1 1748 0
	jne	.L490
.LVL1254:
.L489:
	.loc 1 1752 0
	vmulpd	%ymm8, %ymm1, %ymm1
.LVL1255:
	vmulpd	%ymm6, %ymm7, %ymm6
.LVL1256:
	.loc 1 1753 0
	vmulpd	%ymm4, %ymm5, %ymm5
.LVL1257:
	vmulpd	%ymm2, %ymm3, %ymm3
.LVL1258:
	.loc 1 1752 0
	vmulpd	%ymm6, %ymm1, %ymm1
	.loc 1 1753 0
	vmulpd	%ymm5, %ymm1, %ymm4
.LVL1259:
	vmulpd	%ymm3, %ymm4, %ymm2
.LVL1260:
	vmovapd	%ymm2, (%rsp)
.LVL1261:
	.loc 1 1755 0
	vmulsd	(%rsp), %xmm0, %xmm0
.LVL1262:
	vmulsd	8(%rsp), %xmm0, %xmm0
.LVL1263:
	vmulsd	16(%rsp), %xmm0, %xmm0
.LVL1264:
	vmulsd	24(%rsp), %xmm0, %xmm0
.LVL1265:
	.loc 1 1756 0
	vmovsd	%xmm0, 0(%r13)
	vzeroupper
	.loc 1 1757 0
	leaq	-24(%rbp), %rsp
	popq	%rbx
	popq	%r12
.LVL1266:
	popq	%r13
.LVL1267:
	popq	%rbp
	.cfi_remember_state
	.cfi_def_cfa 7, 8
	ret
.LVL1268:
	.p2align 4,,10
	.p2align 3
.L482:
	.cfi_restore_state
	.loc 1 1708 0
	vmovapd	%ymm1, %ymm2
	vmovapd	%ymm1, %ymm3
	vmovapd	%ymm1, %ymm4
	vmovapd	%ymm1, %ymm5
	vmovapd	%ymm1, %ymm6
	vmovapd	%ymm1, %ymm7
	vmovapd	%ymm1, %ymm8
	jmp	.L489
.LVL1269:
.L503:
	.loc 1 1728 0
	vmovapd	%ymm1, %ymm2
	vmovapd	%ymm1, %ymm3
	vmovapd	%ymm1, %ymm4
	vmovapd	%ymm1, %ymm5
	vmovapd	%ymm1, %ymm6
	vmovapd	%ymm1, %ymm7
	vmovapd	%ymm1, %ymm8
	jmp	.L485
	.cfi_endproc
.LFE71:
	.size	simd_v8_combine, .-simd_v8_combine
	.p2align 4,,15
	.globl	simd_v10_combine
	.type	simd_v10_combine, @function
simd_v10_combine:
.LFB72:
	.loc 1 1761 0
	.cfi_startproc
.LVL1270:
	pushq	%rbp
	.cfi_def_cfa_offset 16
	.cfi_offset 6, -16
	movq	%rsp, %rbp
	.cfi_def_cfa_register 6
	pushq	%r13
	.cfi_offset 13, -24
	movq	%rsi, %r13
	pushq	%r12
	.cfi_offset 12, -32
	movq	%rdi, %r12
	pushq	%rbx
	andq	$-32, %rsp
	subq	$32, %rsp
	.cfi_offset 3, -40
	.loc 1 1765 0
	call	get_vec_start
.LVL1271:
	.loc 1 1766 0
	movq	%r12, %rdi
	.loc 1 1765 0
	movq	%rax, %rbx
.LVL1272:
	.loc 1 1766 0
	call	vec_length
.LVL1273:
	.loc 1 1771 0
	vmovsd	.LC0(%rip), %xmm0
	.loc 1 1784 0
	testb	$31, %bl
	.loc 1 1766 0
	movl	%eax, %edx
.LVL1274:
	.loc 1 1771 0
	vmovsd	%xmm0, (%rsp)
.LVL1275:
	vmovsd	%xmm0, 8(%rsp)
.LVL1276:
	vmovsd	%xmm0, 16(%rsp)
.LVL1277:
	vmovsd	%xmm0, 24(%rsp)
.LVL1278:
	.loc 1 1772 0
	vmovapd	(%rsp), %ymm1
.LVL1279:
	.loc 1 1784 0
	je	.L505
	testl	%eax, %eax
	jne	.L510
	jmp	.L506
.LVL1280:
	.p2align 4,,10
	.p2align 3
.L507:
	.loc 1 1784 0 is_stmt 0 discriminator 2
	testl	%edx, %edx
	je	.L506
.LVL1281:
.L510:
	.loc 1 1785 0 is_stmt 1
	addq	$8, %rbx
.LVL1282:
	.loc 1 1786 0
	subl	$1, %edx
	.loc 1 1785 0
	vmulsd	-8(%rbx), %xmm0, %xmm0
.LVL1283:
	.loc 1 1784 0
	testb	$31, %bl
	jne	.L507
.LVL1284:
.L505:
	.loc 1 1789 0 discriminator 1
	cmpl	$39, %edx
	movl	%edx, %eax
	vmovapd	%ymm1, %ymm2
	vmovapd	%ymm1, %ymm3
	vmovapd	%ymm1, %ymm4
	vmovapd	%ymm1, %ymm5
	vmovapd	%ymm1, %ymm6
	vmovapd	%ymm1, %ymm7
	vmovapd	%ymm1, %ymm8
	vmovapd	%ymm1, %ymm9
	vmovapd	%ymm1, %ymm10
	ja	.L512
	jmp	.L509
.LVL1285:
	.p2align 4,,10
	.p2align 3
.L527:
.LBB34:
	.loc 1 1811 0
	movl	%edx, %eax
.LVL1286:
.L512:
	leal	-40(%rax), %edx
	.loc 1 1800 0
	vmulpd	(%rbx), %ymm1, %ymm1
.LVL1287:
	.loc 1 1810 0
	addq	$320, %rbx
.LVL1288:
	.loc 1 1801 0
	vmulpd	-288(%rbx), %ymm10, %ymm10
.LVL1289:
	.loc 1 1802 0
	vmulpd	-256(%rbx), %ymm9, %ymm9
.LVL1290:
	.loc 1 1803 0
	vmulpd	-224(%rbx), %ymm8, %ymm8
.LVL1291:
	.loc 1 1804 0
	vmulpd	-192(%rbx), %ymm7, %ymm7
.LVL1292:
	.loc 1 1805 0
	vmulpd	-160(%rbx), %ymm6, %ymm6
.LVL1293:
	.loc 1 1806 0
	vmulpd	-128(%rbx), %ymm5, %ymm5
.LVL1294:
	.loc 1 1807 0
	vmulpd	-96(%rbx), %ymm4, %ymm4
.LVL1295:
	.loc 1 1808 0
	vmulpd	-64(%rbx), %ymm3, %ymm3
.LVL1296:
	.loc 1 1809 0
	vmulpd	-32(%rbx), %ymm2, %ymm2
.LVL1297:
.LBE34:
	.loc 1 1789 0
	cmpl	$39, %edx
	ja	.L527
.LVL1298:
.L509:
	.loc 1 1813 0 discriminator 1
	testl	%edx, %edx
	je	.L513
	.p2align 4,,10
	.p2align 3
.L514:
	.loc 1 1814 0
	addq	$8, %rbx
.LVL1299:
	.loc 1 1813 0
	subl	$1, %edx
	.loc 1 1814 0
	vmulsd	-8(%rbx), %xmm0, %xmm0
.LVL1300:
	.loc 1 1813 0
	jne	.L514
.LVL1301:
.L513:
	.loc 1 1817 0
	vmulpd	%ymm10, %ymm1, %ymm1
.LVL1302:
	vmulpd	%ymm8, %ymm9, %ymm8
.LVL1303:
	.loc 1 1818 0
	vmulpd	%ymm6, %ymm7, %ymm7
.LVL1304:
	vmulpd	%ymm4, %ymm5, %ymm5
.LVL1305:
	.loc 1 1817 0
	vmulpd	%ymm8, %ymm1, %ymm1
	.loc 1 1819 0
	vmulpd	%ymm2, %ymm3, %ymm3
.LVL1306:
	.loc 1 1818 0
	vmulpd	%ymm7, %ymm1, %ymm6
.LVL1307:
	vmulpd	%ymm5, %ymm6, %ymm4
.LVL1308:
	.loc 1 1819 0
	vmulpd	%ymm3, %ymm4, %ymm2
.LVL1309:
	vmovapd	%ymm2, (%rsp)
.LVL1310:
	.loc 1 1821 0
	vmulsd	(%rsp), %xmm0, %xmm0
.LVL1311:
	vmulsd	8(%rsp), %xmm0, %xmm0
.LVL1312:
	vmulsd	16(%rsp), %xmm0, %xmm0
.LVL1313:
	vmulsd	24(%rsp), %xmm0, %xmm0
.LVL1314:
	.loc 1 1822 0
	vmovsd	%xmm0, 0(%r13)
	vzeroupper
	.loc 1 1823 0
	leaq	-24(%rbp), %rsp
	popq	%rbx
	popq	%r12
.LVL1315:
	popq	%r13
.LVL1316:
	popq	%rbp
	.cfi_remember_state
	.cfi_def_cfa 7, 8
	ret
.LVL1317:
	.p2align 4,,10
	.p2align 3
.L506:
	.cfi_restore_state
	.loc 1 1767 0
	vmovapd	%ymm1, %ymm4
	vmovapd	%ymm1, %ymm5
	vmovapd	%ymm1, %ymm6
	vmovapd	%ymm1, %ymm7
	vmovapd	%ymm1, %ymm8
	vmovapd	%ymm1, %ymm9
	vmovapd	%ymm1, %ymm10
	vmovapd	%ymm1, %ymm3
	vmovapd	%ymm1, %ymm2
	jmp	.L513
	.cfi_endproc
.LFE72:
	.size	simd_v10_combine, .-simd_v10_combine
	.p2align 4,,15
	.globl	simd_v12_combine
	.type	simd_v12_combine, @function
simd_v12_combine:
.LFB73:
	.loc 1 1827 0
	.cfi_startproc
.LVL1318:
	pushq	%rbp
	.cfi_def_cfa_offset 16
	.cfi_offset 6, -16
	movq	%rsp, %rbp
	.cfi_def_cfa_register 6
	pushq	%r13
	.cfi_offset 13, -24
	movq	%rsi, %r13
	pushq	%r12
	.cfi_offset 12, -32
	movq	%rdi, %r12
	pushq	%rbx
	andq	$-32, %rsp
	subq	$32, %rsp
	.cfi_offset 3, -40
	.loc 1 1832 0
	call	get_vec_start
.LVL1319:
	.loc 1 1833 0
	movq	%r12, %rdi
	.loc 1 1832 0
	movq	%rax, %rbx
.LVL1320:
	.loc 1 1833 0
	call	vec_length
.LVL1321:
	.loc 1 1838 0
	vmovsd	.LC0(%rip), %xmm0
	.loc 1 1853 0
	testb	$31, %bl
	.loc 1 1833 0
	movl	%eax, %edx
.LVL1322:
	.loc 1 1838 0
	vmovsd	%xmm0, (%rsp)
.LVL1323:
	vmovsd	%xmm0, 8(%rsp)
.LVL1324:
	vmovsd	%xmm0, 16(%rsp)
.LVL1325:
	vmovsd	%xmm0, 24(%rsp)
.LVL1326:
	.loc 1 1839 0
	vmovapd	(%rsp), %ymm1
.LVL1327:
	.loc 1 1853 0
	je	.L530
	testl	%eax, %eax
	jne	.L535
	jmp	.L531
.LVL1328:
	.p2align 4,,10
	.p2align 3
.L532:
	.loc 1 1853 0 is_stmt 0 discriminator 2
	testl	%edx, %edx
	je	.L531
.LVL1329:
.L535:
	.loc 1 1854 0 is_stmt 1
	addq	$8, %rbx
.LVL1330:
	.loc 1 1855 0
	subl	$1, %edx
	.loc 1 1854 0
	vmulsd	-8(%rbx), %xmm0, %xmm0
.LVL1331:
	.loc 1 1853 0
	testb	$31, %bl
	jne	.L532
	movl	%edx, %eax
.LVL1332:
.L530:
	.loc 1 1858 0 discriminator 1
	cmpl	$47, %eax
	jbe	.L553
	.loc 1 1858 0 is_stmt 0
	vmovapd	%ymm1, %ymm12
	vmovapd	%ymm1, %ymm11
	movl	%eax, %edx
	vmovapd	%ymm1, %ymm10
	vmovapd	%ymm1, %ymm9
	vmovapd	%ymm1, %ymm8
	vmovapd	%ymm1, %ymm7
	vmovapd	%ymm1, %ymm6
	vmovapd	%ymm1, %ymm5
	vmovapd	%ymm1, %ymm4
	vmovapd	%ymm1, %ymm3
	vmovapd	%ymm1, %ymm2
.LVL1333:
	.p2align 4,,10
	.p2align 3
.L537:
.LBB35:
	.loc 1 1884 0 is_stmt 1
	subl	$48, %edx
	.loc 1 1871 0
	vmulpd	(%rbx), %ymm1, %ymm1
.LVL1334:
	.loc 1 1883 0
	addq	$384, %rbx
	.loc 1 1872 0
	vmulpd	-352(%rbx), %ymm2, %ymm2
.LVL1335:
	.loc 1 1873 0
	vmulpd	-320(%rbx), %ymm3, %ymm3
.LVL1336:
	.loc 1 1874 0
	vmulpd	-288(%rbx), %ymm4, %ymm4
.LVL1337:
	.loc 1 1875 0
	vmulpd	-256(%rbx), %ymm5, %ymm5
.LVL1338:
	.loc 1 1876 0
	vmulpd	-224(%rbx), %ymm6, %ymm6
.LVL1339:
	.loc 1 1877 0
	vmulpd	-192(%rbx), %ymm7, %ymm7
.LVL1340:
	.loc 1 1878 0
	vmulpd	-160(%rbx), %ymm8, %ymm8
.LVL1341:
	.loc 1 1879 0
	vmulpd	-128(%rbx), %ymm9, %ymm9
.LVL1342:
	.loc 1 1880 0
	vmulpd	-96(%rbx), %ymm10, %ymm10
.LVL1343:
	.loc 1 1881 0
	vmulpd	-64(%rbx), %ymm11, %ymm11
.LVL1344:
	.loc 1 1882 0
	vmulpd	-32(%rbx), %ymm12, %ymm12
.LVL1345:
.LBE35:
	.loc 1 1858 0
	cmpl	$47, %edx
	ja	.L537
.LVL1346:
.L534:
	.loc 1 1886 0 discriminator 1
	testl	%edx, %edx
	je	.L538
	.p2align 4,,10
	.p2align 3
.L539:
.LVL1347:
	.loc 1 1887 0
	addq	$8, %rbx
.LVL1348:
	.loc 1 1886 0
	subl	$1, %edx
	.loc 1 1887 0
	vmulsd	-8(%rbx), %xmm0, %xmm0
.LVL1349:
	.loc 1 1886 0
	jne	.L539
.LVL1350:
.L538:
	.loc 1 1890 0
	vmulpd	%ymm2, %ymm1, %ymm1
.LVL1351:
	vmulpd	%ymm4, %ymm3, %ymm3
.LVL1352:
	.loc 1 1891 0
	vmulpd	%ymm6, %ymm5, %ymm6
.LVL1353:
	vmulpd	%ymm8, %ymm7, %ymm8
.LVL1354:
	.loc 1 1890 0
	vmulpd	%ymm3, %ymm1, %ymm1
	.loc 1 1892 0
	vmulpd	%ymm10, %ymm9, %ymm10
.LVL1355:
	vmulpd	%ymm12, %ymm11, %ymm12
.LVL1356:
	.loc 1 1891 0
	vmulpd	%ymm6, %ymm1, %ymm5
.LVL1357:
	vmulpd	%ymm8, %ymm5, %ymm7
.LVL1358:
	.loc 1 1892 0
	vmulpd	%ymm10, %ymm7, %ymm9
.LVL1359:
	vmulpd	%ymm12, %ymm9, %ymm11
.LVL1360:
	vmovapd	%ymm11, (%rsp)
.LVL1361:
	.loc 1 1894 0
	vmulsd	(%rsp), %xmm0, %xmm0
.LVL1362:
	vmulsd	8(%rsp), %xmm0, %xmm0
.LVL1363:
	vmulsd	16(%rsp), %xmm0, %xmm0
.LVL1364:
	vmulsd	24(%rsp), %xmm0, %xmm0
.LVL1365:
	.loc 1 1895 0
	vmovsd	%xmm0, 0(%r13)
	vzeroupper
	.loc 1 1896 0
	leaq	-24(%rbp), %rsp
	popq	%rbx
	popq	%r12
.LVL1366:
	popq	%r13
.LVL1367:
	popq	%rbp
	.cfi_remember_state
	.cfi_def_cfa 7, 8
	ret
.LVL1368:
	.p2align 4,,10
	.p2align 3
.L531:
	.cfi_restore_state
	.loc 1 1858 0
	vmovapd	%ymm1, %ymm12
	vmovapd	%ymm1, %ymm11
	vmovapd	%ymm1, %ymm10
	vmovapd	%ymm1, %ymm9
	vmovapd	%ymm1, %ymm8
	vmovapd	%ymm1, %ymm7
	vmovapd	%ymm1, %ymm6
	vmovapd	%ymm1, %ymm5
	vmovapd	%ymm1, %ymm4
	vmovapd	%ymm1, %ymm3
	vmovapd	%ymm1, %ymm2
	jmp	.L538
.LVL1369:
.L553:
	vmovapd	%ymm1, %ymm12
	vmovapd	%ymm1, %ymm11
	vmovapd	%ymm1, %ymm10
	vmovapd	%ymm1, %ymm9
	vmovapd	%ymm1, %ymm8
	vmovapd	%ymm1, %ymm7
	vmovapd	%ymm1, %ymm6
	vmovapd	%ymm1, %ymm5
	vmovapd	%ymm1, %ymm4
	vmovapd	%ymm1, %ymm3
	vmovapd	%ymm1, %ymm2
	jmp	.L534
	.cfi_endproc
.LFE73:
	.size	simd_v12_combine, .-simd_v12_combine
	.p2align 4,,15
	.globl	simd_v2a_combine
	.type	simd_v2a_combine, @function
simd_v2a_combine:
.LFB74:
	.loc 1 1901 0
	.cfi_startproc
.LVL1370:
	pushq	%rbp
	.cfi_def_cfa_offset 16
	.cfi_offset 6, -16
	movq	%rsp, %rbp
	.cfi_def_cfa_register 6
	pushq	%r13
	.cfi_offset 13, -24
	movq	%rsi, %r13
	pushq	%r12
	.cfi_offset 12, -32
	movq	%rdi, %r12
	pushq	%rbx
	andq	$-32, %rsp
	subq	$32, %rsp
	.cfi_offset 3, -40
	.loc 1 1905 0
	call	get_vec_start
.LVL1371:
	.loc 1 1906 0
	movq	%r12, %rdi
	.loc 1 1905 0
	movq	%rax, %rbx
.LVL1372:
	.loc 1 1906 0
	call	vec_length
.LVL1373:
	.loc 1 1911 0
	vmovsd	.LC0(%rip), %xmm0
	.loc 1 1915 0
	testb	$31, %bl
	.loc 1 1906 0
	movl	%eax, %edx
.LVL1374:
	.loc 1 1911 0
	vmovsd	%xmm0, (%rsp)
.LVL1375:
	vmovsd	%xmm0, 8(%rsp)
.LVL1376:
	vmovsd	%xmm0, 16(%rsp)
.LVL1377:
	vmovsd	%xmm0, 24(%rsp)
.LVL1378:
	.loc 1 1912 0
	vmovapd	(%rsp), %ymm1
.LVL1379:
	.loc 1 1915 0
	je	.L555
	testl	%eax, %eax
	jne	.L560
	jmp	.L563
.LVL1380:
	.p2align 4,,10
	.p2align 3
.L557:
	.loc 1 1915 0 is_stmt 0 discriminator 2
	testl	%edx, %edx
	je	.L563
.LVL1381:
.L560:
	.loc 1 1916 0 is_stmt 1
	addq	$8, %rbx
.LVL1382:
	.loc 1 1917 0
	subl	$1, %edx
	.loc 1 1916 0
	vmulsd	-8(%rbx), %xmm0, %xmm0
.LVL1383:
	.loc 1 1915 0
	testb	$31, %bl
	jne	.L557
.LVL1384:
.L555:
	.loc 1 1920 0 discriminator 1
	cmpl	$7, %edx
	jbe	.L559
	.loc 1 1920 0 is_stmt 0
	movl	%edx, %ecx
	movq	%rbx, %rax
.LVL1385:
	.p2align 4,,10
	.p2align 3
.L562:
.LBB36:
	.loc 1 1923 0 is_stmt 1
	vmovapd	(%rax), %ymm2
	.loc 1 1925 0
	subl	$8, %ecx
	.loc 1 1924 0
	addq	$64, %rax
.LVL1386:
	.loc 1 1923 0
	vmulpd	-32(%rax), %ymm2, %ymm2
.LVL1387:
.LBE36:
	.loc 1 1920 0
	cmpl	$7, %ecx
.LBB37:
	.loc 1 1923 0
	vmulpd	%ymm2, %ymm1, %ymm1
.LVL1388:
.LBE37:
	.loc 1 1920 0
	ja	.L562
	subl	$8, %edx
	movl	%edx, %ecx
.LVL1389:
	shrl	$3, %ecx
	movl	%ecx, %eax
.LVL1390:
	negl	%ecx
	addq	$1, %rax
	leal	(%rdx,%rcx,8), %edx
	salq	$6, %rax
	addq	%rax, %rbx
.L559:
.LVL1391:
	.loc 1 1927 0 discriminator 1
	testl	%edx, %edx
	je	.L563
	.p2align 4,,10
	.p2align 3
.L564:
	.loc 1 1928 0
	addq	$8, %rbx
.LVL1392:
	.loc 1 1927 0
	subl	$1, %edx
	.loc 1 1928 0
	vmulsd	-8(%rbx), %xmm0, %xmm0
.LVL1393:
	.loc 1 1927 0
	jne	.L564
.LVL1394:
.L563:
	.loc 1 1931 0
	vmovapd	%ymm1, (%rsp)
.LVL1395:
	.loc 1 1933 0
	vmulsd	(%rsp), %xmm0, %xmm0
.LVL1396:
	vmulsd	8(%rsp), %xmm0, %xmm0
.LVL1397:
	vmulsd	16(%rsp), %xmm0, %xmm0
.LVL1398:
	vmulsd	24(%rsp), %xmm0, %xmm0
.LVL1399:
	.loc 1 1934 0
	vmovsd	%xmm0, 0(%r13)
	vzeroupper
	.loc 1 1935 0
	leaq	-24(%rbp), %rsp
	popq	%rbx
.LVL1400:
	popq	%r12
.LVL1401:
	popq	%r13
.LVL1402:
	popq	%rbp
	.cfi_def_cfa 7, 8
	ret
	.cfi_endproc
.LFE74:
	.size	simd_v2a_combine, .-simd_v2a_combine
	.p2align 4,,15
	.globl	simd_v4a_combine
	.type	simd_v4a_combine, @function
simd_v4a_combine:
.LFB75:
	.loc 1 1939 0
	.cfi_startproc
.LVL1403:
	pushq	%rbp
	.cfi_def_cfa_offset 16
	.cfi_offset 6, -16
	movq	%rsp, %rbp
	.cfi_def_cfa_register 6
	pushq	%r13
	.cfi_offset 13, -24
	movq	%rsi, %r13
	pushq	%r12
	.cfi_offset 12, -32
	movq	%rdi, %r12
	pushq	%rbx
	andq	$-32, %rsp
	subq	$32, %rsp
	.cfi_offset 3, -40
	.loc 1 1943 0
	call	get_vec_start
.LVL1404:
	.loc 1 1944 0
	movq	%r12, %rdi
	.loc 1 1943 0
	movq	%rax, %rbx
.LVL1405:
	.loc 1 1944 0
	call	vec_length
.LVL1406:
	.loc 1 1949 0
	vmovsd	.LC0(%rip), %xmm0
	.loc 1 1953 0
	testb	$31, %bl
	.loc 1 1944 0
	movl	%eax, %edx
.LVL1407:
	.loc 1 1949 0
	vmovsd	%xmm0, (%rsp)
.LVL1408:
	vmovsd	%xmm0, 8(%rsp)
.LVL1409:
	vmovsd	%xmm0, 16(%rsp)
.LVL1410:
	vmovsd	%xmm0, 24(%rsp)
.LVL1411:
	.loc 1 1950 0
	vmovapd	(%rsp), %ymm1
.LVL1412:
	.loc 1 1953 0
	je	.L578
	testl	%eax, %eax
	jne	.L583
	jmp	.L586
.LVL1413:
	.p2align 4,,10
	.p2align 3
.L580:
	.loc 1 1953 0 is_stmt 0 discriminator 2
	testl	%edx, %edx
	je	.L586
.LVL1414:
.L583:
	.loc 1 1954 0 is_stmt 1
	addq	$8, %rbx
.LVL1415:
	.loc 1 1955 0
	subl	$1, %edx
	.loc 1 1954 0
	vmulsd	-8(%rbx), %xmm0, %xmm0
.LVL1416:
	.loc 1 1953 0
	testb	$31, %bl
	jne	.L580
.LVL1417:
.L578:
	.loc 1 1959 0 discriminator 1
	cmpl	$15, %edx
	jbe	.L582
	.loc 1 1959 0 is_stmt 0
	movl	%edx, %ecx
	movq	%rbx, %rax
.LVL1418:
	.p2align 4,,10
	.p2align 3
.L585:
.LBB38:
	.loc 1 1965 0 is_stmt 1
	vmovapd	(%rax), %ymm3
	.loc 1 1967 0
	subl	$16, %ecx
	.loc 1 1966 0
	subq	$-128, %rax
.LVL1419:
	.loc 1 1965 0
	vmovapd	-64(%rax), %ymm2
	vmulpd	-96(%rax), %ymm3, %ymm3
.LVL1420:
	vmulpd	-32(%rax), %ymm2, %ymm2
.LBE38:
	.loc 1 1959 0
	cmpl	$15, %ecx
.LBB39:
	.loc 1 1965 0
	vmulpd	%ymm2, %ymm3, %ymm2
	.loc 1 1964 0
	vmulpd	%ymm2, %ymm1, %ymm1
.LVL1421:
.LBE39:
	.loc 1 1959 0
	ja	.L585
	subl	$16, %edx
	movl	%edx, %ecx
.LVL1422:
	shrl	$4, %ecx
	movl	%ecx, %eax
.LVL1423:
	sall	$4, %ecx
	addq	$1, %rax
	subl	%ecx, %edx
	salq	$7, %rax
	addq	%rax, %rbx
.L582:
.LVL1424:
	.loc 1 1971 0 discriminator 1
	testl	%edx, %edx
	je	.L586
	.p2align 4,,10
	.p2align 3
.L587:
	.loc 1 1972 0
	addq	$8, %rbx
.LVL1425:
	.loc 1 1971 0
	subl	$1, %edx
	.loc 1 1972 0
	vmulsd	-8(%rbx), %xmm0, %xmm0
.LVL1426:
	.loc 1 1971 0
	jne	.L587
.LVL1427:
.L586:
	.loc 1 1975 0
	vmovapd	%ymm1, (%rsp)
.LVL1428:
	.loc 1 1977 0
	vmulsd	(%rsp), %xmm0, %xmm0
.LVL1429:
	vmulsd	8(%rsp), %xmm0, %xmm0
.LVL1430:
	vmulsd	16(%rsp), %xmm0, %xmm0
.LVL1431:
	vmulsd	24(%rsp), %xmm0, %xmm0
.LVL1432:
	.loc 1 1978 0
	vmovsd	%xmm0, 0(%r13)
	vzeroupper
	.loc 1 1979 0
	leaq	-24(%rbp), %rsp
	popq	%rbx
.LVL1433:
	popq	%r12
.LVL1434:
	popq	%r13
.LVL1435:
	popq	%rbp
	.cfi_def_cfa 7, 8
	ret
	.cfi_endproc
.LFE75:
	.size	simd_v4a_combine, .-simd_v4a_combine
	.p2align 4,,15
	.globl	simd_v8a_combine
	.type	simd_v8a_combine, @function
simd_v8a_combine:
.LFB76:
	.loc 1 1983 0
	.cfi_startproc
.LVL1436:
	pushq	%rbp
	.cfi_def_cfa_offset 16
	.cfi_offset 6, -16
	movq	%rsp, %rbp
	.cfi_def_cfa_register 6
	pushq	%r13
	.cfi_offset 13, -24
	movq	%rsi, %r13
	pushq	%r12
	.cfi_offset 12, -32
	movq	%rdi, %r12
	pushq	%rbx
	andq	$-32, %rsp
	subq	$32, %rsp
	.cfi_offset 3, -40
	.loc 1 1987 0
	call	get_vec_start
.LVL1437:
	.loc 1 1988 0
	movq	%r12, %rdi
	.loc 1 1987 0
	movq	%rax, %rbx
.LVL1438:
	.loc 1 1988 0
	call	vec_length
.LVL1439:
	.loc 1 1993 0
	vmovsd	.LC0(%rip), %xmm0
	.loc 1 1997 0
	testb	$31, %bl
	.loc 1 1988 0
	movl	%eax, %ecx
.LVL1440:
	.loc 1 1993 0
	vmovsd	%xmm0, (%rsp)
.LVL1441:
	vmovsd	%xmm0, 8(%rsp)
.LVL1442:
	vmovsd	%xmm0, 16(%rsp)
.LVL1443:
	vmovsd	%xmm0, 24(%rsp)
.LVL1444:
	.loc 1 1994 0
	vmovapd	(%rsp), %ymm1
.LVL1445:
	.loc 1 1997 0
	je	.L601
	testl	%eax, %eax
	jne	.L606
	jmp	.L609
.LVL1446:
	.p2align 4,,10
	.p2align 3
.L603:
	.loc 1 1997 0 is_stmt 0 discriminator 2
	testl	%ecx, %ecx
	je	.L609
.LVL1447:
.L606:
	.loc 1 1998 0 is_stmt 1
	addq	$8, %rbx
.LVL1448:
	.loc 1 1999 0
	subl	$1, %ecx
	.loc 1 1998 0
	vmulsd	-8(%rbx), %xmm0, %xmm0
.LVL1449:
	.loc 1 1997 0
	testb	$31, %bl
	jne	.L603
.LVL1450:
.L601:
	.loc 1 2002 0 discriminator 1
	cmpl	$31, %ecx
	jbe	.L605
	.loc 1 2002 0 is_stmt 0
	movl	%ecx, %eax
	movq	%rbx, %rdx
.LVL1451:
	.p2align 4,,10
	.p2align 3
.L608:
.LBB40:
	.loc 1 2012 0 is_stmt 1
	vmovapd	(%rdx), %ymm3
	.loc 1 2016 0
	subl	$32, %eax
	.loc 1 2015 0
	addq	$256, %rdx
.LVL1452:
	.loc 1 2012 0
	vmovapd	-192(%rdx), %ymm2
	vmulpd	-224(%rdx), %ymm3, %ymm3
.LVL1453:
	.loc 1 2014 0
	vmovapd	-128(%rdx), %ymm4
	.loc 1 2012 0
	vmulpd	-160(%rdx), %ymm2, %ymm2
	.loc 1 2014 0
	vmulpd	-96(%rdx), %ymm4, %ymm4
	.loc 1 2012 0
	vmulpd	%ymm2, %ymm3, %ymm3
	.loc 1 2014 0
	vmovapd	-64(%rdx), %ymm2
	vmulpd	-32(%rdx), %ymm2, %ymm2
.LBE40:
	.loc 1 2002 0
	cmpl	$31, %eax
.LBB41:
	.loc 1 2014 0
	vmulpd	%ymm2, %ymm4, %ymm2
	.loc 1 2013 0
	vmulpd	%ymm2, %ymm3, %ymm2
	.loc 1 2011 0
	vmulpd	%ymm2, %ymm1, %ymm1
.LVL1454:
.LBE41:
	.loc 1 2002 0
	ja	.L608
	subl	$32, %ecx
	movl	%ecx, %edx
.LVL1455:
	shrl	$5, %edx
	movl	%edx, %eax
.LVL1456:
	sall	$5, %edx
	addq	$1, %rax
	subl	%edx, %ecx
	salq	$8, %rax
	addq	%rax, %rbx
.L605:
.LVL1457:
	.loc 1 2018 0 discriminator 1
	testl	%ecx, %ecx
	je	.L609
	.p2align 4,,10
	.p2align 3
.L610:
	.loc 1 2019 0
	addq	$8, %rbx
.LVL1458:
	.loc 1 2018 0
	subl	$1, %ecx
	.loc 1 2019 0
	vmulsd	-8(%rbx), %xmm0, %xmm0
.LVL1459:
	.loc 1 2018 0
	jne	.L610
.LVL1460:
.L609:
	.loc 1 2022 0
	vmovapd	%ymm1, (%rsp)
.LVL1461:
	.loc 1 2024 0
	vmulsd	(%rsp), %xmm0, %xmm0
.LVL1462:
	vmulsd	8(%rsp), %xmm0, %xmm0
.LVL1463:
	vmulsd	16(%rsp), %xmm0, %xmm0
.LVL1464:
	vmulsd	24(%rsp), %xmm0, %xmm0
.LVL1465:
	.loc 1 2025 0
	vmovsd	%xmm0, 0(%r13)
	vzeroupper
	.loc 1 2026 0
	leaq	-24(%rbp), %rsp
	popq	%rbx
.LVL1466:
	popq	%r12
.LVL1467:
	popq	%r13
.LVL1468:
	popq	%rbp
	.cfi_def_cfa 7, 8
	ret
	.cfi_endproc
.LFE76:
	.size	simd_v8a_combine, .-simd_v8a_combine
	.p2align 4,,15
	.globl	unroll4x2as_combine
	.type	unroll4x2as_combine, @function
unroll4x2as_combine:
.LFB53:
	.loc 1 1126 0
	.cfi_startproc
.LVL1469:
	pushq	%r13
	.cfi_def_cfa_offset 16
	.cfi_offset 13, -16
	movq	%rsi, %r13
	pushq	%r12
	.cfi_def_cfa_offset 24
	.cfi_offset 12, -24
	movq	%rdi, %r12
	pushq	%rbp
	.cfi_def_cfa_offset 32
	.cfi_offset 6, -32
	pushq	%rbx
	.cfi_def_cfa_offset 40
	.cfi_offset 3, -40
	subq	$8, %rsp
	.cfi_def_cfa_offset 48
	.loc 1 1128 0
	call	vec_length
.LVL1470:
	.loc 1 1129 0
	movq	%rax, %rbx
	.loc 1 1130 0
	movq	%r12, %rdi
	.loc 1 1128 0
	movq	%rax, %rbp
.LVL1471:
	.loc 1 1129 0
	shrq	$63, %rbx
	addq	%rax, %rbx
	sarq	%rbx
.LVL1472:
	.loc 1 1130 0
	call	get_vec_start
.LVL1473:
	.loc 1 1133 0
	vmovsd	.LC0(%rip), %xmm0
	.loc 1 1136 0
	testq	%rbx, %rbx
	.loc 1 1130 0
	movq	%rax, %rcx
.LVL1474:
	.loc 1 1131 0
	leaq	(%rax,%rbx,8), %rax
.LVL1475:
	.loc 1 1132 0
	vmovapd	%xmm0, %xmm1
	.loc 1 1136 0
	jle	.L624
	xorl	%edx, %edx
.LVL1476:
	.p2align 4,,10
	.p2align 3
.L625:
	.loc 1 1137 0 discriminator 2
	vmulsd	(%rcx,%rdx,8), %xmm1, %xmm1
.LVL1477:
	vmulsd	(%rax,%rdx,8), %xmm0, %xmm0
.LVL1478:
	.loc 1 1136 0 discriminator 2
	addq	$1, %rdx
.LVL1479:
	cmpq	%rbx, %rdx
	jne	.L625
.LVL1480:
.L624:
	.loc 1 1141 0
	leaq	(%rbx,%rbx), %rdx
.LVL1481:
	cmpq	%rdx, %rbp
	jle	.L626
	.p2align 4,,10
	.p2align 3
.L627:
	.loc 1 1142 0 discriminator 2
	vmulsd	(%rcx,%rdx,8), %xmm0, %xmm0
.LVL1482:
	.loc 1 1141 0 discriminator 2
	addq	$1, %rdx
.LVL1483:
	cmpq	%rbp, %rdx
	jne	.L627
.L626:
	.loc 1 1144 0
	vmulsd	%xmm0, %xmm1, %xmm0
.LVL1484:
	vmovsd	%xmm0, 0(%r13)
	.loc 1 1145 0
	addq	$8, %rsp
	.cfi_def_cfa_offset 40
	popq	%rbx
	.cfi_def_cfa_offset 32
.LVL1485:
	popq	%rbp
	.cfi_def_cfa_offset 24
.LVL1486:
	popq	%r12
	.cfi_def_cfa_offset 16
.LVL1487:
	popq	%r13
	.cfi_def_cfa_offset 8
.LVL1488:
	ret
	.cfi_endproc
.LFE53:
	.size	unroll4x2as_combine, .-unroll4x2as_combine
	.p2align 4,,15
	.globl	register_combiners
	.type	register_combiners, @function
register_combiners:
.LFB77:
	.loc 1 2030 0
	.cfi_startproc
	.loc 1 2032 0
	movl	$combine1, %esi
	.loc 1 2030 0
	subq	$8, %rsp
	.cfi_def_cfa_offset 16
	.loc 1 2032 0
	movl	$combine1_descr, %edx
	movq	%rsi, %rdi
	call	add_combiner
.LVL1489:
	.loc 1 2033 0
	movl	$combine2_descr, %edx
	movl	$combine1, %esi
	movl	$combine2, %edi
	call	add_combiner
.LVL1490:
	.loc 1 2034 0
	movl	$combine3_descr, %edx
	movl	$combine1, %esi
	movl	$combine3, %edi
	call	add_combiner
.LVL1491:
	.loc 1 2035 0
	movl	$combine3w_descr, %edx
	movl	$combine1, %esi
	movl	$combine3w, %edi
	call	add_combiner
.LVL1492:
	.loc 1 2037 0
	movl	$combine4_descr, %edx
	movl	$combine1, %esi
	movl	$combine4, %edi
	call	add_combiner
.LVL1493:
	.loc 1 2039 0
	movl	$combine4b_descr, %edx
	movl	$combine1, %esi
	movl	$combine4b, %edi
	call	add_combiner
.LVL1494:
	.loc 1 2040 0
	movl	$combine4p_descr, %edx
	movl	$combine1, %esi
	movl	$combine4p, %edi
	call	add_combiner
.LVL1495:
	.loc 1 2042 0
	movl	$combine5_descr, %edx
	movl	$combine1, %esi
	movl	$combine5, %edi
	call	add_combiner
.LVL1496:
	.loc 1 2044 0
	movl	$combine5p_descr, %edx
	movl	$combine1, %esi
	movl	$combine5p, %edi
	call	add_combiner
.LVL1497:
	.loc 1 2045 0
	movl	$unroll2aw_descr, %edx
	movl	$combine1, %esi
	movl	$unroll2aw_combine, %edi
	call	add_combiner
.LVL1498:
	.loc 1 2047 0
	movl	$unroll3a_descr, %edx
	movl	$combine1, %esi
	movl	$unroll3a_combine, %edi
	call	add_combiner
.LVL1499:
	.loc 1 2048 0
	movl	$unroll4a_descr, %edx
	movl	$combine1, %esi
	movl	$unroll4a_combine, %edi
	call	add_combiner
.LVL1500:
	.loc 1 2049 0
	movl	$unroll5a_descr, %edx
	movl	$combine1, %esi
	movl	$unroll5a_combine, %edi
	call	add_combiner
.LVL1501:
	.loc 1 2050 0
	movl	$unroll6a_descr, %edx
	movl	$combine1, %esi
	movl	$unroll6a_combine, %edi
	call	add_combiner
.LVL1502:
	.loc 1 2051 0
	movl	$unroll7a_descr, %edx
	movl	$combine1, %esi
	movl	$unroll7a_combine, %edi
	call	add_combiner
.LVL1503:
	.loc 1 2052 0
	movl	$unroll8a_descr, %edx
	movl	$combine1, %esi
	movl	$unroll8a_combine, %edi
	call	add_combiner
.LVL1504:
	.loc 1 2053 0
	movl	$unroll9a_descr, %edx
	movl	$combine1, %esi
	movl	$unroll9a_combine, %edi
	call	add_combiner
.LVL1505:
	.loc 1 2054 0
	movl	$unroll10a_descr, %edx
	movl	$combine1, %esi
	movl	$unroll10a_combine, %edi
	call	add_combiner
.LVL1506:
	.loc 1 2055 0
	movl	$unroll16a_descr, %edx
	movl	$combine1, %esi
	movl	$unroll16a_combine, %edi
	call	add_combiner
.LVL1507:
	.loc 1 2057 0
	movl	$unroll2_descr, %edx
	movl	$combine1, %esi
	movl	$unroll2_combine, %edi
	call	add_combiner
.LVL1508:
	.loc 1 2058 0
	movl	$unroll3_descr, %edx
	movl	$combine1, %esi
	movl	$unroll3_combine, %edi
	call	add_combiner
.LVL1509:
	.loc 1 2059 0
	movl	$unroll4_descr, %edx
	movl	$combine1, %esi
	movl	$unroll4_combine, %edi
	call	add_combiner
.LVL1510:
	.loc 1 2060 0
	movl	$unroll8_descr, %edx
	movl	$combine1, %esi
	movl	$unroll8_combine, %edi
	call	add_combiner
.LVL1511:
	.loc 1 2061 0
	movl	$unroll16_descr, %edx
	movl	$combine1, %esi
	movl	$unroll16_combine, %edi
	call	add_combiner
.LVL1512:
	.loc 1 2062 0
	movl	$combine6_descr, %edx
	movl	$combine1, %esi
	movl	$combine6, %edi
	call	add_combiner
.LVL1513:
	.loc 1 2063 0
	movl	$unroll4x2a_descr, %edx
	movl	$combine1, %esi
	movl	$unroll4x2a_combine, %edi
	call	add_combiner
.LVL1514:
	.loc 1 2064 0
	movl	$unroll8x2a_descr, %edx
	movl	$combine1, %esi
	movl	$unroll8x2a_combine, %edi
	call	add_combiner
.LVL1515:
	.loc 1 2065 0
	movl	$unroll3x3a_descr, %edx
	movl	$combine1, %esi
	movl	$unroll3x3a_combine, %edi
	call	add_combiner
.LVL1516:
	.loc 1 2066 0
	movl	$unroll4x4a_descr, %edx
	movl	$combine1, %esi
	movl	$unroll4x4a_combine, %edi
	call	add_combiner
.LVL1517:
	.loc 1 2067 0
	movl	$unroll5x5a_descr, %edx
	movl	$combine1, %esi
	movl	$unroll5x5a_combine, %edi
	call	add_combiner
.LVL1518:
	.loc 1 2068 0
	movl	$unroll6x6a_descr, %edx
	movl	$combine1, %esi
	movl	$unroll6x6a_combine, %edi
	call	add_combiner
.LVL1519:
	.loc 1 2069 0
	movl	$unroll7x7a_descr, %edx
	movl	$combine1, %esi
	movl	$unroll7x7a_combine, %edi
	call	add_combiner
.LVL1520:
	.loc 1 2070 0
	movl	$unroll8x4a_descr, %edx
	movl	$combine1, %esi
	movl	$unroll8x4a_combine, %edi
	call	add_combiner
.LVL1521:
	.loc 1 2071 0
	movl	$unroll8x8a_descr, %edx
	movl	$combine1, %esi
	movl	$unroll8x8a_combine, %edi
	call	add_combiner
.LVL1522:
	.loc 1 2072 0
	movl	$unroll9x9a_descr, %edx
	movl	$combine1, %esi
	movl	$unroll9x9a_combine, %edi
	call	add_combiner
.LVL1523:
	.loc 1 2073 0
	movl	$unroll10x10a_descr, %edx
	movl	$combine1, %esi
	movl	$unroll10x10a_combine, %edi
	call	add_combiner
.LVL1524:
	.loc 1 2074 0
	movl	$unroll12x6a_descr, %edx
	movl	$combine1, %esi
	movl	$unroll12x6a_combine, %edi
	call	add_combiner
.LVL1525:
	.loc 1 2075 0
	movl	$unroll12x12a_descr, %edx
	movl	$combine1, %esi
	movl	$unroll12x12a_combine, %edi
	call	add_combiner
.LVL1526:
	.loc 1 2076 0
	movl	$unroll16x16a_descr, %edx
	movl	$combine1, %esi
	movl	$unroll16x16a_combine, %edi
	call	add_combiner
.LVL1527:
	.loc 1 2077 0
	movl	$unroll20x20a_descr, %edx
	movl	$combine1, %esi
	movl	$unroll20x20a_combine, %edi
	call	add_combiner
.LVL1528:
	.loc 1 2078 0
	movl	$unroll8x2_descr, %edx
	movl	$combine1, %esi
	movl	$unroll8x2_combine, %edi
	call	add_combiner
.LVL1529:
	.loc 1 2079 0
	movl	$unroll8x4_descr, %edx
	movl	$combine1, %esi
	movl	$unroll8x4_combine, %edi
	call	add_combiner
.LVL1530:
	.loc 1 2080 0
	movl	$unroll8x8_descr, %edx
	movl	$combine1, %esi
	movl	$unroll8x8_combine, %edi
	call	add_combiner
.LVL1531:
	.loc 1 2081 0
	movl	$unroll9x3_descr, %edx
	movl	$combine1, %esi
	movl	$unroll9x3_combine, %edi
	call	add_combiner
.LVL1532:
	.loc 1 2082 0
	movl	$unrollx2as_descr, %edx
	movl	$combine1, %esi
	movl	$unrollx2as_combine, %edi
	call	add_combiner
.LVL1533:
	.loc 1 2083 0
	movl	$combine7_descr, %edx
	movl	$combine1, %esi
	movl	$combine7, %edi
	call	add_combiner
.LVL1534:
	.loc 1 2084 0
	movl	$unroll3aa_descr, %edx
	movl	$combine1, %esi
	movl	$unroll3aa_combine, %edi
	call	add_combiner
.LVL1535:
	.loc 1 2085 0
	movl	$unroll4aa_descr, %edx
	movl	$combine1, %esi
	movl	$unroll4aa_combine, %edi
	call	add_combiner
.LVL1536:
	.loc 1 2086 0
	movl	$unroll5aa_descr, %edx
	movl	$combine1, %esi
	movl	$unroll5aa_combine, %edi
	call	add_combiner
.LVL1537:
	.loc 1 2087 0
	movl	$unroll6aa_descr, %edx
	movl	$combine1, %esi
	movl	$unroll6aa_combine, %edi
	call	add_combiner
.LVL1538:
	.loc 1 2088 0
	movl	$unroll7aa_descr, %edx
	movl	$combine1, %esi
	movl	$unroll7aa_combine, %edi
	call	add_combiner
.LVL1539:
	.loc 1 2089 0
	movl	$unroll8aa_descr, %edx
	movl	$combine1, %esi
	movl	$unroll8aa_combine, %edi
	call	add_combiner
.LVL1540:
	.loc 1 2090 0
	movl	$unroll9aa_descr, %edx
	movl	$combine1, %esi
	movl	$unroll9aa_combine, %edi
	call	add_combiner
.LVL1541:
	.loc 1 2091 0
	movl	$unroll10aa_descr, %edx
	movl	$combine1, %esi
	movl	$unroll10aa_combine, %edi
	call	add_combiner
.LVL1542:
	.loc 1 2092 0
	movl	$unroll12aa_descr, %edx
	movl	$combine1, %esi
	movl	$unroll12aa_combine, %edi
	call	add_combiner
.LVL1543:
	.loc 1 2093 0
	movl	$simd_v1_descr, %edx
	movl	$combine1, %esi
	movl	$simd_v1_combine, %edi
	call	add_combiner
.LVL1544:
	.loc 1 2094 0
	movl	$simd_v2_descr, %edx
	movl	$combine1, %esi
	movl	$simd_v2_combine, %edi
	call	add_combiner
.LVL1545:
	.loc 1 2095 0
	movl	$simd_v4_descr, %edx
	movl	$combine1, %esi
	movl	$simd_v4_combine, %edi
	call	add_combiner
.LVL1546:
	.loc 1 2096 0
	movl	$simd_v8_descr, %edx
	movl	$combine1, %esi
	movl	$simd_v8_combine, %edi
	call	add_combiner
.LVL1547:
	.loc 1 2097 0
	movl	$simd_v10_descr, %edx
	movl	$combine1, %esi
	movl	$simd_v10_combine, %edi
	call	add_combiner
.LVL1548:
	.loc 1 2098 0
	movl	$simd_v12_descr, %edx
	movl	$combine1, %esi
	movl	$simd_v12_combine, %edi
	call	add_combiner
.LVL1549:
	.loc 1 2099 0
	movl	$simd_v2a_descr, %edx
	movl	$combine1, %esi
	movl	$simd_v2a_combine, %edi
	call	add_combiner
.LVL1550:
	.loc 1 2100 0
	movl	$simd_v4a_descr, %edx
	movl	$combine1, %esi
	movl	$simd_v4a_combine, %edi
	call	add_combiner
.LVL1551:
	.loc 1 2101 0
	movl	$simd_v8a_combine, %edi
	movl	$simd_v8a_descr, %edx
	movl	$combine1, %esi
	call	add_combiner
.LVL1552:
	.loc 1 2102 0
	vmovsd	.LC1(%rip), %xmm1
	movl	$simd_v8a_combine, %edi
	vmovsd	.LC2(%rip), %xmm0
	.loc 1 2104 0
	addq	$8, %rsp
	.cfi_def_cfa_offset 8
	.loc 1 2102 0
	jmp	log_combiner
.LVL1553:
	.cfi_endproc
.LFE77:
	.size	register_combiners, .-register_combiners
	.globl	simd_v8a_descr
	.data
	.align 32
	.type	simd_v8a_descr, @object
	.size	simd_v8a_descr, 57
simd_v8a_descr:
	.string	"simd_v8a: SSE code, 8*VSIZE-way parallelism, reassociate"
	.globl	simd_v4a_descr
	.align 32
	.type	simd_v4a_descr, @object
	.size	simd_v4a_descr, 57
simd_v4a_descr:
	.string	"simd_v4a: SSE code, 4*VSIZE-way parallelism, reassociate"
	.globl	simd_v2a_descr
	.align 32
	.type	simd_v2a_descr, @object
	.size	simd_v2a_descr, 57
simd_v2a_descr:
	.string	"simd_v2a: SSE code, 2*VSIZE-way parallelism, reassociate"
	.globl	simd_v12_descr
	.align 32
	.type	simd_v12_descr, @object
	.size	simd_v12_descr, 45
simd_v12_descr:
	.string	"simd_v12: SSE code, 12*VSIZE-way parallelism"
	.globl	simd_v10_descr
	.align 32
	.type	simd_v10_descr, @object
	.size	simd_v10_descr, 45
simd_v10_descr:
	.string	"simd_v10: SSE code, 10*VSIZE-way parallelism"
	.globl	simd_v8_descr
	.align 32
	.type	simd_v8_descr, @object
	.size	simd_v8_descr, 43
simd_v8_descr:
	.string	"simd_v8: SSE code, 8*VSIZE-way parallelism"
	.globl	simd_v4_descr
	.align 32
	.type	simd_v4_descr, @object
	.size	simd_v4_descr, 43
simd_v4_descr:
	.string	"simd_v4: SSE code, 4*VSIZE-way parallelism"
	.globl	simd_v2_descr
	.align 32
	.type	simd_v2_descr, @object
	.size	simd_v2_descr, 43
simd_v2_descr:
	.string	"simd_v2: SSE code, 2*VSIZE-way parallelism"
	.globl	simd_v1_descr
	.align 32
	.type	simd_v1_descr, @object
	.size	simd_v1_descr, 43
simd_v1_descr:
	.string	"simd_v1: SSE code, 1*VSIZE-way parallelism"
	.globl	unroll12aa_descr
	.align 32
	.type	unroll12aa_descr, @object
	.size	unroll12aa_descr, 64
unroll12aa_descr:
	.string	"unroll12aa: Array code, unrolled by 12, Different Associativity"
	.globl	unroll10aa_descr
	.align 32
	.type	unroll10aa_descr, @object
	.size	unroll10aa_descr, 64
unroll10aa_descr:
	.string	"unroll10aa: Array code, unrolled by 10, Different Associativity"
	.globl	unroll9aa_descr
	.align 32
	.type	unroll9aa_descr, @object
	.size	unroll9aa_descr, 62
unroll9aa_descr:
	.string	"unroll9aa: Array code, unrolled by 9, Different Associativity"
	.globl	unroll8aa_descr
	.align 32
	.type	unroll8aa_descr, @object
	.size	unroll8aa_descr, 62
unroll8aa_descr:
	.string	"unroll8aa: Array code, unrolled by 8, Different Associativity"
	.globl	unroll7aa_descr
	.align 32
	.type	unroll7aa_descr, @object
	.size	unroll7aa_descr, 62
unroll7aa_descr:
	.string	"unroll7aa: Array code, unrolled by 7, Different Associativity"
	.globl	unroll6aa_descr
	.align 32
	.type	unroll6aa_descr, @object
	.size	unroll6aa_descr, 62
unroll6aa_descr:
	.string	"unroll6aa: Array code, unrolled by 6, Different Associativity"
	.globl	unroll5aa_descr
	.align 32
	.type	unroll5aa_descr, @object
	.size	unroll5aa_descr, 62
unroll5aa_descr:
	.string	"unroll5aa: Array code, unrolled by 5, Different Associativity"
	.globl	unroll4aa_descr
	.align 32
	.type	unroll4aa_descr, @object
	.size	unroll4aa_descr, 62
unroll4aa_descr:
	.string	"unroll4aa: Array code, unrolled by 4, Different Associativity"
	.globl	unroll3aa_descr
	.align 32
	.type	unroll3aa_descr, @object
	.size	unroll3aa_descr, 62
unroll3aa_descr:
	.string	"unroll3aa: Array code, unrolled by 3, Different Associativity"
	.globl	combine7_descr
	.align 32
	.type	combine7_descr, @object
	.size	combine7_descr, 61
combine7_descr:
	.string	"combine7: Array code, unrolled by 2, different associativity"
	.globl	unroll8x8_descr
	.align 32
	.type	unroll8x8_descr, @object
	.size	unroll8x8_descr, 55
unroll8x8_descr:
	.string	"unroll8x8: Pointer code, unrolled by 8, Superscalar x8"
	.globl	unroll8x4_descr
	.align 32
	.type	unroll8x4_descr, @object
	.size	unroll8x4_descr, 55
unroll8x4_descr:
	.string	"unroll8x4: Pointer code, unrolled by 8, Superscalar x4"
	.globl	unroll9x3_descr
	.align 32
	.type	unroll9x3_descr, @object
	.size	unroll9x3_descr, 55
unroll9x3_descr:
	.string	"unroll9x3: Pointer code, unrolled by 9, Superscalar x3"
	.globl	unroll8x2_descr
	.align 32
	.type	unroll8x2_descr, @object
	.size	unroll8x2_descr, 55
unroll8x2_descr:
	.string	"unroll8x2: Pointer code, unrolled by 8, Superscalar x2"
	.globl	unroll4x2as_descr
	.align 32
	.type	unroll4x2as_descr, @object
	.size	unroll4x2as_descr, 67
unroll4x2as_descr:
	.string	"unroll4x2as: Array code, Unroll x4, Superscalar x2, noninterleaved"
	.globl	unrollx2as_descr
	.align 32
	.type	unrollx2as_descr, @object
	.size	unrollx2as_descr, 66
unrollx2as_descr:
	.string	"unrollx2as: Array code, Unroll x2, Superscalar x2, noninterleaved"
	.globl	unroll10x10a_descr
	.align 32
	.type	unroll10x10a_descr, @object
	.size	unroll10x10a_descr, 58
unroll10x10a_descr:
	.string	"unroll10x10a: Array code, unrolled by 10, Superscalar x10"
	.globl	unroll9x9a_descr
	.align 32
	.type	unroll9x9a_descr, @object
	.size	unroll9x9a_descr, 54
unroll9x9a_descr:
	.string	"unroll9x9a: Array code, unrolled by 9, Superscalar x9"
	.globl	unroll8x8a_descr
	.align 32
	.type	unroll8x8a_descr, @object
	.size	unroll8x8a_descr, 54
unroll8x8a_descr:
	.string	"unroll8x8a: Array code, unrolled by 8, Superscalar x8"
	.globl	unroll7x7a_descr
	.align 32
	.type	unroll7x7a_descr, @object
	.size	unroll7x7a_descr, 54
unroll7x7a_descr:
	.string	"unroll7x7a: Array code, unrolled by 7, Superscalar x7"
	.globl	unroll6x6a_descr
	.align 32
	.type	unroll6x6a_descr, @object
	.size	unroll6x6a_descr, 54
unroll6x6a_descr:
	.string	"unroll6x6a: Array code, unrolled by 6, Superscalar x6"
	.globl	unroll5x5a_descr
	.align 32
	.type	unroll5x5a_descr, @object
	.size	unroll5x5a_descr, 54
unroll5x5a_descr:
	.string	"unroll5x5a: Array code, unrolled by 5, Superscalar x5"
	.globl	unroll20x20a_descr
	.align 32
	.type	unroll20x20a_descr, @object
	.size	unroll20x20a_descr, 58
unroll20x20a_descr:
	.string	"unroll20x20a: Array code, unrolled by 20, Superscalar x20"
	.globl	unroll16x16a_descr
	.align 32
	.type	unroll16x16a_descr, @object
	.size	unroll16x16a_descr, 58
unroll16x16a_descr:
	.string	"unroll16x16a: Array code, unrolled by 16, Superscalar x16"
	.globl	unroll12x12a_descr
	.align 32
	.type	unroll12x12a_descr, @object
	.size	unroll12x12a_descr, 58
unroll12x12a_descr:
	.string	"unroll12x12a: Array code, unrolled by 12, Superscalar x12"
	.globl	unroll12x6a_descr
	.align 32
	.type	unroll12x6a_descr, @object
	.size	unroll12x6a_descr, 55
unroll12x6a_descr:
	.string	"unroll2x6a: Array code, unrolled by 12, Superscalar x6"
	.globl	unroll8x4a_descr
	.align 32
	.type	unroll8x4a_descr, @object
	.size	unroll8x4a_descr, 54
unroll8x4a_descr:
	.string	"unroll8x4a: Array code, unrolled by 8, Superscalar x4"
	.globl	unroll4x4a_descr
	.align 32
	.type	unroll4x4a_descr, @object
	.size	unroll4x4a_descr, 54
unroll4x4a_descr:
	.string	"unroll4x4a: Array code, unrolled by 4, Superscalar x4"
	.globl	unroll3x3a_descr
	.align 32
	.type	unroll3x3a_descr, @object
	.size	unroll3x3a_descr, 54
unroll3x3a_descr:
	.string	"unroll3x3a: Array code, unrolled by 3, Superscalar x3"
	.globl	unroll8x2a_descr
	.align 32
	.type	unroll8x2a_descr, @object
	.size	unroll8x2a_descr, 54
unroll8x2a_descr:
	.string	"unroll8x2a: Array code, unrolled by 8, Superscalar x2"
	.globl	unroll4x2a_descr
	.align 32
	.type	unroll4x2a_descr, @object
	.size	unroll4x2a_descr, 54
unroll4x2a_descr:
	.string	"unroll4x2a: Array code, unrolled by 4, Superscalar x2"
	.globl	combine6_descr
	.align 32
	.type	combine6_descr, @object
	.size	combine6_descr, 52
combine6_descr:
	.string	"combine6: Array code, unrolled by 2, Superscalar x2"
	.globl	unroll16_descr
	.align 32
	.type	unroll16_descr, @object
	.size	unroll16_descr, 39
unroll16_descr:
	.string	"unroll16: Pointer code, unrolled by 16"
	.globl	unroll8_descr
	.align 32
	.type	unroll8_descr, @object
	.size	unroll8_descr, 37
unroll8_descr:
	.string	"unroll8: Pointer code, unrolled by 8"
	.globl	unroll4_descr
	.align 32
	.type	unroll4_descr, @object
	.size	unroll4_descr, 37
unroll4_descr:
	.string	"unroll4: Pointer code, unrolled by 4"
	.globl	unroll3_descr
	.align 32
	.type	unroll3_descr, @object
	.size	unroll3_descr, 37
unroll3_descr:
	.string	"unroll3: Pointer code, unrolled by 3"
	.globl	unroll2_descr
	.align 32
	.type	unroll2_descr, @object
	.size	unroll2_descr, 37
unroll2_descr:
	.string	"unroll2: Pointer code, unrolled by 2"
	.globl	unroll16a_descr
	.align 32
	.type	unroll16a_descr, @object
	.size	unroll16a_descr, 38
unroll16a_descr:
	.string	"unroll16a: Array code, unrolled by 16"
	.globl	unroll10a_descr
	.align 32
	.type	unroll10a_descr, @object
	.size	unroll10a_descr, 38
unroll10a_descr:
	.string	"unroll10a: Array code, unrolled by 10"
	.globl	unroll9a_descr
	.align 32
	.type	unroll9a_descr, @object
	.size	unroll9a_descr, 36
unroll9a_descr:
	.string	"unroll9a: Array code, unrolled by 9"
	.globl	unroll8a_descr
	.align 32
	.type	unroll8a_descr, @object
	.size	unroll8a_descr, 36
unroll8a_descr:
	.string	"unroll8a: Array code, unrolled by 8"
	.globl	unroll7a_descr
	.align 32
	.type	unroll7a_descr, @object
	.size	unroll7a_descr, 36
unroll7a_descr:
	.string	"unroll7a: Array code, unrolled by 7"
	.globl	unroll6a_descr
	.align 32
	.type	unroll6a_descr, @object
	.size	unroll6a_descr, 36
unroll6a_descr:
	.string	"unroll6a: Array code, unrolled by 6"
	.globl	unroll5a_descr
	.align 32
	.type	unroll5a_descr, @object
	.size	unroll5a_descr, 36
unroll5a_descr:
	.string	"unroll5a: Array code, unrolled by 5"
	.globl	unroll4a_descr
	.align 32
	.type	unroll4a_descr, @object
	.size	unroll4a_descr, 36
unroll4a_descr:
	.string	"unroll4a: Array code, unrolled by 4"
	.globl	unroll2aw_descr
	.align 32
	.type	unroll2aw_descr, @object
	.size	unroll2aw_descr, 49
unroll2aw_descr:
	.string	"unroll2aw: Array code, unrolled by 2, while loop"
	.globl	combine5p_descr
	.align 32
	.type	combine5p_descr, @object
	.size	combine5p_descr, 49
combine5p_descr:
	.string	"combine5p: Pointer code, unrolled by 2, for loop"
	.globl	unroll3a_descr
	.align 32
	.type	unroll3a_descr, @object
	.size	unroll3a_descr, 36
unroll3a_descr:
	.string	"unroll3a: Array code, unrolled by 3"
	.globl	combine5_descr
	.align 32
	.type	combine5_descr, @object
	.size	combine5_descr, 36
combine5_descr:
	.string	"combine5: Array code, unrolled by 2"
	.globl	combine4p_descr
	.align 32
	.type	combine4p_descr, @object
	.size	combine4p_descr, 54
combine4p_descr:
	.string	"combine4p: Pointer reference, accumulate in temporary"
	.globl	combine4b_descr
	.align 32
	.type	combine4b_descr, @object
	.size	combine4b_descr, 39
combine4b_descr:
	.string	"combine4b: Include bonds check in loop"
	.globl	combine4_descr
	.align 32
	.type	combine4_descr, @object
	.size	combine4_descr, 51
combine4_descr:
	.string	"combine4: Array reference, accumulate in temporary"
	.globl	combine3w_descr
	.align 32
	.type	combine3w_descr, @object
	.size	combine3w_descr, 52
combine3w_descr:
	.string	"combine3w: Update *dest within loop only with write"
	.globl	combine3_descr
	.align 32
	.type	combine3_descr, @object
	.size	combine3_descr, 41
combine3_descr:
	.string	"combine3: Array reference to vector data"
	.globl	combine2_descr
	.align 32
	.type	combine2_descr, @object
	.size	combine2_descr, 40
combine2_descr:
	.string	"combine2: Take vec_length() out of loop"
	.globl	combine1_descr
	.align 32
	.type	combine1_descr, @object
	.size	combine1_descr, 42
combine1_descr:
	.string	"combine1: Maximum use of data abstraction"
	.section	.rodata.cst8,"aM",@progbits,8
	.align 8
.LC0:
	.long	0
	.long	1072693248
	.align 8
.LC1:
	.long	3951369912
	.long	1070512209
	.align 8
.LC2:
	.long	1202590843
	.long	1069841121
	.text
.Letext0:
	.file 2 "/usr/lib/gcc/x86_64-linux-gnu/4.8/include/stddef.h"
	.file 3 "combine.h"
	.file 4 "vec.h"
	.section	.note.GNU-stack,"",@progbits
