	.file	"combine.c"
	.text
.Ltext0:
	.globl	combine1
	.type	combine1, @function
combine1:
.LFB0:
	.file 1 "combine.c"
	.loc 1 9 0
	.cfi_startproc
.LVL0:
	pushq	%r12
	.cfi_def_cfa_offset 16
	.cfi_offset 12, -16
	pushq	%rbp
	.cfi_def_cfa_offset 24
	.cfi_offset 6, -24
	pushq	%rbx
	.cfi_def_cfa_offset 32
	.cfi_offset 3, -32
	subq	$16, %rsp
	.cfi_def_cfa_offset 48
	movq	%rdi, %r12
	movq	%rsi, %rbp
	.loc 1 12 0
	movl	$0x3f800000, (%rsi)
.LVL1:
	.loc 1 13 0
	movl	$0, %ebx
	jmp	.L2
.LVL2:
.L3:
.LBB2:
	.loc 1 15 0 discriminator 2
	leaq	12(%rsp), %rdx
	movq	%rbx, %rsi
	movq	%r12, %rdi
	call	get_vec_element
.LVL3:
	.loc 1 17 0 discriminator 2
	vmovss	0(%rbp), %xmm0
	vmulss	12(%rsp), %xmm0, %xmm0
	vmovss	%xmm0, 0(%rbp)
.LBE2:
	.loc 1 13 0 discriminator 2
	addq	$1, %rbx
.LVL4:
.L2:
	.loc 1 13 0 is_stmt 0 discriminator 1
	movq	%r12, %rdi
	call	vec_length
.LVL5:
	cmpq	%rax, %rbx
	jl	.L3
	.loc 1 20 0 is_stmt 1
	addq	$16, %rsp
	.cfi_def_cfa_offset 32
	popq	%rbx
	.cfi_def_cfa_offset 24
.LVL6:
	popq	%rbp
	.cfi_def_cfa_offset 16
.LVL7:
	popq	%r12
	.cfi_def_cfa_offset 8
.LVL8:
	ret
	.cfi_endproc
.LFE0:
	.size	combine1, .-combine1
	.globl	combine2
	.type	combine2, @function
combine2:
.LFB1:
	.loc 1 27 0
	.cfi_startproc
.LVL9:
	pushq	%r13
	.cfi_def_cfa_offset 16
	.cfi_offset 13, -16
	pushq	%r12
	.cfi_def_cfa_offset 24
	.cfi_offset 12, -24
	pushq	%rbp
	.cfi_def_cfa_offset 32
	.cfi_offset 6, -32
	pushq	%rbx
	.cfi_def_cfa_offset 40
	.cfi_offset 3, -40
	subq	$24, %rsp
	.cfi_def_cfa_offset 64
	movq	%rdi, %r13
	movq	%rsi, %rbp
	.loc 1 29 0
	call	vec_length
.LVL10:
	movq	%rax, %r12
.LVL11:
	.loc 1 31 0
	movl	$0x3f800000, 0(%rbp)
.LVL12:
	.loc 1 32 0
	testq	%rax, %rax
	jle	.L5
	movl	$0, %ebx
.LVL13:
.L7:
.LBB3:
	.loc 1 34 0 discriminator 2
	leaq	12(%rsp), %rdx
	movq	%rbx, %rsi
	movq	%r13, %rdi
	call	get_vec_element
.LVL14:
	.loc 1 35 0 discriminator 2
	vmovss	0(%rbp), %xmm0
	vmulss	12(%rsp), %xmm0, %xmm0
	vmovss	%xmm0, 0(%rbp)
.LBE3:
	.loc 1 32 0 discriminator 2
	addq	$1, %rbx
.LVL15:
	cmpq	%r12, %rbx
	jne	.L7
.LVL16:
.L5:
	.loc 1 37 0
	addq	$24, %rsp
	.cfi_def_cfa_offset 40
	popq	%rbx
	.cfi_def_cfa_offset 32
	popq	%rbp
	.cfi_def_cfa_offset 24
.LVL17:
	popq	%r12
	.cfi_def_cfa_offset 16
.LVL18:
	popq	%r13
	.cfi_def_cfa_offset 8
.LVL19:
	ret
	.cfi_endproc
.LFE1:
	.size	combine2, .-combine2
	.globl	combine4b
	.type	combine4b, @function
combine4b:
.LFB5:
	.loc 1 97 0
	.cfi_startproc
.LVL20:
	pushq	%rbp
	.cfi_def_cfa_offset 16
	.cfi_offset 6, -16
	pushq	%rbx
	.cfi_def_cfa_offset 24
	.cfi_offset 3, -24
	subq	$8, %rsp
	.cfi_def_cfa_offset 32
	movq	%rdi, %rbx
	movq	%rsi, %rbp
	.loc 1 99 0
	call	vec_length
.LVL21:
	.loc 1 102 0
	testq	%rax, %rax
	jle	.L13
	.loc 1 100 0
	vmovss	.LC0(%rip), %xmm0
	.loc 1 102 0
	movl	$0, %edx
.LVL22:
.L12:
	.loc 1 103 0
	testq	%rdx, %rdx
	js	.L11
	.loc 1 103 0 is_stmt 0 discriminator 1
	cmpq	%rdx, (%rbx)
	jle	.L11
	.loc 1 104 0 is_stmt 1
	movq	8(%rbx), %rcx
	vmulss	(%rcx,%rdx,4), %xmm0, %xmm0
.LVL23:
.L11:
	.loc 1 102 0
	addq	$1, %rdx
.LVL24:
	cmpq	%rax, %rdx
	jne	.L12
	jmp	.L10
.LVL25:
.L13:
	.loc 1 100 0
	vmovss	.LC0(%rip), %xmm0
.LVL26:
.L10:
	.loc 1 107 0
	vmovss	%xmm0, 0(%rbp)
	.loc 1 108 0
	addq	$8, %rsp
	.cfi_def_cfa_offset 24
	popq	%rbx
	.cfi_def_cfa_offset 16
.LVL27:
	popq	%rbp
	.cfi_def_cfa_offset 8
.LVL28:
	ret
	.cfi_endproc
.LFE5:
	.size	combine4b, .-combine4b
	.globl	combine3
	.type	combine3, @function
combine3:
.LFB2:
	.loc 1 44 0
	.cfi_startproc
.LVL29:
	pushq	%r12
	.cfi_def_cfa_offset 16
	.cfi_offset 12, -16
	pushq	%rbp
	.cfi_def_cfa_offset 24
	.cfi_offset 6, -24
	pushq	%rbx
	.cfi_def_cfa_offset 32
	.cfi_offset 3, -32
	movq	%rdi, %rbp
	movq	%rsi, %rbx
	.loc 1 46 0
	call	vec_length
.LVL30:
	movq	%rax, %r12
.LVL31:
	.loc 1 47 0
	movq	%rbp, %rdi
	call	get_vec_start
.LVL32:
	.loc 1 49 0
	movl	$0x3f800000, (%rbx)
.LVL33:
	.loc 1 50 0
	testq	%r12, %r12
	jle	.L15
	movq	%rax, %rdx
	leaq	(%rax,%r12,4), %rax
.LVL34:
.L17:
	.loc 1 51 0 discriminator 2
	vmovss	(%rbx), %xmm0
	vmulss	(%rdx), %xmm0, %xmm0
	vmovss	%xmm0, (%rbx)
	addq	$4, %rdx
	.loc 1 50 0 discriminator 2
	cmpq	%rax, %rdx
	jne	.L17
.L15:
	.loc 1 53 0
	popq	%rbx
	.cfi_def_cfa_offset 24
.LVL35:
	popq	%rbp
	.cfi_def_cfa_offset 16
.LVL36:
	popq	%r12
	.cfi_def_cfa_offset 8
.LVL37:
	ret
	.cfi_endproc
.LFE2:
	.size	combine3, .-combine3
	.globl	combine3w
	.type	combine3w, @function
combine3w:
.LFB3:
	.loc 1 60 0
	.cfi_startproc
.LVL38:
	pushq	%r12
	.cfi_def_cfa_offset 16
	.cfi_offset 12, -16
	pushq	%rbp
	.cfi_def_cfa_offset 24
	.cfi_offset 6, -24
	pushq	%rbx
	.cfi_def_cfa_offset 32
	.cfi_offset 3, -32
	movq	%rdi, %rbp
	movq	%rsi, %rbx
	.loc 1 62 0
	call	vec_length
.LVL39:
	movq	%rax, %r12
.LVL40:
	.loc 1 63 0
	movq	%rbp, %rdi
	call	get_vec_start
.LVL41:
	.loc 1 67 0
	movl	$0x3f800000, (%rbx)
.LVL42:
	.loc 1 69 0
	testq	%r12, %r12
	jle	.L19
	movq	%rax, %rdx
	leaq	(%rax,%r12,4), %rax
.LVL43:
	.loc 1 64 0
	vmovss	.LC0(%rip), %xmm0
.LVL44:
.L21:
	.loc 1 70 0 discriminator 2
	vmulss	(%rdx), %xmm0, %xmm0
.LVL45:
	.loc 1 71 0 discriminator 2
	vmovss	%xmm0, (%rbx)
	addq	$4, %rdx
	.loc 1 69 0 discriminator 2
	cmpq	%rax, %rdx
	jne	.L21
.LVL46:
.L19:
	.loc 1 73 0
	popq	%rbx
	.cfi_def_cfa_offset 24
.LVL47:
	popq	%rbp
	.cfi_def_cfa_offset 16
.LVL48:
	popq	%r12
	.cfi_def_cfa_offset 8
.LVL49:
	ret
	.cfi_endproc
.LFE3:
	.size	combine3w, .-combine3w
	.globl	combine4
	.type	combine4, @function
combine4:
.LFB4:
	.loc 1 80 0
	.cfi_startproc
.LVL50:
	pushq	%r12
	.cfi_def_cfa_offset 16
	.cfi_offset 12, -16
	pushq	%rbp
	.cfi_def_cfa_offset 24
	.cfi_offset 6, -24
	pushq	%rbx
	.cfi_def_cfa_offset 32
	.cfi_offset 3, -32
	movq	%rdi, %rbx
	movq	%rsi, %r12
	.loc 1 82 0
	call	vec_length
.LVL51:
	movq	%rax, %rbp
.LVL52:
	.loc 1 83 0
	movq	%rbx, %rdi
	call	get_vec_start
.LVL53:
	.loc 1 86 0
	testq	%rbp, %rbp
	jle	.L26
	movq	%rax, %rdx
	leaq	(%rax,%rbp,4), %rax
.LVL54:
	.loc 1 84 0
	vmovss	.LC0(%rip), %xmm0
.LVL55:
.L25:
	.loc 1 87 0 discriminator 2
	vmulss	(%rdx), %xmm0, %xmm0
.LVL56:
	addq	$4, %rdx
	.loc 1 86 0 discriminator 2
	cmpq	%rax, %rdx
	jne	.L25
	jmp	.L24
.LVL57:
.L26:
	.loc 1 84 0
	vmovss	.LC0(%rip), %xmm0
.LVL58:
.L24:
	.loc 1 89 0
	vmovss	%xmm0, (%r12)
	.loc 1 90 0
	popq	%rbx
	.cfi_def_cfa_offset 24
.LVL59:
	popq	%rbp
	.cfi_def_cfa_offset 16
.LVL60:
	popq	%r12
	.cfi_def_cfa_offset 8
.LVL61:
	ret
	.cfi_endproc
.LFE4:
	.size	combine4, .-combine4
	.globl	combine4p
	.type	combine4p, @function
combine4p:
.LFB6:
	.loc 1 116 0
	.cfi_startproc
.LVL62:
	pushq	%r12
	.cfi_def_cfa_offset 16
	.cfi_offset 12, -16
	pushq	%rbp
	.cfi_def_cfa_offset 24
	.cfi_offset 6, -24
	pushq	%rbx
	.cfi_def_cfa_offset 32
	.cfi_offset 3, -32
	movq	%rdi, %rbx
	movq	%rsi, %rbp
	.loc 1 117 0
	call	vec_length
.LVL63:
	movq	%rax, %r12
.LVL64:
	.loc 1 118 0
	movq	%rbx, %rdi
	call	get_vec_start
.LVL65:
	movq	%rax, %rdx
.LVL66:
	.loc 1 119 0
	leaq	(%rax,%r12,4), %rax
.LVL67:
	.loc 1 122 0
	cmpq	%rax, %rdx
	jae	.L31
	.loc 1 120 0
	vmovss	.LC0(%rip), %xmm0
.LVL68:
.L30:
	.loc 1 123 0 discriminator 2
	vmulss	(%rdx), %xmm0, %xmm0
.LVL69:
	.loc 1 122 0 discriminator 2
	addq	$4, %rdx
.LVL70:
	cmpq	%rdx, %rax
	ja	.L30
	jmp	.L29
.LVL71:
.L31:
	.loc 1 120 0
	vmovss	.LC0(%rip), %xmm0
.LVL72:
.L29:
	.loc 1 124 0
	vmovss	%xmm0, 0(%rbp)
	.loc 1 125 0
	popq	%rbx
	.cfi_def_cfa_offset 24
.LVL73:
	popq	%rbp
	.cfi_def_cfa_offset 16
.LVL74:
	popq	%r12
	.cfi_def_cfa_offset 8
.LVL75:
	ret
	.cfi_endproc
.LFE6:
	.size	combine4p, .-combine4p
	.globl	combine5
	.type	combine5, @function
combine5:
.LFB7:
	.loc 1 133 0
	.cfi_startproc
.LVL76:
	pushq	%r13
	.cfi_def_cfa_offset 16
	.cfi_offset 13, -16
	pushq	%r12
	.cfi_def_cfa_offset 24
	.cfi_offset 12, -24
	pushq	%rbp
	.cfi_def_cfa_offset 32
	.cfi_offset 6, -32
	pushq	%rbx
	.cfi_def_cfa_offset 40
	.cfi_offset 3, -40
	subq	$8, %rsp
	.cfi_def_cfa_offset 48
	movq	%rdi, %r12
	movq	%rsi, %r13
	.loc 1 135 0
	call	vec_length
.LVL77:
	movq	%rax, %rbx
.LVL78:
	.loc 1 136 0
	leaq	-1(%rax), %rbp
.LVL79:
	.loc 1 137 0
	movq	%r12, %rdi
	call	get_vec_start
.LVL80:
	.loc 1 141 0
	testq	%rbp, %rbp
	jle	.L38
	.loc 1 138 0
	vmovss	.LC0(%rip), %xmm0
	.loc 1 141 0
	movl	$0, %edx
.LVL81:
.L35:
	.loc 1 143 0 discriminator 2
	vmulss	(%rax,%rdx,4), %xmm0, %xmm0
.LVL82:
	vmulss	4(%rax,%rdx,4), %xmm0, %xmm0
.LVL83:
	.loc 1 141 0 discriminator 2
	addq	$2, %rdx
.LVL84:
	cmpq	%rdx, %rbp
	jg	.L35
	jmp	.L34
.LVL85:
.L38:
	.loc 1 138 0
	vmovss	.LC0(%rip), %xmm0
	.loc 1 141 0
	movl	$0, %edx
.LVL86:
.L34:
	.loc 1 148 0 discriminator 1
	cmpq	%rdx, %rbx
	jle	.L36
.L37:
	.loc 1 149 0 discriminator 2
	vmulss	(%rax,%rdx,4), %xmm0, %xmm0
.LVL87:
	.loc 1 148 0 discriminator 2
	addq	$1, %rdx
.LVL88:
	cmpq	%rbx, %rdx
	jne	.L37
.L36:
	.loc 1 151 0
	vmovss	%xmm0, 0(%r13)
	.loc 1 152 0
	addq	$8, %rsp
	.cfi_def_cfa_offset 40
	popq	%rbx
	.cfi_def_cfa_offset 32
.LVL89:
	popq	%rbp
	.cfi_def_cfa_offset 24
.LVL90:
	popq	%r12
	.cfi_def_cfa_offset 16
.LVL91:
	popq	%r13
	.cfi_def_cfa_offset 8
.LVL92:
	ret
	.cfi_endproc
.LFE7:
	.size	combine5, .-combine5
	.globl	unroll3a_combine
	.type	unroll3a_combine, @function
unroll3a_combine:
.LFB8:
	.loc 1 157 0
	.cfi_startproc
.LVL93:
	pushq	%r13
	.cfi_def_cfa_offset 16
	.cfi_offset 13, -16
	pushq	%r12
	.cfi_def_cfa_offset 24
	.cfi_offset 12, -24
	pushq	%rbp
	.cfi_def_cfa_offset 32
	.cfi_offset 6, -32
	pushq	%rbx
	.cfi_def_cfa_offset 40
	.cfi_offset 3, -40
	subq	$8, %rsp
	.cfi_def_cfa_offset 48
	movq	%rdi, %r12
	movq	%rsi, %r13
	.loc 1 159 0
	call	vec_length
.LVL94:
	movq	%rax, %rbx
.LVL95:
	.loc 1 160 0
	leaq	-2(%rax), %rbp
.LVL96:
	.loc 1 161 0
	movq	%r12, %rdi
	call	get_vec_start
.LVL97:
	.loc 1 165 0
	testq	%rbp, %rbp
	jle	.L45
	.loc 1 162 0
	vmovss	.LC0(%rip), %xmm0
	.loc 1 165 0
	movl	$0, %edx
.LVL98:
.L42:
	.loc 1 166 0 discriminator 2
	vmulss	(%rax,%rdx,4), %xmm0, %xmm0
.LVL99:
	.loc 1 167 0 discriminator 2
	vmulss	4(%rax,%rdx,4), %xmm0, %xmm0
.LVL100:
	.loc 1 168 0 discriminator 2
	vmulss	8(%rax,%rdx,4), %xmm0, %xmm0
.LVL101:
	.loc 1 165 0 discriminator 2
	addq	$3, %rdx
.LVL102:
	cmpq	%rdx, %rbp
	jg	.L42
	jmp	.L41
.LVL103:
.L45:
	.loc 1 162 0
	vmovss	.LC0(%rip), %xmm0
	.loc 1 165 0
	movl	$0, %edx
.LVL104:
.L41:
	.loc 1 172 0 discriminator 1
	cmpq	%rdx, %rbx
	jle	.L43
.L44:
	.loc 1 173 0 discriminator 2
	vmulss	(%rax,%rdx,4), %xmm0, %xmm0
.LVL105:
	.loc 1 172 0 discriminator 2
	addq	$1, %rdx
.LVL106:
	cmpq	%rbx, %rdx
	jne	.L44
.L43:
	.loc 1 175 0
	vmovss	%xmm0, 0(%r13)
	.loc 1 176 0
	addq	$8, %rsp
	.cfi_def_cfa_offset 40
	popq	%rbx
	.cfi_def_cfa_offset 32
.LVL107:
	popq	%rbp
	.cfi_def_cfa_offset 24
.LVL108:
	popq	%r12
	.cfi_def_cfa_offset 16
.LVL109:
	popq	%r13
	.cfi_def_cfa_offset 8
.LVL110:
	ret
	.cfi_endproc
.LFE8:
	.size	unroll3a_combine, .-unroll3a_combine
	.globl	combine5p
	.type	combine5p, @function
combine5p:
.LFB9:
	.loc 1 183 0
	.cfi_startproc
.LVL111:
	pushq	%r12
	.cfi_def_cfa_offset 16
	.cfi_offset 12, -16
	pushq	%rbp
	.cfi_def_cfa_offset 24
	.cfi_offset 6, -24
	pushq	%rbx
	.cfi_def_cfa_offset 32
	.cfi_offset 3, -32
	movq	%rdi, %rbp
	movq	%rsi, %r12
	.loc 1 184 0
	call	get_vec_start
.LVL112:
	movq	%rax, %rbx
.LVL113:
	.loc 1 185 0
	movq	%rbp, %rdi
	call	vec_length
.LVL114:
	leaq	(%rbx,%rax,4), %rax
.LVL115:
	.loc 1 186 0
	leaq	-4(%rax), %rcx
.LVL116:
	.loc 1 190 0
	cmpq	%rcx, %rbx
	jae	.L53
	.loc 1 184 0
	movq	%rbx, %rdx
	.loc 1 187 0
	vmovss	.LC0(%rip), %xmm0
.LVL117:
.L50:
	.loc 1 191 0 discriminator 2
	vmulss	(%rdx), %xmm0, %xmm0
.LVL118:
	vmulss	4(%rdx), %xmm0, %xmm0
.LVL119:
	.loc 1 190 0 discriminator 2
	addq	$8, %rdx
.LVL120:
	cmpq	%rdx, %rcx
	ja	.L50
	movq	%rax, %rdx
.LVL121:
	subq	%rbx, %rdx
	leaq	-5(%rdx), %rdx
	shrq	$3, %rdx
	leaq	8(%rbx,%rdx,8), %rbx
	jmp	.L48
.LVL122:
.L53:
	.loc 1 187 0
	vmovss	.LC0(%rip), %xmm0
.LVL123:
.L48:
	.loc 1 195 0 discriminator 1
	cmpq	%rbx, %rax
	jbe	.L51
.L52:
	.loc 1 196 0 discriminator 2
	vmulss	(%rbx), %xmm0, %xmm0
.LVL124:
	.loc 1 195 0 discriminator 2
	addq	$4, %rbx
.LVL125:
	cmpq	%rbx, %rax
	ja	.L52
.L51:
	.loc 1 198 0
	vmovss	%xmm0, (%r12)
	.loc 1 199 0
	popq	%rbx
	.cfi_def_cfa_offset 24
.LVL126:
	popq	%rbp
	.cfi_def_cfa_offset 16
.LVL127:
	popq	%r12
	.cfi_def_cfa_offset 8
.LVL128:
	ret
	.cfi_endproc
.LFE9:
	.size	combine5p, .-combine5p
	.globl	unroll2aw_combine
	.type	unroll2aw_combine, @function
unroll2aw_combine:
.LFB10:
	.loc 1 204 0
	.cfi_startproc
.LVL129:
	pushq	%r13
	.cfi_def_cfa_offset 16
	.cfi_offset 13, -16
	pushq	%r12
	.cfi_def_cfa_offset 24
	.cfi_offset 12, -24
	pushq	%rbp
	.cfi_def_cfa_offset 32
	.cfi_offset 6, -32
	pushq	%rbx
	.cfi_def_cfa_offset 40
	.cfi_offset 3, -40
	subq	$8, %rsp
	.cfi_def_cfa_offset 48
	movq	%rdi, %r12
	movq	%rsi, %r13
.LVL130:
	.loc 1 206 0
	call	vec_length
.LVL131:
	movq	%rax, %rbx
.LVL132:
	.loc 1 207 0
	leaq	-1(%rax), %rbp
.LVL133:
	.loc 1 208 0
	movq	%r12, %rdi
	call	get_vec_start
.LVL134:
	.loc 1 212 0
	testq	%rbp, %rbp
	jle	.L60
	.loc 1 209 0
	vmovss	.LC0(%rip), %xmm0
	.loc 1 205 0
	movl	$0, %edx
.LVL135:
.L57:
	.loc 1 213 0
	vmulss	(%rax,%rdx,4), %xmm0, %xmm0
.LVL136:
	.loc 1 214 0
	addq	$2, %rdx
.LVL137:
	.loc 1 215 0
	vmulss	-4(%rax,%rdx,4), %xmm0, %xmm0
.LVL138:
	.loc 1 212 0
	cmpq	%rdx, %rbp
	jg	.L57
	jmp	.L56
.LVL139:
.L60:
	.loc 1 209 0
	vmovss	.LC0(%rip), %xmm0
	.loc 1 205 0
	movl	$0, %edx
.LVL140:
.L56:
	.loc 1 219 0 discriminator 1
	cmpq	%rdx, %rbx
	jle	.L58
.L59:
	.loc 1 220 0 discriminator 2
	vmulss	(%rax,%rdx,4), %xmm0, %xmm0
.LVL141:
	.loc 1 219 0 discriminator 2
	addq	$1, %rdx
.LVL142:
	cmpq	%rbx, %rdx
	jne	.L59
.L58:
	.loc 1 222 0
	vmovss	%xmm0, 0(%r13)
	.loc 1 223 0
	addq	$8, %rsp
	.cfi_def_cfa_offset 40
	popq	%rbx
	.cfi_def_cfa_offset 32
.LVL143:
	popq	%rbp
	.cfi_def_cfa_offset 24
.LVL144:
	popq	%r12
	.cfi_def_cfa_offset 16
.LVL145:
	popq	%r13
	.cfi_def_cfa_offset 8
.LVL146:
	ret
	.cfi_endproc
.LFE10:
	.size	unroll2aw_combine, .-unroll2aw_combine
	.globl	unroll4a_combine
	.type	unroll4a_combine, @function
unroll4a_combine:
.LFB11:
	.loc 1 228 0
	.cfi_startproc
.LVL147:
	pushq	%r13
	.cfi_def_cfa_offset 16
	.cfi_offset 13, -16
	pushq	%r12
	.cfi_def_cfa_offset 24
	.cfi_offset 12, -24
	pushq	%rbp
	.cfi_def_cfa_offset 32
	.cfi_offset 6, -32
	pushq	%rbx
	.cfi_def_cfa_offset 40
	.cfi_offset 3, -40
	subq	$8, %rsp
	.cfi_def_cfa_offset 48
	movq	%rdi, %r12
	movq	%rsi, %r13
	.loc 1 230 0
	call	vec_length
.LVL148:
	movq	%rax, %rbx
.LVL149:
	.loc 1 231 0
	leaq	-3(%rax), %rbp
.LVL150:
	.loc 1 232 0
	movq	%r12, %rdi
	call	get_vec_start
.LVL151:
	.loc 1 236 0
	testq	%rbp, %rbp
	jle	.L67
	.loc 1 233 0
	vmovss	.LC0(%rip), %xmm0
	.loc 1 236 0
	movl	$0, %edx
.LVL152:
.L64:
	.loc 1 237 0 discriminator 2
	vmulss	(%rax,%rdx,4), %xmm0, %xmm0
.LVL153:
	vmulss	4(%rax,%rdx,4), %xmm0, %xmm0
.LVL154:
	.loc 1 238 0 discriminator 2
	vmulss	8(%rax,%rdx,4), %xmm0, %xmm0
	vmulss	12(%rax,%rdx,4), %xmm0, %xmm0
.LVL155:
	.loc 1 236 0 discriminator 2
	addq	$4, %rdx
.LVL156:
	cmpq	%rdx, %rbp
	jg	.L64
	jmp	.L63
.LVL157:
.L67:
	.loc 1 233 0
	vmovss	.LC0(%rip), %xmm0
	.loc 1 236 0
	movl	$0, %edx
.LVL158:
.L63:
	.loc 1 242 0 discriminator 1
	cmpq	%rdx, %rbx
	jle	.L65
.L66:
	.loc 1 243 0 discriminator 2
	vmulss	(%rax,%rdx,4), %xmm0, %xmm0
.LVL159:
	.loc 1 242 0 discriminator 2
	addq	$1, %rdx
.LVL160:
	cmpq	%rbx, %rdx
	jne	.L66
.L65:
	.loc 1 245 0
	vmovss	%xmm0, 0(%r13)
	.loc 1 246 0
	addq	$8, %rsp
	.cfi_def_cfa_offset 40
	popq	%rbx
	.cfi_def_cfa_offset 32
.LVL161:
	popq	%rbp
	.cfi_def_cfa_offset 24
.LVL162:
	popq	%r12
	.cfi_def_cfa_offset 16
.LVL163:
	popq	%r13
	.cfi_def_cfa_offset 8
.LVL164:
	ret
	.cfi_endproc
.LFE11:
	.size	unroll4a_combine, .-unroll4a_combine
	.globl	unroll5a_combine
	.type	unroll5a_combine, @function
unroll5a_combine:
.LFB12:
	.loc 1 257 0
	.cfi_startproc
.LVL165:
	pushq	%r13
	.cfi_def_cfa_offset 16
	.cfi_offset 13, -16
	pushq	%r12
	.cfi_def_cfa_offset 24
	.cfi_offset 12, -24
	pushq	%rbp
	.cfi_def_cfa_offset 32
	.cfi_offset 6, -32
	pushq	%rbx
	.cfi_def_cfa_offset 40
	.cfi_offset 3, -40
	subq	$8, %rsp
	.cfi_def_cfa_offset 48
	movq	%rdi, %r13
	movq	%rsi, %r12
	.loc 1 259 0
	call	vec_length
.LVL166:
	movq	%rax, %rbx
.LVL167:
	.loc 1 260 0
	leaq	-4(%rax), %rbp
.LVL168:
	.loc 1 261 0
	movq	%r13, %rdi
	call	get_vec_start
.LVL169:
	.loc 1 265 0
	testq	%rbp, %rbp
	jle	.L74
	movq	%rax, %rcx
	.loc 1 262 0
	vmovss	.LC0(%rip), %xmm0
	.loc 1 265 0
	movl	$0, %edx
.LVL170:
.L71:
	.loc 1 266 0 discriminator 2
	vmulss	(%rcx), %xmm0, %xmm0
.LVL171:
	vmulss	4(%rcx), %xmm0, %xmm0
.LVL172:
	.loc 1 267 0 discriminator 2
	vmulss	8(%rcx), %xmm0, %xmm0
.LVL173:
	vmulss	12(%rcx), %xmm0, %xmm0
.LVL174:
	.loc 1 268 0 discriminator 2
	vmulss	16(%rcx), %xmm0, %xmm0
.LVL175:
	.loc 1 265 0 discriminator 2
	addq	$5, %rdx
.LVL176:
	addq	$20, %rcx
	cmpq	%rdx, %rbp
	jg	.L71
	jmp	.L70
.LVL177:
.L74:
	.loc 1 262 0
	vmovss	.LC0(%rip), %xmm0
	.loc 1 265 0
	movl	$0, %edx
.LVL178:
.L70:
	.loc 1 272 0 discriminator 1
	cmpq	%rdx, %rbx
	jle	.L72
.L73:
	.loc 1 273 0 discriminator 2
	vmulss	(%rax,%rdx,4), %xmm0, %xmm0
.LVL179:
	.loc 1 272 0 discriminator 2
	addq	$1, %rdx
.LVL180:
	cmpq	%rbx, %rdx
	jne	.L73
.L72:
	.loc 1 275 0
	vmovss	%xmm0, (%r12)
	.loc 1 276 0
	addq	$8, %rsp
	.cfi_def_cfa_offset 40
	popq	%rbx
	.cfi_def_cfa_offset 32
.LVL181:
	popq	%rbp
	.cfi_def_cfa_offset 24
.LVL182:
	popq	%r12
	.cfi_def_cfa_offset 16
.LVL183:
	popq	%r13
	.cfi_def_cfa_offset 8
.LVL184:
	ret
	.cfi_endproc
.LFE12:
	.size	unroll5a_combine, .-unroll5a_combine
	.globl	unroll6a_combine
	.type	unroll6a_combine, @function
unroll6a_combine:
.LFB13:
	.loc 1 281 0
	.cfi_startproc
.LVL185:
	pushq	%r13
	.cfi_def_cfa_offset 16
	.cfi_offset 13, -16
	pushq	%r12
	.cfi_def_cfa_offset 24
	.cfi_offset 12, -24
	pushq	%rbp
	.cfi_def_cfa_offset 32
	.cfi_offset 6, -32
	pushq	%rbx
	.cfi_def_cfa_offset 40
	.cfi_offset 3, -40
	subq	$8, %rsp
	.cfi_def_cfa_offset 48
	movq	%rdi, %r13
	movq	%rsi, %r12
	.loc 1 283 0
	call	vec_length
.LVL186:
	movq	%rax, %rbx
.LVL187:
	.loc 1 284 0
	leaq	-5(%rax), %rbp
.LVL188:
	.loc 1 285 0
	movq	%r13, %rdi
	call	get_vec_start
.LVL189:
	.loc 1 289 0
	testq	%rbp, %rbp
	jle	.L81
	movq	%rax, %rdx
	.loc 1 286 0
	vmovss	.LC0(%rip), %xmm0
	.loc 1 289 0
	movl	$0, %ecx
.LVL190:
.L78:
	.loc 1 290 0 discriminator 2
	vmulss	(%rdx), %xmm0, %xmm0
.LVL191:
	vmulss	4(%rdx), %xmm0, %xmm0
.LVL192:
	.loc 1 291 0 discriminator 2
	vmulss	8(%rdx), %xmm0, %xmm0
.LVL193:
	vmulss	12(%rdx), %xmm0, %xmm0
.LVL194:
	.loc 1 292 0 discriminator 2
	vmulss	16(%rdx), %xmm0, %xmm0
.LVL195:
	vmulss	20(%rdx), %xmm0, %xmm0
.LVL196:
	.loc 1 289 0 discriminator 2
	addq	$6, %rcx
.LVL197:
	addq	$24, %rdx
	cmpq	%rcx, %rbp
	jg	.L78
	jmp	.L77
.LVL198:
.L81:
	.loc 1 286 0
	vmovss	.LC0(%rip), %xmm0
	.loc 1 289 0
	movl	$0, %ecx
.LVL199:
.L77:
	.loc 1 296 0 discriminator 1
	cmpq	%rcx, %rbx
	jle	.L79
.L80:
	.loc 1 297 0 discriminator 2
	vmulss	(%rax,%rcx,4), %xmm0, %xmm0
.LVL200:
	.loc 1 296 0 discriminator 2
	addq	$1, %rcx
.LVL201:
	cmpq	%rbx, %rcx
	jne	.L80
.L79:
	.loc 1 299 0
	vmovss	%xmm0, (%r12)
	.loc 1 300 0
	addq	$8, %rsp
	.cfi_def_cfa_offset 40
	popq	%rbx
	.cfi_def_cfa_offset 32
.LVL202:
	popq	%rbp
	.cfi_def_cfa_offset 24
.LVL203:
	popq	%r12
	.cfi_def_cfa_offset 16
.LVL204:
	popq	%r13
	.cfi_def_cfa_offset 8
.LVL205:
	ret
	.cfi_endproc
.LFE13:
	.size	unroll6a_combine, .-unroll6a_combine
	.globl	unroll7a_combine
	.type	unroll7a_combine, @function
unroll7a_combine:
.LFB14:
	.loc 1 304 0
	.cfi_startproc
.LVL206:
	pushq	%r13
	.cfi_def_cfa_offset 16
	.cfi_offset 13, -16
	pushq	%r12
	.cfi_def_cfa_offset 24
	.cfi_offset 12, -24
	pushq	%rbp
	.cfi_def_cfa_offset 32
	.cfi_offset 6, -32
	pushq	%rbx
	.cfi_def_cfa_offset 40
	.cfi_offset 3, -40
	subq	$8, %rsp
	.cfi_def_cfa_offset 48
	movq	%rdi, %r13
	movq	%rsi, %r12
	.loc 1 306 0
	call	vec_length
.LVL207:
	movq	%rax, %rbx
.LVL208:
	.loc 1 307 0
	leaq	-6(%rax), %rbp
.LVL209:
	.loc 1 308 0
	movq	%r13, %rdi
	call	get_vec_start
.LVL210:
	.loc 1 312 0
	testq	%rbp, %rbp
	jle	.L88
	movq	%rax, %rdx
	.loc 1 309 0
	vmovss	.LC0(%rip), %xmm0
	.loc 1 312 0
	movl	$0, %ecx
.LVL211:
.L85:
	.loc 1 313 0 discriminator 2
	vmulss	(%rdx), %xmm0, %xmm0
.LVL212:
	vmulss	4(%rdx), %xmm0, %xmm0
.LVL213:
	.loc 1 314 0 discriminator 2
	vmulss	8(%rdx), %xmm0, %xmm0
.LVL214:
	vmulss	12(%rdx), %xmm0, %xmm0
.LVL215:
	.loc 1 315 0 discriminator 2
	vmulss	16(%rdx), %xmm0, %xmm0
.LVL216:
	vmulss	20(%rdx), %xmm0, %xmm0
.LVL217:
	.loc 1 316 0 discriminator 2
	vmulss	24(%rdx), %xmm0, %xmm0
.LVL218:
	.loc 1 312 0 discriminator 2
	addq	$7, %rcx
.LVL219:
	addq	$28, %rdx
	cmpq	%rcx, %rbp
	jg	.L85
	jmp	.L84
.LVL220:
.L88:
	.loc 1 309 0
	vmovss	.LC0(%rip), %xmm0
	.loc 1 312 0
	movl	$0, %ecx
.LVL221:
.L84:
	.loc 1 320 0 discriminator 1
	cmpq	%rcx, %rbx
	jle	.L86
.L87:
	.loc 1 321 0 discriminator 2
	vmulss	(%rax,%rcx,4), %xmm0, %xmm0
.LVL222:
	.loc 1 320 0 discriminator 2
	addq	$1, %rcx
.LVL223:
	cmpq	%rbx, %rcx
	jne	.L87
.L86:
	.loc 1 323 0
	vmovss	%xmm0, (%r12)
	.loc 1 324 0
	addq	$8, %rsp
	.cfi_def_cfa_offset 40
	popq	%rbx
	.cfi_def_cfa_offset 32
.LVL224:
	popq	%rbp
	.cfi_def_cfa_offset 24
.LVL225:
	popq	%r12
	.cfi_def_cfa_offset 16
.LVL226:
	popq	%r13
	.cfi_def_cfa_offset 8
.LVL227:
	ret
	.cfi_endproc
.LFE14:
	.size	unroll7a_combine, .-unroll7a_combine
	.globl	unroll8a_combine
	.type	unroll8a_combine, @function
unroll8a_combine:
.LFB15:
	.loc 1 329 0
	.cfi_startproc
.LVL228:
	pushq	%r13
	.cfi_def_cfa_offset 16
	.cfi_offset 13, -16
	pushq	%r12
	.cfi_def_cfa_offset 24
	.cfi_offset 12, -24
	pushq	%rbp
	.cfi_def_cfa_offset 32
	.cfi_offset 6, -32
	pushq	%rbx
	.cfi_def_cfa_offset 40
	.cfi_offset 3, -40
	subq	$8, %rsp
	.cfi_def_cfa_offset 48
	movq	%rdi, %r13
	movq	%rsi, %r12
	.loc 1 331 0
	call	vec_length
.LVL229:
	movq	%rax, %rbx
.LVL230:
	.loc 1 332 0
	leaq	-7(%rax), %rbp
.LVL231:
	.loc 1 333 0
	movq	%r13, %rdi
	call	get_vec_start
.LVL232:
	.loc 1 337 0
	testq	%rbp, %rbp
	jle	.L95
	movq	%rax, %rdx
	.loc 1 334 0
	vmovss	.LC0(%rip), %xmm0
	.loc 1 337 0
	movl	$0, %ecx
.LVL233:
.L92:
	.loc 1 338 0 discriminator 2
	vmulss	(%rdx), %xmm0, %xmm0
.LVL234:
	vmulss	4(%rdx), %xmm0, %xmm0
.LVL235:
	.loc 1 339 0 discriminator 2
	vmulss	8(%rdx), %xmm0, %xmm0
.LVL236:
	vmulss	12(%rdx), %xmm0, %xmm0
.LVL237:
	.loc 1 340 0 discriminator 2
	vmulss	16(%rdx), %xmm0, %xmm0
.LVL238:
	vmulss	20(%rdx), %xmm0, %xmm0
.LVL239:
	.loc 1 341 0 discriminator 2
	vmulss	24(%rdx), %xmm0, %xmm0
.LVL240:
	vmulss	28(%rdx), %xmm0, %xmm0
.LVL241:
	.loc 1 337 0 discriminator 2
	addq	$8, %rcx
.LVL242:
	addq	$32, %rdx
	cmpq	%rcx, %rbp
	jg	.L92
	jmp	.L91
.LVL243:
.L95:
	.loc 1 334 0
	vmovss	.LC0(%rip), %xmm0
	.loc 1 337 0
	movl	$0, %ecx
.LVL244:
.L91:
	.loc 1 345 0 discriminator 1
	cmpq	%rcx, %rbx
	jle	.L93
.L94:
	.loc 1 346 0 discriminator 2
	vmulss	(%rax,%rcx,4), %xmm0, %xmm0
.LVL245:
	.loc 1 345 0 discriminator 2
	addq	$1, %rcx
.LVL246:
	cmpq	%rbx, %rcx
	jne	.L94
.L93:
	.loc 1 348 0
	vmovss	%xmm0, (%r12)
	.loc 1 349 0
	addq	$8, %rsp
	.cfi_def_cfa_offset 40
	popq	%rbx
	.cfi_def_cfa_offset 32
.LVL247:
	popq	%rbp
	.cfi_def_cfa_offset 24
.LVL248:
	popq	%r12
	.cfi_def_cfa_offset 16
.LVL249:
	popq	%r13
	.cfi_def_cfa_offset 8
.LVL250:
	ret
	.cfi_endproc
.LFE15:
	.size	unroll8a_combine, .-unroll8a_combine
	.globl	unroll9a_combine
	.type	unroll9a_combine, @function
unroll9a_combine:
.LFB16:
	.loc 1 353 0
	.cfi_startproc
.LVL251:
	pushq	%r13
	.cfi_def_cfa_offset 16
	.cfi_offset 13, -16
	pushq	%r12
	.cfi_def_cfa_offset 24
	.cfi_offset 12, -24
	pushq	%rbp
	.cfi_def_cfa_offset 32
	.cfi_offset 6, -32
	pushq	%rbx
	.cfi_def_cfa_offset 40
	.cfi_offset 3, -40
	subq	$8, %rsp
	.cfi_def_cfa_offset 48
	movq	%rdi, %r13
	movq	%rsi, %r12
	.loc 1 355 0
	call	vec_length
.LVL252:
	movq	%rax, %rbx
.LVL253:
	.loc 1 356 0
	leaq	-8(%rax), %rbp
.LVL254:
	.loc 1 357 0
	movq	%r13, %rdi
	call	get_vec_start
.LVL255:
	.loc 1 361 0
	testq	%rbp, %rbp
	jle	.L102
	movq	%rax, %rdx
	.loc 1 358 0
	vmovss	.LC0(%rip), %xmm0
	.loc 1 361 0
	movl	$0, %ecx
.LVL256:
.L99:
	.loc 1 362 0 discriminator 2
	vmulss	(%rdx), %xmm0, %xmm0
.LVL257:
	vmulss	4(%rdx), %xmm0, %xmm0
.LVL258:
	.loc 1 363 0 discriminator 2
	vmulss	8(%rdx), %xmm0, %xmm0
.LVL259:
	vmulss	12(%rdx), %xmm0, %xmm0
.LVL260:
	.loc 1 364 0 discriminator 2
	vmulss	16(%rdx), %xmm0, %xmm0
.LVL261:
	vmulss	20(%rdx), %xmm0, %xmm0
.LVL262:
	.loc 1 365 0 discriminator 2
	vmulss	24(%rdx), %xmm0, %xmm0
.LVL263:
	vmulss	28(%rdx), %xmm0, %xmm0
.LVL264:
	.loc 1 366 0 discriminator 2
	vmulss	32(%rdx), %xmm0, %xmm0
.LVL265:
	.loc 1 361 0 discriminator 2
	addq	$9, %rcx
.LVL266:
	addq	$36, %rdx
	cmpq	%rcx, %rbp
	jg	.L99
	jmp	.L98
.LVL267:
.L102:
	.loc 1 358 0
	vmovss	.LC0(%rip), %xmm0
	.loc 1 361 0
	movl	$0, %ecx
.LVL268:
.L98:
	.loc 1 370 0 discriminator 1
	cmpq	%rcx, %rbx
	jle	.L100
.L101:
	.loc 1 371 0 discriminator 2
	vmulss	(%rax,%rcx,4), %xmm0, %xmm0
.LVL269:
	.loc 1 370 0 discriminator 2
	addq	$1, %rcx
.LVL270:
	cmpq	%rbx, %rcx
	jne	.L101
.L100:
	.loc 1 373 0
	vmovss	%xmm0, (%r12)
	.loc 1 374 0
	addq	$8, %rsp
	.cfi_def_cfa_offset 40
	popq	%rbx
	.cfi_def_cfa_offset 32
.LVL271:
	popq	%rbp
	.cfi_def_cfa_offset 24
.LVL272:
	popq	%r12
	.cfi_def_cfa_offset 16
.LVL273:
	popq	%r13
	.cfi_def_cfa_offset 8
.LVL274:
	ret
	.cfi_endproc
.LFE16:
	.size	unroll9a_combine, .-unroll9a_combine
	.globl	unroll10a_combine
	.type	unroll10a_combine, @function
unroll10a_combine:
.LFB17:
	.loc 1 378 0
	.cfi_startproc
.LVL275:
	pushq	%r13
	.cfi_def_cfa_offset 16
	.cfi_offset 13, -16
	pushq	%r12
	.cfi_def_cfa_offset 24
	.cfi_offset 12, -24
	pushq	%rbp
	.cfi_def_cfa_offset 32
	.cfi_offset 6, -32
	pushq	%rbx
	.cfi_def_cfa_offset 40
	.cfi_offset 3, -40
	subq	$8, %rsp
	.cfi_def_cfa_offset 48
	movq	%rdi, %r13
	movq	%rsi, %r12
	.loc 1 380 0
	call	vec_length
.LVL276:
	movq	%rax, %rbx
.LVL277:
	.loc 1 381 0
	leaq	-9(%rax), %rbp
.LVL278:
	.loc 1 382 0
	movq	%r13, %rdi
	call	get_vec_start
.LVL279:
	.loc 1 386 0
	testq	%rbp, %rbp
	jle	.L109
	movq	%rax, %rdx
	.loc 1 383 0
	vmovss	.LC0(%rip), %xmm0
	.loc 1 386 0
	movl	$0, %ecx
.LVL280:
.L106:
	.loc 1 387 0 discriminator 2
	vmulss	(%rdx), %xmm0, %xmm0
.LVL281:
	vmulss	4(%rdx), %xmm0, %xmm0
.LVL282:
	.loc 1 388 0 discriminator 2
	vmulss	8(%rdx), %xmm0, %xmm0
.LVL283:
	vmulss	12(%rdx), %xmm0, %xmm0
.LVL284:
	.loc 1 389 0 discriminator 2
	vmulss	16(%rdx), %xmm0, %xmm0
.LVL285:
	vmulss	20(%rdx), %xmm0, %xmm0
.LVL286:
	.loc 1 390 0 discriminator 2
	vmulss	24(%rdx), %xmm0, %xmm0
.LVL287:
	vmulss	28(%rdx), %xmm0, %xmm0
.LVL288:
	.loc 1 391 0 discriminator 2
	vmulss	32(%rdx), %xmm0, %xmm0
.LVL289:
	vmulss	36(%rdx), %xmm0, %xmm0
.LVL290:
	.loc 1 386 0 discriminator 2
	addq	$10, %rcx
.LVL291:
	addq	$40, %rdx
	cmpq	%rcx, %rbp
	jg	.L106
	jmp	.L105
.LVL292:
.L109:
	.loc 1 383 0
	vmovss	.LC0(%rip), %xmm0
	.loc 1 386 0
	movl	$0, %ecx
.LVL293:
.L105:
	.loc 1 395 0 discriminator 1
	cmpq	%rcx, %rbx
	jle	.L107
.L108:
	.loc 1 396 0 discriminator 2
	vmulss	(%rax,%rcx,4), %xmm0, %xmm0
.LVL294:
	.loc 1 395 0 discriminator 2
	addq	$1, %rcx
.LVL295:
	cmpq	%rbx, %rcx
	jne	.L108
.L107:
	.loc 1 398 0
	vmovss	%xmm0, (%r12)
	.loc 1 399 0
	addq	$8, %rsp
	.cfi_def_cfa_offset 40
	popq	%rbx
	.cfi_def_cfa_offset 32
.LVL296:
	popq	%rbp
	.cfi_def_cfa_offset 24
.LVL297:
	popq	%r12
	.cfi_def_cfa_offset 16
.LVL298:
	popq	%r13
	.cfi_def_cfa_offset 8
.LVL299:
	ret
	.cfi_endproc
.LFE17:
	.size	unroll10a_combine, .-unroll10a_combine
	.globl	unroll16a_combine
	.type	unroll16a_combine, @function
unroll16a_combine:
.LFB18:
	.loc 1 404 0
	.cfi_startproc
.LVL300:
	pushq	%r13
	.cfi_def_cfa_offset 16
	.cfi_offset 13, -16
	pushq	%r12
	.cfi_def_cfa_offset 24
	.cfi_offset 12, -24
	pushq	%rbp
	.cfi_def_cfa_offset 32
	.cfi_offset 6, -32
	pushq	%rbx
	.cfi_def_cfa_offset 40
	.cfi_offset 3, -40
	subq	$8, %rsp
	.cfi_def_cfa_offset 48
	movq	%rdi, %r13
	movq	%rsi, %r12
	.loc 1 406 0
	call	vec_length
.LVL301:
	movq	%rax, %rbx
.LVL302:
	.loc 1 407 0
	leaq	-15(%rax), %rbp
.LVL303:
	.loc 1 408 0
	movq	%r13, %rdi
	call	get_vec_start
.LVL304:
	.loc 1 412 0
	testq	%rbp, %rbp
	jle	.L116
	movq	%rax, %rdx
	.loc 1 409 0
	vmovss	.LC0(%rip), %xmm0
	.loc 1 412 0
	movl	$0, %ecx
.LVL305:
.L113:
	.loc 1 413 0 discriminator 2
	vmulss	(%rdx), %xmm0, %xmm0
.LVL306:
	vmulss	4(%rdx), %xmm0, %xmm0
.LVL307:
	.loc 1 414 0 discriminator 2
	vmulss	8(%rdx), %xmm0, %xmm0
.LVL308:
	vmulss	12(%rdx), %xmm0, %xmm0
.LVL309:
	.loc 1 415 0 discriminator 2
	vmulss	16(%rdx), %xmm0, %xmm0
.LVL310:
	vmulss	20(%rdx), %xmm0, %xmm0
.LVL311:
	.loc 1 416 0 discriminator 2
	vmulss	24(%rdx), %xmm0, %xmm0
.LVL312:
	vmulss	28(%rdx), %xmm0, %xmm0
.LVL313:
	.loc 1 417 0 discriminator 2
	vmulss	32(%rdx), %xmm0, %xmm0
.LVL314:
	vmulss	36(%rdx), %xmm0, %xmm0
.LVL315:
	.loc 1 418 0 discriminator 2
	vmulss	40(%rdx), %xmm0, %xmm0
.LVL316:
	vmulss	44(%rdx), %xmm0, %xmm0
.LVL317:
	.loc 1 419 0 discriminator 2
	vmulss	48(%rdx), %xmm0, %xmm0
.LVL318:
	vmulss	52(%rdx), %xmm0, %xmm0
.LVL319:
	.loc 1 420 0 discriminator 2
	vmulss	56(%rdx), %xmm0, %xmm0
.LVL320:
	vmulss	60(%rdx), %xmm0, %xmm0
.LVL321:
	.loc 1 412 0 discriminator 2
	addq	$16, %rcx
.LVL322:
	addq	$64, %rdx
	cmpq	%rcx, %rbp
	jg	.L113
	jmp	.L112
.LVL323:
.L116:
	.loc 1 409 0
	vmovss	.LC0(%rip), %xmm0
	.loc 1 412 0
	movl	$0, %ecx
.LVL324:
.L112:
	.loc 1 424 0 discriminator 1
	cmpq	%rcx, %rbx
	jle	.L114
.L115:
	.loc 1 425 0 discriminator 2
	vmulss	(%rax,%rcx,4), %xmm0, %xmm0
.LVL325:
	.loc 1 424 0 discriminator 2
	addq	$1, %rcx
.LVL326:
	cmpq	%rbx, %rcx
	jne	.L115
.L114:
	.loc 1 427 0
	vmovss	%xmm0, (%r12)
	.loc 1 428 0
	addq	$8, %rsp
	.cfi_def_cfa_offset 40
	popq	%rbx
	.cfi_def_cfa_offset 32
.LVL327:
	popq	%rbp
	.cfi_def_cfa_offset 24
.LVL328:
	popq	%r12
	.cfi_def_cfa_offset 16
.LVL329:
	popq	%r13
	.cfi_def_cfa_offset 8
.LVL330:
	ret
	.cfi_endproc
.LFE18:
	.size	unroll16a_combine, .-unroll16a_combine
	.globl	unroll2_combine
	.type	unroll2_combine, @function
unroll2_combine:
.LFB19:
	.loc 1 432 0
	.cfi_startproc
.LVL331:
	pushq	%r12
	.cfi_def_cfa_offset 16
	.cfi_offset 12, -16
	pushq	%rbp
	.cfi_def_cfa_offset 24
	.cfi_offset 6, -24
	pushq	%rbx
	.cfi_def_cfa_offset 32
	.cfi_offset 3, -32
	movq	%rdi, %r12
	movq	%rsi, %rbp
	.loc 1 433 0
	call	vec_length
.LVL332:
	movq	%rax, %rbx
.LVL333:
	.loc 1 434 0
	movq	%r12, %rdi
	call	get_vec_start
.LVL334:
	movq	%rax, %rcx
.LVL335:
	.loc 1 435 0
	movq	%rbx, %rax
.LVL336:
	shrq	$63, %rax
	leaq	(%rbx,%rax), %rsi
	andl	$1, %esi
	subq	%rax, %rsi
	.loc 1 436 0
	movslq	%esi, %rsi
	subq	%rsi, %rbx
.LVL337:
	leaq	(%rcx,%rbx,4), %rax
.LVL338:
	.loc 1 439 0
	cmpq	%rax, %rcx
	jae	.L124
	.loc 1 434 0
	movq	%rcx, %rdx
	.loc 1 437 0
	vmovss	.LC0(%rip), %xmm0
.LVL339:
.L121:
	.loc 1 440 0
	vmulss	(%rdx), %xmm0, %xmm0
.LVL340:
	.loc 1 441 0
	vmulss	4(%rdx), %xmm0, %xmm0
.LVL341:
	.loc 1 442 0
	addq	$8, %rdx
.LVL342:
	.loc 1 439 0
	cmpq	%rdx, %rax
	ja	.L121
	movq	%rcx, %rdx
.LVL343:
	notq	%rdx
	addq	%rax, %rdx
	shrq	$3, %rdx
	leaq	8(%rcx,%rdx,8), %rcx
	jmp	.L119
.LVL344:
.L124:
	.loc 1 437 0
	vmovss	.LC0(%rip), %xmm0
.LVL345:
.L119:
	.loc 1 444 0
	leaq	(%rax,%rsi,4), %rax
.LVL346:
	.loc 1 445 0
	cmpq	%rcx, %rax
	jbe	.L122
.L123:
	.loc 1 446 0
	vmulss	(%rcx), %xmm0, %xmm0
.LVL347:
	.loc 1 447 0
	addq	$4, %rcx
.LVL348:
	.loc 1 445 0
	cmpq	%rcx, %rax
	ja	.L123
.L122:
	.loc 1 449 0
	vmovss	%xmm0, 0(%rbp)
	.loc 1 450 0
	popq	%rbx
	.cfi_def_cfa_offset 24
	popq	%rbp
	.cfi_def_cfa_offset 16
.LVL349:
	popq	%r12
	.cfi_def_cfa_offset 8
.LVL350:
	ret
	.cfi_endproc
.LFE19:
	.size	unroll2_combine, .-unroll2_combine
	.globl	unroll3_combine
	.type	unroll3_combine, @function
unroll3_combine:
.LFB20:
	.loc 1 455 0
	.cfi_startproc
.LVL351:
	pushq	%r12
	.cfi_def_cfa_offset 16
	.cfi_offset 12, -16
	pushq	%rbp
	.cfi_def_cfa_offset 24
	.cfi_offset 6, -24
	pushq	%rbx
	.cfi_def_cfa_offset 32
	.cfi_offset 3, -32
	movq	%rdi, %rbx
	movq	%rsi, %rbp
	.loc 1 456 0
	call	vec_length
.LVL352:
	movq	%rax, %r12
.LVL353:
	.loc 1 457 0
	movq	%rbx, %rdi
	call	get_vec_start
.LVL354:
	movq	%rax, %rdx
.LVL355:
	.loc 1 458 0
	leaq	-8(%rax,%r12,4), %rax
.LVL356:
	.loc 1 461 0
	cmpq	%rax, %rdx
	jae	.L131
	.loc 1 459 0
	vmovss	.LC0(%rip), %xmm0
.LVL357:
.L128:
	.loc 1 462 0
	vmulss	(%rdx), %xmm0, %xmm0
.LVL358:
	.loc 1 463 0
	vmulss	4(%rdx), %xmm0, %xmm0
.LVL359:
	.loc 1 464 0
	vmulss	8(%rdx), %xmm0, %xmm0
.LVL360:
	.loc 1 465 0
	addq	$12, %rdx
.LVL361:
	.loc 1 461 0
	cmpq	%rdx, %rax
	ja	.L128
	jmp	.L127
.LVL362:
.L131:
	.loc 1 459 0
	vmovss	.LC0(%rip), %xmm0
.LVL363:
.L127:
	.loc 1 467 0
	addq	$8, %rax
.LVL364:
	.loc 1 468 0
	cmpq	%rdx, %rax
	jbe	.L129
.L130:
	.loc 1 469 0
	vmulss	(%rdx), %xmm0, %xmm0
.LVL365:
	.loc 1 470 0
	addq	$4, %rdx
.LVL366:
	.loc 1 468 0
	cmpq	%rdx, %rax
	ja	.L130
.L129:
	.loc 1 472 0
	vmovss	%xmm0, 0(%rbp)
	.loc 1 473 0
	popq	%rbx
	.cfi_def_cfa_offset 24
.LVL367:
	popq	%rbp
	.cfi_def_cfa_offset 16
.LVL368:
	popq	%r12
	.cfi_def_cfa_offset 8
.LVL369:
	ret
	.cfi_endproc
.LFE20:
	.size	unroll3_combine, .-unroll3_combine
	.globl	unroll4_combine
	.type	unroll4_combine, @function
unroll4_combine:
.LFB21:
	.loc 1 478 0
	.cfi_startproc
.LVL370:
	pushq	%r12
	.cfi_def_cfa_offset 16
	.cfi_offset 12, -16
	pushq	%rbp
	.cfi_def_cfa_offset 24
	.cfi_offset 6, -24
	pushq	%rbx
	.cfi_def_cfa_offset 32
	.cfi_offset 3, -32
	movq	%rdi, %rbx
	movq	%rsi, %rbp
	.loc 1 479 0
	call	vec_length
.LVL371:
	movq	%rax, %r12
.LVL372:
	.loc 1 480 0
	movq	%rbx, %rdi
	call	get_vec_start
.LVL373:
	movq	%rax, %rcx
.LVL374:
	.loc 1 481 0
	leaq	-12(%rax,%r12,4), %rax
.LVL375:
	.loc 1 484 0
	cmpq	%rax, %rcx
	jae	.L139
	.loc 1 480 0
	movq	%rcx, %rdx
	.loc 1 482 0
	vmovss	.LC0(%rip), %xmm0
.LVL376:
.L136:
	.loc 1 485 0
	vmulss	(%rdx), %xmm0, %xmm0
.LVL377:
	.loc 1 486 0
	vmulss	4(%rdx), %xmm0, %xmm0
.LVL378:
	.loc 1 487 0
	vmulss	8(%rdx), %xmm0, %xmm0
.LVL379:
	.loc 1 488 0
	vmulss	12(%rdx), %xmm0, %xmm0
.LVL380:
	.loc 1 489 0
	addq	$16, %rdx
.LVL381:
	.loc 1 484 0
	cmpq	%rdx, %rax
	ja	.L136
	movq	%rcx, %rdx
.LVL382:
	notq	%rdx
	addq	%rax, %rdx
	andq	$-16, %rdx
	leaq	16(%rcx,%rdx), %rcx
	jmp	.L134
.LVL383:
.L139:
	.loc 1 482 0
	vmovss	.LC0(%rip), %xmm0
.LVL384:
.L134:
	.loc 1 491 0
	addq	$12, %rax
.LVL385:
	.loc 1 492 0
	cmpq	%rcx, %rax
	jbe	.L137
.L138:
	.loc 1 493 0
	vmulss	(%rcx), %xmm0, %xmm0
.LVL386:
	.loc 1 494 0
	addq	$4, %rcx
.LVL387:
	.loc 1 492 0
	cmpq	%rcx, %rax
	ja	.L138
.L137:
	.loc 1 496 0
	vmovss	%xmm0, 0(%rbp)
	.loc 1 497 0
	popq	%rbx
	.cfi_def_cfa_offset 24
.LVL388:
	popq	%rbp
	.cfi_def_cfa_offset 16
.LVL389:
	popq	%r12
	.cfi_def_cfa_offset 8
.LVL390:
	ret
	.cfi_endproc
.LFE21:
	.size	unroll4_combine, .-unroll4_combine
	.globl	unroll8_combine
	.type	unroll8_combine, @function
unroll8_combine:
.LFB22:
	.loc 1 501 0
	.cfi_startproc
.LVL391:
	pushq	%r12
	.cfi_def_cfa_offset 16
	.cfi_offset 12, -16
	pushq	%rbp
	.cfi_def_cfa_offset 24
	.cfi_offset 6, -24
	pushq	%rbx
	.cfi_def_cfa_offset 32
	.cfi_offset 3, -32
	movq	%rdi, %r12
	movq	%rsi, %rbp
	.loc 1 502 0
	call	vec_length
.LVL392:
	movq	%rax, %rbx
.LVL393:
	.loc 1 503 0
	movq	%r12, %rdi
	call	get_vec_start
.LVL394:
	movq	%rax, %rcx
.LVL395:
	.loc 1 504 0
	movq	%rbx, %rax
.LVL396:
	sarq	$63, %rax
	shrq	$61, %rax
	leaq	(%rbx,%rax), %rsi
	andl	$7, %esi
	subq	%rax, %rsi
	.loc 1 505 0
	movslq	%esi, %rsi
	subq	%rsi, %rbx
.LVL397:
	leaq	(%rcx,%rbx,4), %rax
.LVL398:
	.loc 1 508 0
	cmpq	%rax, %rcx
	jae	.L147
	.loc 1 503 0
	movq	%rcx, %rdx
	.loc 1 506 0
	vmovss	.LC0(%rip), %xmm0
.LVL399:
.L144:
	.loc 1 509 0
	vmulss	(%rdx), %xmm0, %xmm0
.LVL400:
	.loc 1 510 0
	vmulss	4(%rdx), %xmm0, %xmm0
.LVL401:
	.loc 1 511 0
	vmulss	8(%rdx), %xmm0, %xmm0
.LVL402:
	.loc 1 512 0
	vmulss	12(%rdx), %xmm0, %xmm0
.LVL403:
	.loc 1 513 0
	vmulss	16(%rdx), %xmm0, %xmm0
.LVL404:
	.loc 1 514 0
	vmulss	20(%rdx), %xmm0, %xmm0
.LVL405:
	.loc 1 515 0
	vmulss	24(%rdx), %xmm0, %xmm0
.LVL406:
	.loc 1 516 0
	vmulss	28(%rdx), %xmm0, %xmm0
.LVL407:
	.loc 1 517 0
	addq	$32, %rdx
.LVL408:
	.loc 1 508 0
	cmpq	%rdx, %rax
	ja	.L144
	movq	%rcx, %rdx
.LVL409:
	notq	%rdx
	addq	%rax, %rdx
	andq	$-32, %rdx
	leaq	32(%rcx,%rdx), %rcx
	jmp	.L142
.LVL410:
.L147:
	.loc 1 506 0
	vmovss	.LC0(%rip), %xmm0
.LVL411:
.L142:
	.loc 1 519 0
	leaq	(%rax,%rsi,4), %rax
.LVL412:
	.loc 1 520 0
	cmpq	%rcx, %rax
	jbe	.L145
.L146:
	.loc 1 521 0
	vmulss	(%rcx), %xmm0, %xmm0
.LVL413:
	.loc 1 522 0
	addq	$4, %rcx
.LVL414:
	.loc 1 520 0
	cmpq	%rcx, %rax
	ja	.L146
.L145:
	.loc 1 524 0
	vmovss	%xmm0, 0(%rbp)
	.loc 1 525 0
	popq	%rbx
	.cfi_def_cfa_offset 24
	popq	%rbp
	.cfi_def_cfa_offset 16
.LVL415:
	popq	%r12
	.cfi_def_cfa_offset 8
.LVL416:
	ret
	.cfi_endproc
.LFE22:
	.size	unroll8_combine, .-unroll8_combine
	.globl	unroll16_combine
	.type	unroll16_combine, @function
unroll16_combine:
.LFB23:
	.loc 1 529 0
	.cfi_startproc
.LVL417:
	pushq	%r12
	.cfi_def_cfa_offset 16
	.cfi_offset 12, -16
	pushq	%rbp
	.cfi_def_cfa_offset 24
	.cfi_offset 6, -24
	pushq	%rbx
	.cfi_def_cfa_offset 32
	.cfi_offset 3, -32
	movq	%rdi, %r12
	movq	%rsi, %rbp
	.loc 1 530 0
	call	vec_length
.LVL418:
	movq	%rax, %rbx
.LVL419:
	.loc 1 531 0
	movq	%r12, %rdi
	call	get_vec_start
.LVL420:
	movq	%rax, %rcx
.LVL421:
	.loc 1 532 0
	movq	%rbx, %rax
.LVL422:
	sarq	$63, %rax
	shrq	$60, %rax
	leaq	(%rbx,%rax), %rsi
	andl	$15, %esi
	subq	%rax, %rsi
	.loc 1 533 0
	movslq	%esi, %rsi
	subq	%rsi, %rbx
.LVL423:
	leaq	(%rcx,%rbx,4), %rax
.LVL424:
	.loc 1 536 0
	cmpq	%rax, %rcx
	jae	.L155
	.loc 1 531 0
	movq	%rcx, %rdx
	.loc 1 534 0
	vmovss	.LC0(%rip), %xmm0
.LVL425:
.L152:
	.loc 1 537 0
	vmulss	(%rdx), %xmm0, %xmm0
.LVL426:
	.loc 1 538 0
	vmulss	4(%rdx), %xmm0, %xmm0
.LVL427:
	.loc 1 539 0
	vmulss	8(%rdx), %xmm0, %xmm0
.LVL428:
	.loc 1 540 0
	vmulss	12(%rdx), %xmm0, %xmm0
.LVL429:
	.loc 1 541 0
	vmulss	16(%rdx), %xmm0, %xmm0
.LVL430:
	.loc 1 542 0
	vmulss	20(%rdx), %xmm0, %xmm0
.LVL431:
	.loc 1 543 0
	vmulss	24(%rdx), %xmm0, %xmm0
.LVL432:
	.loc 1 544 0
	vmulss	28(%rdx), %xmm0, %xmm0
.LVL433:
	.loc 1 545 0
	vmulss	32(%rdx), %xmm0, %xmm0
.LVL434:
	.loc 1 546 0
	vmulss	36(%rdx), %xmm0, %xmm0
.LVL435:
	.loc 1 547 0
	vmulss	40(%rdx), %xmm0, %xmm0
.LVL436:
	.loc 1 548 0
	vmulss	44(%rdx), %xmm0, %xmm0
.LVL437:
	.loc 1 549 0
	vmulss	48(%rdx), %xmm0, %xmm0
.LVL438:
	.loc 1 550 0
	vmulss	52(%rdx), %xmm0, %xmm0
.LVL439:
	.loc 1 551 0
	vmulss	56(%rdx), %xmm0, %xmm0
.LVL440:
	.loc 1 552 0
	vmulss	60(%rdx), %xmm0, %xmm0
.LVL441:
	.loc 1 553 0
	addq	$64, %rdx
.LVL442:
	.loc 1 536 0
	cmpq	%rdx, %rax
	ja	.L152
	movq	%rcx, %rdx
.LVL443:
	notq	%rdx
	addq	%rax, %rdx
	andq	$-64, %rdx
	leaq	64(%rcx,%rdx), %rcx
	jmp	.L150
.LVL444:
.L155:
	.loc 1 534 0
	vmovss	.LC0(%rip), %xmm0
.LVL445:
.L150:
	.loc 1 555 0
	leaq	(%rax,%rsi,4), %rax
.LVL446:
	.loc 1 556 0
	cmpq	%rcx, %rax
	jbe	.L153
.L154:
	.loc 1 557 0
	vmulss	(%rcx), %xmm0, %xmm0
.LVL447:
	.loc 1 558 0
	addq	$4, %rcx
.LVL448:
	.loc 1 556 0
	cmpq	%rcx, %rax
	ja	.L154
.L153:
	.loc 1 560 0
	vmovss	%xmm0, 0(%rbp)
	.loc 1 561 0
	popq	%rbx
	.cfi_def_cfa_offset 24
	popq	%rbp
	.cfi_def_cfa_offset 16
.LVL449:
	popq	%r12
	.cfi_def_cfa_offset 8
.LVL450:
	ret
	.cfi_endproc
.LFE23:
	.size	unroll16_combine, .-unroll16_combine
	.globl	combine6
	.type	combine6, @function
combine6:
.LFB24:
	.loc 1 568 0
	.cfi_startproc
.LVL451:
	pushq	%r13
	.cfi_def_cfa_offset 16
	.cfi_offset 13, -16
	pushq	%r12
	.cfi_def_cfa_offset 24
	.cfi_offset 12, -24
	pushq	%rbp
	.cfi_def_cfa_offset 32
	.cfi_offset 6, -32
	pushq	%rbx
	.cfi_def_cfa_offset 40
	.cfi_offset 3, -40
	subq	$8, %rsp
	.cfi_def_cfa_offset 48
	movq	%rdi, %r12
	movq	%rsi, %r13
	.loc 1 570 0
	call	vec_length
.LVL452:
	movq	%rax, %rbx
.LVL453:
	.loc 1 571 0
	leaq	-1(%rax), %rbp
.LVL454:
	.loc 1 572 0
	movq	%r12, %rdi
	call	get_vec_start
.LVL455:
	.loc 1 577 0
	testq	%rbp, %rbp
	jle	.L162
	.loc 1 574 0
	vmovss	.LC0(%rip), %xmm1
	.loc 1 573 0
	vmovaps	%xmm1, %xmm0
	.loc 1 577 0
	movl	$0, %edx
.LVL456:
.L159:
	.loc 1 578 0 discriminator 2
	vmulss	(%rax,%rdx,4), %xmm0, %xmm0
.LVL457:
	.loc 1 579 0 discriminator 2
	vmulss	4(%rax,%rdx,4), %xmm1, %xmm1
.LVL458:
	.loc 1 577 0 discriminator 2
	addq	$2, %rdx
.LVL459:
	cmpq	%rdx, %rbp
	jg	.L159
	jmp	.L158
.LVL460:
.L162:
	.loc 1 574 0
	vmovss	.LC0(%rip), %xmm1
	.loc 1 573 0
	vmovaps	%xmm1, %xmm0
	.loc 1 577 0
	movl	$0, %edx
.LVL461:
.L158:
	.loc 1 583 0 discriminator 1
	cmpq	%rdx, %rbx
	jle	.L160
.L161:
	.loc 1 584 0 discriminator 2
	vmulss	(%rax,%rdx,4), %xmm0, %xmm0
.LVL462:
	.loc 1 583 0 discriminator 2
	addq	$1, %rdx
.LVL463:
	cmpq	%rbx, %rdx
	jne	.L161
.L160:
	.loc 1 586 0
	vmulss	%xmm1, %xmm0, %xmm0
.LVL464:
	vmovss	%xmm0, 0(%r13)
	.loc 1 587 0
	addq	$8, %rsp
	.cfi_def_cfa_offset 40
	popq	%rbx
	.cfi_def_cfa_offset 32
.LVL465:
	popq	%rbp
	.cfi_def_cfa_offset 24
.LVL466:
	popq	%r12
	.cfi_def_cfa_offset 16
.LVL467:
	popq	%r13
	.cfi_def_cfa_offset 8
.LVL468:
	ret
	.cfi_endproc
.LFE24:
	.size	combine6, .-combine6
	.globl	unroll4x2a_combine
	.type	unroll4x2a_combine, @function
unroll4x2a_combine:
.LFB25:
	.loc 1 592 0
	.cfi_startproc
.LVL469:
	pushq	%r13
	.cfi_def_cfa_offset 16
	.cfi_offset 13, -16
	pushq	%r12
	.cfi_def_cfa_offset 24
	.cfi_offset 12, -24
	pushq	%rbp
	.cfi_def_cfa_offset 32
	.cfi_offset 6, -32
	pushq	%rbx
	.cfi_def_cfa_offset 40
	.cfi_offset 3, -40
	subq	$8, %rsp
	.cfi_def_cfa_offset 48
	movq	%rdi, %r12
	movq	%rsi, %r13
	.loc 1 594 0
	call	vec_length
.LVL470:
	movq	%rax, %rbx
.LVL471:
	.loc 1 595 0
	leaq	-3(%rax), %rbp
.LVL472:
	.loc 1 596 0
	movq	%r12, %rdi
	call	get_vec_start
.LVL473:
	.loc 1 601 0
	testq	%rbp, %rbp
	jle	.L169
	.loc 1 598 0
	vmovss	.LC0(%rip), %xmm1
	.loc 1 597 0
	vmovaps	%xmm1, %xmm0
	.loc 1 601 0
	movl	$0, %edx
.LVL474:
.L166:
	.loc 1 602 0 discriminator 2
	vmulss	(%rax,%rdx,4), %xmm0, %xmm0
.LVL475:
	vmulss	4(%rax,%rdx,4), %xmm1, %xmm1
.LVL476:
	.loc 1 603 0 discriminator 2
	vmulss	8(%rax,%rdx,4), %xmm0, %xmm0
.LVL477:
	vmulss	12(%rax,%rdx,4), %xmm1, %xmm1
.LVL478:
	.loc 1 601 0 discriminator 2
	addq	$4, %rdx
.LVL479:
	cmpq	%rdx, %rbp
	jg	.L166
	jmp	.L165
.LVL480:
.L169:
	.loc 1 598 0
	vmovss	.LC0(%rip), %xmm1
	.loc 1 597 0
	vmovaps	%xmm1, %xmm0
	.loc 1 601 0
	movl	$0, %edx
.LVL481:
.L165:
	.loc 1 607 0 discriminator 1
	cmpq	%rdx, %rbx
	jle	.L167
.L168:
	.loc 1 608 0 discriminator 2
	vmulss	(%rax,%rdx,4), %xmm0, %xmm0
.LVL482:
	.loc 1 607 0 discriminator 2
	addq	$1, %rdx
.LVL483:
	cmpq	%rbx, %rdx
	jne	.L168
.L167:
	.loc 1 610 0
	vmulss	%xmm1, %xmm0, %xmm0
.LVL484:
	vmovss	%xmm0, 0(%r13)
	.loc 1 611 0
	addq	$8, %rsp
	.cfi_def_cfa_offset 40
	popq	%rbx
	.cfi_def_cfa_offset 32
.LVL485:
	popq	%rbp
	.cfi_def_cfa_offset 24
.LVL486:
	popq	%r12
	.cfi_def_cfa_offset 16
.LVL487:
	popq	%r13
	.cfi_def_cfa_offset 8
.LVL488:
	ret
	.cfi_endproc
.LFE25:
	.size	unroll4x2a_combine, .-unroll4x2a_combine
	.globl	unroll8x2a_combine
	.type	unroll8x2a_combine, @function
unroll8x2a_combine:
.LFB26:
	.loc 1 616 0
	.cfi_startproc
.LVL489:
	pushq	%r13
	.cfi_def_cfa_offset 16
	.cfi_offset 13, -16
	pushq	%r12
	.cfi_def_cfa_offset 24
	.cfi_offset 12, -24
	pushq	%rbp
	.cfi_def_cfa_offset 32
	.cfi_offset 6, -32
	pushq	%rbx
	.cfi_def_cfa_offset 40
	.cfi_offset 3, -40
	subq	$8, %rsp
	.cfi_def_cfa_offset 48
	movq	%rdi, %r13
	movq	%rsi, %r12
	.loc 1 618 0
	call	vec_length
.LVL490:
	movq	%rax, %rbx
.LVL491:
	.loc 1 619 0
	leaq	-7(%rax), %rbp
.LVL492:
	.loc 1 620 0
	movq	%r13, %rdi
	call	get_vec_start
.LVL493:
	.loc 1 625 0
	testq	%rbp, %rbp
	jle	.L176
	movq	%rax, %rdx
	.loc 1 622 0
	vmovss	.LC0(%rip), %xmm1
	.loc 1 621 0
	vmovaps	%xmm1, %xmm0
	.loc 1 625 0
	movl	$0, %ecx
.LVL494:
.L173:
	.loc 1 626 0 discriminator 2
	vmulss	(%rdx), %xmm0, %xmm0
.LVL495:
	vmulss	4(%rdx), %xmm1, %xmm1
.LVL496:
	.loc 1 627 0 discriminator 2
	vmulss	8(%rdx), %xmm0, %xmm0
.LVL497:
	vmulss	12(%rdx), %xmm1, %xmm1
.LVL498:
	.loc 1 628 0 discriminator 2
	vmulss	16(%rdx), %xmm0, %xmm0
.LVL499:
	vmulss	20(%rdx), %xmm1, %xmm1
.LVL500:
	.loc 1 629 0 discriminator 2
	vmulss	24(%rdx), %xmm0, %xmm0
.LVL501:
	vmulss	28(%rdx), %xmm1, %xmm1
.LVL502:
	.loc 1 625 0 discriminator 2
	addq	$8, %rcx
.LVL503:
	addq	$32, %rdx
	cmpq	%rcx, %rbp
	jg	.L173
	jmp	.L172
.LVL504:
.L176:
	.loc 1 622 0
	vmovss	.LC0(%rip), %xmm1
	.loc 1 621 0
	vmovaps	%xmm1, %xmm0
	.loc 1 625 0
	movl	$0, %ecx
.LVL505:
.L172:
	.loc 1 633 0 discriminator 1
	cmpq	%rcx, %rbx
	jle	.L174
.L175:
	.loc 1 634 0 discriminator 2
	vmulss	(%rax,%rcx,4), %xmm0, %xmm0
.LVL506:
	.loc 1 633 0 discriminator 2
	addq	$1, %rcx
.LVL507:
	cmpq	%rbx, %rcx
	jne	.L175
.L174:
	.loc 1 636 0
	vmulss	%xmm1, %xmm0, %xmm0
.LVL508:
	vmovss	%xmm0, (%r12)
	.loc 1 637 0
	addq	$8, %rsp
	.cfi_def_cfa_offset 40
	popq	%rbx
	.cfi_def_cfa_offset 32
.LVL509:
	popq	%rbp
	.cfi_def_cfa_offset 24
.LVL510:
	popq	%r12
	.cfi_def_cfa_offset 16
.LVL511:
	popq	%r13
	.cfi_def_cfa_offset 8
.LVL512:
	ret
	.cfi_endproc
.LFE26:
	.size	unroll8x2a_combine, .-unroll8x2a_combine
	.globl	unroll3x3a_combine
	.type	unroll3x3a_combine, @function
unroll3x3a_combine:
.LFB27:
	.loc 1 641 0
	.cfi_startproc
.LVL513:
	pushq	%r13
	.cfi_def_cfa_offset 16
	.cfi_offset 13, -16
	pushq	%r12
	.cfi_def_cfa_offset 24
	.cfi_offset 12, -24
	pushq	%rbp
	.cfi_def_cfa_offset 32
	.cfi_offset 6, -32
	pushq	%rbx
	.cfi_def_cfa_offset 40
	.cfi_offset 3, -40
	subq	$8, %rsp
	.cfi_def_cfa_offset 48
	movq	%rdi, %r12
	movq	%rsi, %r13
	.loc 1 643 0
	call	vec_length
.LVL514:
	movq	%rax, %rbx
.LVL515:
	.loc 1 644 0
	leaq	-2(%rax), %rbp
.LVL516:
	.loc 1 645 0
	movq	%r12, %rdi
	call	get_vec_start
.LVL517:
	.loc 1 651 0
	testq	%rbp, %rbp
	jle	.L183
	.loc 1 648 0
	vmovss	.LC0(%rip), %xmm1
	.loc 1 647 0
	vmovaps	%xmm1, %xmm2
	.loc 1 646 0
	vmovaps	%xmm1, %xmm0
	.loc 1 651 0
	movl	$0, %edx
.LVL518:
.L180:
	.loc 1 652 0 discriminator 2
	vmulss	(%rax,%rdx,4), %xmm0, %xmm0
.LVL519:
	vmulss	4(%rax,%rdx,4), %xmm2, %xmm2
.LVL520:
	.loc 1 653 0 discriminator 2
	vmulss	8(%rax,%rdx,4), %xmm1, %xmm1
.LVL521:
	.loc 1 651 0 discriminator 2
	addq	$3, %rdx
.LVL522:
	cmpq	%rdx, %rbp
	jg	.L180
	jmp	.L179
.LVL523:
.L183:
	.loc 1 648 0
	vmovss	.LC0(%rip), %xmm1
	.loc 1 647 0
	vmovaps	%xmm1, %xmm2
	.loc 1 646 0
	vmovaps	%xmm1, %xmm0
	.loc 1 651 0
	movl	$0, %edx
.LVL524:
.L179:
	.loc 1 657 0 discriminator 1
	cmpq	%rdx, %rbx
	jle	.L181
.L182:
	.loc 1 658 0 discriminator 2
	vmulss	(%rax,%rdx,4), %xmm0, %xmm0
.LVL525:
	.loc 1 657 0 discriminator 2
	addq	$1, %rdx
.LVL526:
	cmpq	%rbx, %rdx
	jne	.L182
.L181:
	.loc 1 660 0
	vmulss	%xmm2, %xmm0, %xmm0
.LVL527:
	vmulss	%xmm1, %xmm0, %xmm1
	vmovss	%xmm1, 0(%r13)
	.loc 1 661 0
	addq	$8, %rsp
	.cfi_def_cfa_offset 40
	popq	%rbx
	.cfi_def_cfa_offset 32
.LVL528:
	popq	%rbp
	.cfi_def_cfa_offset 24
.LVL529:
	popq	%r12
	.cfi_def_cfa_offset 16
.LVL530:
	popq	%r13
	.cfi_def_cfa_offset 8
.LVL531:
	ret
	.cfi_endproc
.LFE27:
	.size	unroll3x3a_combine, .-unroll3x3a_combine
	.globl	unroll4x4a_combine
	.type	unroll4x4a_combine, @function
unroll4x4a_combine:
.LFB28:
	.loc 1 666 0
	.cfi_startproc
.LVL532:
	pushq	%r13
	.cfi_def_cfa_offset 16
	.cfi_offset 13, -16
	pushq	%r12
	.cfi_def_cfa_offset 24
	.cfi_offset 12, -24
	pushq	%rbp
	.cfi_def_cfa_offset 32
	.cfi_offset 6, -32
	pushq	%rbx
	.cfi_def_cfa_offset 40
	.cfi_offset 3, -40
	subq	$8, %rsp
	.cfi_def_cfa_offset 48
	movq	%rdi, %r12
	movq	%rsi, %r13
	.loc 1 668 0
	call	vec_length
.LVL533:
	movq	%rax, %rbx
.LVL534:
	.loc 1 669 0
	leaq	-3(%rax), %rbp
.LVL535:
	.loc 1 670 0
	movq	%r12, %rdi
	call	get_vec_start
.LVL536:
	.loc 1 677 0
	testq	%rbp, %rbp
	jle	.L190
	.loc 1 674 0
	vmovss	.LC0(%rip), %xmm1
	.loc 1 673 0
	vmovaps	%xmm1, %xmm2
	.loc 1 672 0
	vmovaps	%xmm1, %xmm3
	.loc 1 671 0
	vmovaps	%xmm1, %xmm0
	.loc 1 677 0
	movl	$0, %edx
.LVL537:
.L187:
	.loc 1 678 0 discriminator 2
	vmulss	(%rax,%rdx,4), %xmm0, %xmm0
.LVL538:
	vmulss	4(%rax,%rdx,4), %xmm3, %xmm3
.LVL539:
	.loc 1 679 0 discriminator 2
	vmulss	8(%rax,%rdx,4), %xmm2, %xmm2
.LVL540:
	vmulss	12(%rax,%rdx,4), %xmm1, %xmm1
.LVL541:
	.loc 1 677 0 discriminator 2
	addq	$4, %rdx
.LVL542:
	cmpq	%rdx, %rbp
	jg	.L187
	jmp	.L186
.LVL543:
.L190:
	.loc 1 674 0
	vmovss	.LC0(%rip), %xmm1
	.loc 1 673 0
	vmovaps	%xmm1, %xmm2
	.loc 1 672 0
	vmovaps	%xmm1, %xmm3
	.loc 1 671 0
	vmovaps	%xmm1, %xmm0
	.loc 1 677 0
	movl	$0, %edx
.LVL544:
.L186:
	.loc 1 683 0 discriminator 1
	cmpq	%rdx, %rbx
	jle	.L188
.L189:
	.loc 1 684 0 discriminator 2
	vmulss	(%rax,%rdx,4), %xmm0, %xmm0
.LVL545:
	.loc 1 683 0 discriminator 2
	addq	$1, %rdx
.LVL546:
	cmpq	%rbx, %rdx
	jne	.L189
.L188:
	.loc 1 686 0
	vmulss	%xmm3, %xmm0, %xmm0
.LVL547:
	vmulss	%xmm1, %xmm2, %xmm1
	vmulss	%xmm1, %xmm0, %xmm0
	vmovss	%xmm0, 0(%r13)
	.loc 1 688 0
	addq	$8, %rsp
	.cfi_def_cfa_offset 40
	popq	%rbx
	.cfi_def_cfa_offset 32
.LVL548:
	popq	%rbp
	.cfi_def_cfa_offset 24
.LVL549:
	popq	%r12
	.cfi_def_cfa_offset 16
.LVL550:
	popq	%r13
	.cfi_def_cfa_offset 8
.LVL551:
	ret
	.cfi_endproc
.LFE28:
	.size	unroll4x4a_combine, .-unroll4x4a_combine
	.globl	unroll8x4a_combine
	.type	unroll8x4a_combine, @function
unroll8x4a_combine:
.LFB29:
	.loc 1 692 0
	.cfi_startproc
.LVL552:
	pushq	%r13
	.cfi_def_cfa_offset 16
	.cfi_offset 13, -16
	pushq	%r12
	.cfi_def_cfa_offset 24
	.cfi_offset 12, -24
	pushq	%rbp
	.cfi_def_cfa_offset 32
	.cfi_offset 6, -32
	pushq	%rbx
	.cfi_def_cfa_offset 40
	.cfi_offset 3, -40
	subq	$8, %rsp
	.cfi_def_cfa_offset 48
	movq	%rdi, %r13
	movq	%rsi, %r12
	.loc 1 694 0
	call	vec_length
.LVL553:
	movq	%rax, %rbx
.LVL554:
	.loc 1 695 0
	leaq	-7(%rax), %rbp
.LVL555:
	.loc 1 696 0
	movq	%r13, %rdi
	call	get_vec_start
.LVL556:
	.loc 1 703 0
	testq	%rbp, %rbp
	jle	.L197
	movq	%rax, %rdx
	.loc 1 700 0
	vmovss	.LC0(%rip), %xmm1
	.loc 1 699 0
	vmovaps	%xmm1, %xmm2
	.loc 1 698 0
	vmovaps	%xmm1, %xmm3
	.loc 1 697 0
	vmovaps	%xmm1, %xmm0
	.loc 1 703 0
	movl	$0, %ecx
.LVL557:
.L194:
	.loc 1 704 0 discriminator 2
	vmulss	(%rdx), %xmm0, %xmm0
.LVL558:
	vmulss	4(%rdx), %xmm3, %xmm3
.LVL559:
	.loc 1 705 0 discriminator 2
	vmulss	8(%rdx), %xmm2, %xmm2
.LVL560:
	vmulss	12(%rdx), %xmm1, %xmm1
.LVL561:
	.loc 1 706 0 discriminator 2
	vmulss	16(%rdx), %xmm0, %xmm0
.LVL562:
	vmulss	20(%rdx), %xmm3, %xmm3
.LVL563:
	.loc 1 707 0 discriminator 2
	vmulss	24(%rdx), %xmm2, %xmm2
.LVL564:
	vmulss	28(%rdx), %xmm1, %xmm1
.LVL565:
	.loc 1 703 0 discriminator 2
	addq	$8, %rcx
.LVL566:
	addq	$32, %rdx
	cmpq	%rcx, %rbp
	jg	.L194
	jmp	.L193
.LVL567:
.L197:
	.loc 1 700 0
	vmovss	.LC0(%rip), %xmm1
	.loc 1 699 0
	vmovaps	%xmm1, %xmm2
	.loc 1 698 0
	vmovaps	%xmm1, %xmm3
	.loc 1 697 0
	vmovaps	%xmm1, %xmm0
	.loc 1 703 0
	movl	$0, %ecx
.LVL568:
.L193:
	.loc 1 711 0 discriminator 1
	cmpq	%rcx, %rbx
	jle	.L195
.L196:
	.loc 1 712 0 discriminator 2
	vmulss	(%rax,%rcx,4), %xmm0, %xmm0
.LVL569:
	.loc 1 711 0 discriminator 2
	addq	$1, %rcx
.LVL570:
	cmpq	%rbx, %rcx
	jne	.L196
.L195:
	.loc 1 714 0
	vmulss	%xmm3, %xmm0, %xmm0
.LVL571:
	vmulss	%xmm2, %xmm0, %xmm2
	vmulss	%xmm1, %xmm2, %xmm1
	vmovss	%xmm1, (%r12)
	.loc 1 715 0
	addq	$8, %rsp
	.cfi_def_cfa_offset 40
	popq	%rbx
	.cfi_def_cfa_offset 32
.LVL572:
	popq	%rbp
	.cfi_def_cfa_offset 24
.LVL573:
	popq	%r12
	.cfi_def_cfa_offset 16
.LVL574:
	popq	%r13
	.cfi_def_cfa_offset 8
.LVL575:
	ret
	.cfi_endproc
.LFE29:
	.size	unroll8x4a_combine, .-unroll8x4a_combine
	.globl	unroll12x6a_combine
	.type	unroll12x6a_combine, @function
unroll12x6a_combine:
.LFB30:
	.loc 1 719 0
	.cfi_startproc
.LVL576:
	pushq	%r13
	.cfi_def_cfa_offset 16
	.cfi_offset 13, -16
	pushq	%r12
	.cfi_def_cfa_offset 24
	.cfi_offset 12, -24
	pushq	%rbp
	.cfi_def_cfa_offset 32
	.cfi_offset 6, -32
	pushq	%rbx
	.cfi_def_cfa_offset 40
	.cfi_offset 3, -40
	subq	$8, %rsp
	.cfi_def_cfa_offset 48
	movq	%rdi, %r13
	movq	%rsi, %r12
	.loc 1 721 0
	call	vec_length
.LVL577:
	movq	%rax, %rbx
.LVL578:
	.loc 1 722 0
	leaq	-11(%rax), %rbp
.LVL579:
	.loc 1 723 0
	movq	%r13, %rdi
	call	get_vec_start
.LVL580:
	.loc 1 732 0
	testq	%rbp, %rbp
	jle	.L204
	movq	%rax, %rdx
	.loc 1 729 0
	vmovss	.LC0(%rip), %xmm1
	.loc 1 728 0
	vmovaps	%xmm1, %xmm2
	.loc 1 727 0
	vmovaps	%xmm1, %xmm3
	.loc 1 726 0
	vmovaps	%xmm1, %xmm4
	.loc 1 725 0
	vmovaps	%xmm1, %xmm5
	.loc 1 724 0
	vmovaps	%xmm1, %xmm0
	.loc 1 732 0
	movl	$0, %ecx
.LVL581:
.L201:
	.loc 1 733 0 discriminator 2
	vmulss	(%rdx), %xmm0, %xmm0
.LVL582:
	.loc 1 734 0 discriminator 2
	vmulss	24(%rdx), %xmm0, %xmm0
.LVL583:
	.loc 1 735 0 discriminator 2
	vmulss	4(%rdx), %xmm5, %xmm5
.LVL584:
	.loc 1 736 0 discriminator 2
	vmulss	28(%rdx), %xmm5, %xmm5
.LVL585:
	.loc 1 737 0 discriminator 2
	vmulss	8(%rdx), %xmm4, %xmm4
.LVL586:
	.loc 1 738 0 discriminator 2
	vmulss	32(%rdx), %xmm4, %xmm4
.LVL587:
	.loc 1 739 0 discriminator 2
	vmulss	12(%rdx), %xmm3, %xmm3
.LVL588:
	.loc 1 740 0 discriminator 2
	vmulss	36(%rdx), %xmm3, %xmm3
.LVL589:
	.loc 1 741 0 discriminator 2
	vmulss	16(%rdx), %xmm2, %xmm2
.LVL590:
	.loc 1 742 0 discriminator 2
	vmulss	40(%rdx), %xmm2, %xmm2
.LVL591:
	.loc 1 743 0 discriminator 2
	vmulss	20(%rdx), %xmm1, %xmm1
.LVL592:
	.loc 1 744 0 discriminator 2
	vmulss	44(%rdx), %xmm1, %xmm1
.LVL593:
	.loc 1 732 0 discriminator 2
	addq	$12, %rcx
.LVL594:
	addq	$48, %rdx
	cmpq	%rcx, %rbp
	jg	.L201
	jmp	.L200
.LVL595:
.L204:
	.loc 1 729 0
	vmovss	.LC0(%rip), %xmm1
	.loc 1 728 0
	vmovaps	%xmm1, %xmm2
	.loc 1 727 0
	vmovaps	%xmm1, %xmm3
	.loc 1 726 0
	vmovaps	%xmm1, %xmm4
	.loc 1 725 0
	vmovaps	%xmm1, %xmm5
	.loc 1 724 0
	vmovaps	%xmm1, %xmm0
	.loc 1 732 0
	movl	$0, %ecx
.LVL596:
.L200:
	.loc 1 748 0 discriminator 1
	cmpq	%rcx, %rbx
	jle	.L202
.L203:
	.loc 1 749 0 discriminator 2
	vmulss	(%rax,%rcx,4), %xmm0, %xmm0
.LVL597:
	.loc 1 748 0 discriminator 2
	addq	$1, %rcx
.LVL598:
	cmpq	%rbx, %rcx
	jne	.L203
.L202:
	.loc 1 751 0
	vmulss	%xmm5, %xmm0, %xmm0
.LVL599:
	vmulss	%xmm3, %xmm4, %xmm3
	vmulss	%xmm3, %xmm0, %xmm0
	vmulss	%xmm1, %xmm2, %xmm2
	vmulss	%xmm2, %xmm0, %xmm1
	vmovss	%xmm1, (%r12)
	.loc 1 752 0
	addq	$8, %rsp
	.cfi_def_cfa_offset 40
	popq	%rbx
	.cfi_def_cfa_offset 32
.LVL600:
	popq	%rbp
	.cfi_def_cfa_offset 24
.LVL601:
	popq	%r12
	.cfi_def_cfa_offset 16
.LVL602:
	popq	%r13
	.cfi_def_cfa_offset 8
.LVL603:
	ret
	.cfi_endproc
.LFE30:
	.size	unroll12x6a_combine, .-unroll12x6a_combine
	.globl	unroll12x12a_combine
	.type	unroll12x12a_combine, @function
unroll12x12a_combine:
.LFB31:
	.loc 1 756 0
	.cfi_startproc
.LVL604:
	pushq	%r13
	.cfi_def_cfa_offset 16
	.cfi_offset 13, -16
	pushq	%r12
	.cfi_def_cfa_offset 24
	.cfi_offset 12, -24
	pushq	%rbp
	.cfi_def_cfa_offset 32
	.cfi_offset 6, -32
	pushq	%rbx
	.cfi_def_cfa_offset 40
	.cfi_offset 3, -40
	subq	$8, %rsp
	.cfi_def_cfa_offset 48
	movq	%rdi, %r13
	movq	%rsi, %r12
	.loc 1 758 0
	call	vec_length
.LVL605:
	movq	%rax, %rbx
.LVL606:
	.loc 1 759 0
	leaq	-11(%rax), %rbp
.LVL607:
	.loc 1 760 0
	movq	%r13, %rdi
	call	get_vec_start
.LVL608:
	.loc 1 775 0
	testq	%rbp, %rbp
	jle	.L211
	movq	%rax, %rdx
	.loc 1 772 0
	vmovss	.LC0(%rip), %xmm1
	.loc 1 771 0
	vmovaps	%xmm1, %xmm2
	.loc 1 770 0
	vmovaps	%xmm1, %xmm3
	.loc 1 769 0
	vmovaps	%xmm1, %xmm4
	.loc 1 768 0
	vmovaps	%xmm1, %xmm5
	.loc 1 767 0
	vmovaps	%xmm1, %xmm6
	.loc 1 766 0
	vmovaps	%xmm1, %xmm7
	.loc 1 765 0
	vmovaps	%xmm1, %xmm8
	.loc 1 764 0
	vmovaps	%xmm1, %xmm9
	.loc 1 763 0
	vmovaps	%xmm1, %xmm10
	.loc 1 762 0
	vmovaps	%xmm1, %xmm11
	.loc 1 761 0
	vmovaps	%xmm1, %xmm0
	.loc 1 775 0
	movl	$0, %ecx
.LVL609:
.L208:
	.loc 1 776 0 discriminator 2
	vmulss	(%rdx), %xmm0, %xmm0
.LVL610:
	.loc 1 777 0 discriminator 2
	vmulss	24(%rdx), %xmm6, %xmm6
.LVL611:
	.loc 1 778 0 discriminator 2
	vmulss	4(%rdx), %xmm11, %xmm11
.LVL612:
	.loc 1 779 0 discriminator 2
	vmulss	28(%rdx), %xmm5, %xmm5
.LVL613:
	.loc 1 780 0 discriminator 2
	vmulss	8(%rdx), %xmm10, %xmm10
.LVL614:
	.loc 1 781 0 discriminator 2
	vmulss	32(%rdx), %xmm4, %xmm4
.LVL615:
	.loc 1 782 0 discriminator 2
	vmulss	12(%rdx), %xmm9, %xmm9
.LVL616:
	.loc 1 783 0 discriminator 2
	vmulss	36(%rdx), %xmm3, %xmm3
.LVL617:
	.loc 1 784 0 discriminator 2
	vmulss	16(%rdx), %xmm8, %xmm8
.LVL618:
	.loc 1 785 0 discriminator 2
	vmulss	40(%rdx), %xmm2, %xmm2
.LVL619:
	.loc 1 786 0 discriminator 2
	vmulss	20(%rdx), %xmm7, %xmm7
.LVL620:
	.loc 1 787 0 discriminator 2
	vmulss	44(%rdx), %xmm1, %xmm1
.LVL621:
	.loc 1 775 0 discriminator 2
	addq	$12, %rcx
.LVL622:
	addq	$48, %rdx
	cmpq	%rcx, %rbp
	jg	.L208
	jmp	.L207
.LVL623:
.L211:
	.loc 1 772 0
	vmovss	.LC0(%rip), %xmm1
	.loc 1 771 0
	vmovaps	%xmm1, %xmm2
	.loc 1 770 0
	vmovaps	%xmm1, %xmm3
	.loc 1 769 0
	vmovaps	%xmm1, %xmm4
	.loc 1 768 0
	vmovaps	%xmm1, %xmm5
	.loc 1 767 0
	vmovaps	%xmm1, %xmm6
	.loc 1 766 0
	vmovaps	%xmm1, %xmm7
	.loc 1 765 0
	vmovaps	%xmm1, %xmm8
	.loc 1 764 0
	vmovaps	%xmm1, %xmm9
	.loc 1 763 0
	vmovaps	%xmm1, %xmm10
	.loc 1 762 0
	vmovaps	%xmm1, %xmm11
	.loc 1 761 0
	vmovaps	%xmm1, %xmm0
	.loc 1 775 0
	movl	$0, %ecx
.LVL624:
.L207:
	.loc 1 791 0 discriminator 1
	cmpq	%rcx, %rbx
	jle	.L209
.L210:
	.loc 1 792 0 discriminator 2
	vmulss	(%rax,%rcx,4), %xmm0, %xmm0
.LVL625:
	.loc 1 791 0 discriminator 2
	addq	$1, %rcx
.LVL626:
	cmpq	%rbx, %rcx
	jne	.L210
.L209:
	.loc 1 794 0
	vmulss	%xmm11, %xmm0, %xmm0
.LVL627:
	vmulss	%xmm9, %xmm10, %xmm9
	vmulss	%xmm9, %xmm0, %xmm0
	vmulss	%xmm7, %xmm8, %xmm8
	vmulss	%xmm8, %xmm0, %xmm7
	.loc 1 795 0
	vmulss	%xmm5, %xmm6, %xmm6
	vmulss	%xmm6, %xmm7, %xmm5
	vmulss	%xmm3, %xmm4, %xmm4
	vmulss	%xmm4, %xmm5, %xmm3
	vmulss	%xmm1, %xmm2, %xmm2
	vmulss	%xmm2, %xmm3, %xmm1
	.loc 1 794 0
	vmovss	%xmm1, (%r12)
	.loc 1 796 0
	addq	$8, %rsp
	.cfi_def_cfa_offset 40
	popq	%rbx
	.cfi_def_cfa_offset 32
.LVL628:
	popq	%rbp
	.cfi_def_cfa_offset 24
.LVL629:
	popq	%r12
	.cfi_def_cfa_offset 16
.LVL630:
	popq	%r13
	.cfi_def_cfa_offset 8
.LVL631:
	ret
	.cfi_endproc
.LFE31:
	.size	unroll12x12a_combine, .-unroll12x12a_combine
	.globl	unroll16x16a_combine
	.type	unroll16x16a_combine, @function
unroll16x16a_combine:
.LFB32:
	.loc 1 800 0
	.cfi_startproc
.LVL632:
	pushq	%r13
	.cfi_def_cfa_offset 16
	.cfi_offset 13, -16
	pushq	%r12
	.cfi_def_cfa_offset 24
	.cfi_offset 12, -24
	pushq	%rbp
	.cfi_def_cfa_offset 32
	.cfi_offset 6, -32
	pushq	%rbx
	.cfi_def_cfa_offset 40
	.cfi_offset 3, -40
	subq	$8, %rsp
	.cfi_def_cfa_offset 48
	movq	%rdi, %r13
	movq	%rsi, %r12
	.loc 1 802 0
	call	vec_length
.LVL633:
	movq	%rax, %rbx
.LVL634:
	.loc 1 803 0
	leaq	-15(%rax), %rbp
.LVL635:
	.loc 1 804 0
	movq	%r13, %rdi
	call	get_vec_start
.LVL636:
	.loc 1 823 0
	testq	%rbp, %rbp
	jle	.L218
	movq	%rax, %rdx
	.loc 1 820 0
	vmovss	.LC0(%rip), %xmm1
	.loc 1 819 0
	vmovaps	%xmm1, %xmm2
	.loc 1 818 0
	vmovaps	%xmm1, %xmm3
	.loc 1 817 0
	vmovaps	%xmm1, %xmm4
	.loc 1 816 0
	vmovaps	%xmm1, %xmm5
	.loc 1 815 0
	vmovaps	%xmm1, %xmm6
	.loc 1 814 0
	vmovaps	%xmm1, %xmm7
	.loc 1 813 0
	vmovaps	%xmm1, %xmm8
	.loc 1 812 0
	vmovaps	%xmm1, %xmm9
	.loc 1 811 0
	vmovaps	%xmm1, %xmm10
	.loc 1 810 0
	vmovaps	%xmm1, %xmm11
	.loc 1 809 0
	vmovaps	%xmm1, %xmm12
	.loc 1 808 0
	vmovaps	%xmm1, %xmm13
	.loc 1 807 0
	vmovaps	%xmm1, %xmm14
	.loc 1 806 0
	vmovaps	%xmm1, %xmm15
	.loc 1 805 0
	vmovaps	%xmm1, %xmm0
	.loc 1 823 0
	movl	$0, %ecx
.LVL637:
.L215:
	.loc 1 824 0 discriminator 2
	vmulss	(%rdx), %xmm0, %xmm0
.LVL638:
	.loc 1 825 0 discriminator 2
	vmulss	24(%rdx), %xmm10, %xmm10
.LVL639:
	.loc 1 826 0 discriminator 2
	vmulss	4(%rdx), %xmm15, %xmm15
.LVL640:
	.loc 1 827 0 discriminator 2
	vmulss	28(%rdx), %xmm9, %xmm9
.LVL641:
	.loc 1 828 0 discriminator 2
	vmulss	8(%rdx), %xmm14, %xmm14
.LVL642:
	.loc 1 829 0 discriminator 2
	vmulss	32(%rdx), %xmm8, %xmm8
.LVL643:
	.loc 1 830 0 discriminator 2
	vmulss	12(%rdx), %xmm13, %xmm13
.LVL644:
	.loc 1 831 0 discriminator 2
	vmulss	36(%rdx), %xmm7, %xmm7
.LVL645:
	.loc 1 832 0 discriminator 2
	vmulss	16(%rdx), %xmm12, %xmm12
.LVL646:
	.loc 1 833 0 discriminator 2
	vmulss	40(%rdx), %xmm6, %xmm6
.LVL647:
	.loc 1 834 0 discriminator 2
	vmulss	20(%rdx), %xmm11, %xmm11
.LVL648:
	.loc 1 835 0 discriminator 2
	vmulss	44(%rdx), %xmm5, %xmm5
.LVL649:
	.loc 1 836 0 discriminator 2
	vmulss	48(%rdx), %xmm4, %xmm4
.LVL650:
	.loc 1 837 0 discriminator 2
	vmulss	52(%rdx), %xmm3, %xmm3
.LVL651:
	.loc 1 838 0 discriminator 2
	vmulss	56(%rdx), %xmm2, %xmm2
.LVL652:
	.loc 1 839 0 discriminator 2
	vmulss	60(%rdx), %xmm1, %xmm1
.LVL653:
	.loc 1 823 0 discriminator 2
	addq	$16, %rcx
.LVL654:
	addq	$64, %rdx
	cmpq	%rcx, %rbp
	jg	.L215
	jmp	.L214
.LVL655:
.L218:
	.loc 1 820 0
	vmovss	.LC0(%rip), %xmm1
	.loc 1 819 0
	vmovaps	%xmm1, %xmm2
	.loc 1 818 0
	vmovaps	%xmm1, %xmm3
	.loc 1 817 0
	vmovaps	%xmm1, %xmm4
	.loc 1 816 0
	vmovaps	%xmm1, %xmm5
	.loc 1 815 0
	vmovaps	%xmm1, %xmm6
	.loc 1 814 0
	vmovaps	%xmm1, %xmm7
	.loc 1 813 0
	vmovaps	%xmm1, %xmm8
	.loc 1 812 0
	vmovaps	%xmm1, %xmm9
	.loc 1 811 0
	vmovaps	%xmm1, %xmm10
	.loc 1 810 0
	vmovaps	%xmm1, %xmm11
	.loc 1 809 0
	vmovaps	%xmm1, %xmm12
	.loc 1 808 0
	vmovaps	%xmm1, %xmm13
	.loc 1 807 0
	vmovaps	%xmm1, %xmm14
	.loc 1 806 0
	vmovaps	%xmm1, %xmm15
	.loc 1 805 0
	vmovaps	%xmm1, %xmm0
	.loc 1 823 0
	movl	$0, %ecx
.LVL656:
.L214:
	.loc 1 843 0 discriminator 1
	cmpq	%rcx, %rbx
	jle	.L216
.L217:
	.loc 1 844 0 discriminator 2
	vmulss	(%rax,%rcx,4), %xmm0, %xmm0
.LVL657:
	.loc 1 843 0 discriminator 2
	addq	$1, %rcx
.LVL658:
	cmpq	%rbx, %rcx
	jne	.L217
.L216:
	.loc 1 846 0
	vmulss	%xmm15, %xmm0, %xmm0
.LVL659:
	vmulss	%xmm13, %xmm14, %xmm13
	vmulss	%xmm13, %xmm0, %xmm0
	vmulss	%xmm11, %xmm12, %xmm12
	vmulss	%xmm12, %xmm0, %xmm11
	.loc 1 847 0
	vmulss	%xmm9, %xmm10, %xmm9
	vmulss	%xmm7, %xmm8, %xmm7
	vmulss	%xmm7, %xmm9, %xmm7
	vmulss	%xmm5, %xmm6, %xmm6
	vmulss	%xmm6, %xmm7, %xmm5
	vmulss	%xmm5, %xmm11, %xmm5
	.loc 1 848 0
	vmulss	%xmm3, %xmm4, %xmm3
	vmulss	%xmm1, %xmm2, %xmm1
	vmulss	%xmm1, %xmm3, %xmm1
	vmulss	%xmm1, %xmm5, %xmm1
	.loc 1 846 0
	vmovss	%xmm1, (%r12)
	.loc 1 849 0
	addq	$8, %rsp
	.cfi_def_cfa_offset 40
	popq	%rbx
	.cfi_def_cfa_offset 32
.LVL660:
	popq	%rbp
	.cfi_def_cfa_offset 24
.LVL661:
	popq	%r12
	.cfi_def_cfa_offset 16
.LVL662:
	popq	%r13
	.cfi_def_cfa_offset 8
.LVL663:
	ret
	.cfi_endproc
.LFE32:
	.size	unroll16x16a_combine, .-unroll16x16a_combine
	.globl	unroll20x20a_combine
	.type	unroll20x20a_combine, @function
unroll20x20a_combine:
.LFB33:
	.loc 1 853 0
	.cfi_startproc
.LVL664:
	pushq	%r13
	.cfi_def_cfa_offset 16
	.cfi_offset 13, -16
	pushq	%r12
	.cfi_def_cfa_offset 24
	.cfi_offset 12, -24
	pushq	%rbp
	.cfi_def_cfa_offset 32
	.cfi_offset 6, -32
	pushq	%rbx
	.cfi_def_cfa_offset 40
	.cfi_offset 3, -40
	subq	$40, %rsp
	.cfi_def_cfa_offset 80
	movq	%rdi, %r13
	movq	%rsi, %r12
	.loc 1 855 0
	call	vec_length
.LVL665:
	movq	%rax, %rbx
.LVL666:
	.loc 1 856 0
	leaq	-19(%rax), %rbp
.LVL667:
	.loc 1 857 0
	movq	%r13, %rdi
	call	get_vec_start
.LVL668:
	.loc 1 880 0
	testq	%rbp, %rbp
	jle	.L225
	movq	%rax, %rdx
	.loc 1 877 0
	vmovss	.LC0(%rip), %xmm1
	.loc 1 876 0
	vmovaps	%xmm1, %xmm2
	.loc 1 875 0
	vmovaps	%xmm1, %xmm3
	.loc 1 874 0
	vmovaps	%xmm1, %xmm4
	.loc 1 873 0
	vmovaps	%xmm1, %xmm5
	.loc 1 872 0
	vmovaps	%xmm1, %xmm6
	.loc 1 871 0
	vmovaps	%xmm1, %xmm7
	.loc 1 870 0
	vmovaps	%xmm1, %xmm8
	.loc 1 869 0
	vmovaps	%xmm1, %xmm9
	.loc 1 868 0
	vmovaps	%xmm1, %xmm10
	.loc 1 867 0
	vmovss	%xmm1, 24(%rsp)
	.loc 1 866 0
	vmovss	%xmm1, 20(%rsp)
	.loc 1 865 0
	vmovss	%xmm1, 16(%rsp)
	.loc 1 864 0
	vmovss	%xmm1, 12(%rsp)
	.loc 1 863 0
	vmovaps	%xmm1, %xmm11
	.loc 1 862 0
	vmovaps	%xmm1, %xmm12
	.loc 1 861 0
	vmovaps	%xmm1, %xmm13
	.loc 1 860 0
	vmovaps	%xmm1, %xmm14
	.loc 1 859 0
	vmovaps	%xmm1, %xmm15
	.loc 1 880 0
	movl	$0, %ecx
	vmovss	%xmm1, 28(%rsp)
.LVL669:
.L222:
	.loc 1 881 0 discriminator 2
	vmovss	28(%rsp), %xmm0
	vmulss	(%rdx), %xmm0, %xmm0
	vmovss	%xmm0, 28(%rsp)
.LVL670:
	.loc 1 882 0 discriminator 2
	vmovss	12(%rsp), %xmm0
.LVL671:
	vmulss	24(%rdx), %xmm0, %xmm0
	vmovss	%xmm0, 12(%rsp)
.LVL672:
	.loc 1 883 0 discriminator 2
	vmulss	4(%rdx), %xmm15, %xmm15
.LVL673:
	.loc 1 884 0 discriminator 2
	vmovss	16(%rsp), %xmm0
.LVL674:
	vmulss	28(%rdx), %xmm0, %xmm0
	vmovss	%xmm0, 16(%rsp)
.LVL675:
	.loc 1 885 0 discriminator 2
	vmulss	8(%rdx), %xmm14, %xmm14
.LVL676:
	.loc 1 886 0 discriminator 2
	vmovss	20(%rsp), %xmm0
.LVL677:
	vmulss	32(%rdx), %xmm0, %xmm0
	vmovss	%xmm0, 20(%rsp)
.LVL678:
	.loc 1 887 0 discriminator 2
	vmulss	12(%rdx), %xmm13, %xmm13
.LVL679:
	.loc 1 888 0 discriminator 2
	vmovss	24(%rsp), %xmm0
.LVL680:
	vmulss	36(%rdx), %xmm0, %xmm0
	vmovss	%xmm0, 24(%rsp)
.LVL681:
	.loc 1 889 0 discriminator 2
	vmulss	16(%rdx), %xmm12, %xmm12
.LVL682:
	.loc 1 890 0 discriminator 2
	vmulss	40(%rdx), %xmm10, %xmm10
.LVL683:
	.loc 1 891 0 discriminator 2
	vmulss	20(%rdx), %xmm11, %xmm11
.LVL684:
	.loc 1 892 0 discriminator 2
	vmulss	44(%rdx), %xmm9, %xmm9
.LVL685:
	.loc 1 893 0 discriminator 2
	vmulss	48(%rdx), %xmm8, %xmm8
.LVL686:
	.loc 1 894 0 discriminator 2
	vmulss	52(%rdx), %xmm7, %xmm7
.LVL687:
	.loc 1 895 0 discriminator 2
	vmulss	56(%rdx), %xmm6, %xmm6
.LVL688:
	.loc 1 896 0 discriminator 2
	vmulss	60(%rdx), %xmm5, %xmm5
.LVL689:
	.loc 1 897 0 discriminator 2
	vmulss	64(%rdx), %xmm4, %xmm4
.LVL690:
	.loc 1 898 0 discriminator 2
	vmulss	68(%rdx), %xmm3, %xmm3
.LVL691:
	.loc 1 899 0 discriminator 2
	vmulss	72(%rdx), %xmm2, %xmm2
.LVL692:
	.loc 1 900 0 discriminator 2
	vmulss	76(%rdx), %xmm1, %xmm1
.LVL693:
	.loc 1 880 0 discriminator 2
	addq	$20, %rcx
.LVL694:
	addq	$80, %rdx
	cmpq	%rcx, %rbp
	jg	.L222
	vmovss	28(%rsp), %xmm0
.LVL695:
	jmp	.L221
.LVL696:
.L225:
	.loc 1 877 0
	vmovss	.LC0(%rip), %xmm1
	.loc 1 876 0
	vmovaps	%xmm1, %xmm2
	.loc 1 875 0
	vmovaps	%xmm1, %xmm3
	.loc 1 874 0
	vmovaps	%xmm1, %xmm4
	.loc 1 873 0
	vmovaps	%xmm1, %xmm5
	.loc 1 872 0
	vmovaps	%xmm1, %xmm6
	.loc 1 871 0
	vmovaps	%xmm1, %xmm7
	.loc 1 870 0
	vmovaps	%xmm1, %xmm8
	.loc 1 869 0
	vmovaps	%xmm1, %xmm9
	.loc 1 868 0
	vmovaps	%xmm1, %xmm10
	.loc 1 867 0
	vmovss	%xmm1, 24(%rsp)
	.loc 1 866 0
	vmovss	%xmm1, 20(%rsp)
	.loc 1 865 0
	vmovss	%xmm1, 16(%rsp)
	.loc 1 864 0
	vmovss	%xmm1, 12(%rsp)
	.loc 1 863 0
	vmovaps	%xmm1, %xmm11
	.loc 1 862 0
	vmovaps	%xmm1, %xmm12
	.loc 1 861 0
	vmovaps	%xmm1, %xmm13
	.loc 1 860 0
	vmovaps	%xmm1, %xmm14
	.loc 1 859 0
	vmovaps	%xmm1, %xmm15
	.loc 1 858 0
	vmovaps	%xmm1, %xmm0
	.loc 1 880 0
	movl	$0, %ecx
.LVL697:
.L221:
	.loc 1 904 0 discriminator 1
	cmpq	%rcx, %rbx
	jle	.L223
.L224:
	.loc 1 905 0 discriminator 2
	vmulss	(%rax,%rcx,4), %xmm0, %xmm0
.LVL698:
	.loc 1 904 0 discriminator 2
	addq	$1, %rcx
.LVL699:
	cmpq	%rbx, %rcx
	jne	.L224
.L223:
	.loc 1 908 0
	vmulss	%xmm15, %xmm0, %xmm0
.LVL700:
	vmulss	%xmm13, %xmm14, %xmm13
	vmulss	%xmm13, %xmm0, %xmm0
	vmulss	%xmm11, %xmm12, %xmm11
	vmulss	%xmm11, %xmm0, %xmm0
	.loc 1 909 0
	vmovss	12(%rsp), %xmm14
	vmulss	16(%rsp), %xmm14, %xmm12
	vmovss	20(%rsp), %xmm15
	vmulss	24(%rsp), %xmm15, %xmm11
	vmulss	%xmm11, %xmm12, %xmm11
	vmulss	%xmm9, %xmm10, %xmm10
	vmulss	%xmm10, %xmm11, %xmm9
	vmulss	%xmm9, %xmm0, %xmm0
	.loc 1 911 0
	vmulss	%xmm7, %xmm8, %xmm7
	vmulss	%xmm5, %xmm6, %xmm5
	vmulss	%xmm5, %xmm7, %xmm5
	vmulss	%xmm3, %xmm4, %xmm3
	vmulss	%xmm1, %xmm2, %xmm1
	vmulss	%xmm1, %xmm3, %xmm1
	vmulss	%xmm1, %xmm5, %xmm1
	.loc 1 910 0
	vmulss	%xmm1, %xmm0, %xmm0
	.loc 1 907 0
	vmovss	%xmm0, (%r12)
	.loc 1 912 0
	addq	$40, %rsp
	.cfi_def_cfa_offset 40
	popq	%rbx
	.cfi_def_cfa_offset 32
.LVL701:
	popq	%rbp
	.cfi_def_cfa_offset 24
.LVL702:
	popq	%r12
	.cfi_def_cfa_offset 16
.LVL703:
	popq	%r13
	.cfi_def_cfa_offset 8
.LVL704:
	ret
	.cfi_endproc
.LFE33:
	.size	unroll20x20a_combine, .-unroll20x20a_combine
	.globl	unroll5x5a_combine
	.type	unroll5x5a_combine, @function
unroll5x5a_combine:
.LFB34:
	.loc 1 917 0
	.cfi_startproc
.LVL705:
	pushq	%r13
	.cfi_def_cfa_offset 16
	.cfi_offset 13, -16
	pushq	%r12
	.cfi_def_cfa_offset 24
	.cfi_offset 12, -24
	pushq	%rbp
	.cfi_def_cfa_offset 32
	.cfi_offset 6, -32
	pushq	%rbx
	.cfi_def_cfa_offset 40
	.cfi_offset 3, -40
	subq	$8, %rsp
	.cfi_def_cfa_offset 48
	movq	%rdi, %r13
	movq	%rsi, %r12
	.loc 1 919 0
	call	vec_length
.LVL706:
	movq	%rax, %rbx
.LVL707:
	.loc 1 920 0
	leaq	-4(%rax), %rbp
.LVL708:
	.loc 1 921 0
	movq	%r13, %rdi
	call	get_vec_start
.LVL709:
	.loc 1 929 0
	testq	%rbp, %rbp
	jle	.L232
	movq	%rax, %rcx
	.loc 1 926 0
	vmovss	.LC0(%rip), %xmm1
	.loc 1 925 0
	vmovaps	%xmm1, %xmm2
	.loc 1 924 0
	vmovaps	%xmm1, %xmm3
	.loc 1 923 0
	vmovaps	%xmm1, %xmm4
	.loc 1 922 0
	vmovaps	%xmm1, %xmm0
	.loc 1 929 0
	movl	$0, %edx
.LVL710:
.L229:
	.loc 1 930 0 discriminator 2
	vmulss	(%rcx), %xmm0, %xmm0
.LVL711:
	vmulss	4(%rcx), %xmm4, %xmm4
.LVL712:
	.loc 1 931 0 discriminator 2
	vmulss	8(%rcx), %xmm3, %xmm3
.LVL713:
	vmulss	12(%rcx), %xmm2, %xmm2
.LVL714:
	.loc 1 932 0 discriminator 2
	vmulss	16(%rcx), %xmm1, %xmm1
.LVL715:
	.loc 1 929 0 discriminator 2
	addq	$5, %rdx
.LVL716:
	addq	$20, %rcx
	cmpq	%rdx, %rbp
	jg	.L229
	jmp	.L228
.LVL717:
.L232:
	.loc 1 926 0
	vmovss	.LC0(%rip), %xmm1
	.loc 1 925 0
	vmovaps	%xmm1, %xmm2
	.loc 1 924 0
	vmovaps	%xmm1, %xmm3
	.loc 1 923 0
	vmovaps	%xmm1, %xmm4
	.loc 1 922 0
	vmovaps	%xmm1, %xmm0
	.loc 1 929 0
	movl	$0, %edx
.LVL718:
.L228:
	.loc 1 936 0 discriminator 1
	cmpq	%rdx, %rbx
	jle	.L230
.L231:
	.loc 1 937 0 discriminator 2
	vmulss	(%rax,%rdx,4), %xmm0, %xmm0
.LVL719:
	.loc 1 936 0 discriminator 2
	addq	$1, %rdx
.LVL720:
	cmpq	%rbx, %rdx
	jne	.L231
.L230:
	.loc 1 939 0
	vmulss	%xmm4, %xmm0, %xmm0
.LVL721:
	vmulss	%xmm2, %xmm3, %xmm2
	vmulss	%xmm1, %xmm2, %xmm1
	vmulss	%xmm1, %xmm0, %xmm0
	vmovss	%xmm0, (%r12)
	.loc 1 940 0
	addq	$8, %rsp
	.cfi_def_cfa_offset 40
	popq	%rbx
	.cfi_def_cfa_offset 32
.LVL722:
	popq	%rbp
	.cfi_def_cfa_offset 24
.LVL723:
	popq	%r12
	.cfi_def_cfa_offset 16
.LVL724:
	popq	%r13
	.cfi_def_cfa_offset 8
.LVL725:
	ret
	.cfi_endproc
.LFE34:
	.size	unroll5x5a_combine, .-unroll5x5a_combine
	.globl	unroll6x6a_combine
	.type	unroll6x6a_combine, @function
unroll6x6a_combine:
.LFB35:
	.loc 1 944 0
	.cfi_startproc
.LVL726:
	pushq	%r13
	.cfi_def_cfa_offset 16
	.cfi_offset 13, -16
	pushq	%r12
	.cfi_def_cfa_offset 24
	.cfi_offset 12, -24
	pushq	%rbp
	.cfi_def_cfa_offset 32
	.cfi_offset 6, -32
	pushq	%rbx
	.cfi_def_cfa_offset 40
	.cfi_offset 3, -40
	subq	$8, %rsp
	.cfi_def_cfa_offset 48
	movq	%rdi, %r13
	movq	%rsi, %r12
	.loc 1 946 0
	call	vec_length
.LVL727:
	movq	%rax, %rbx
.LVL728:
	.loc 1 947 0
	leaq	-5(%rax), %rbp
.LVL729:
	.loc 1 948 0
	movq	%r13, %rdi
	call	get_vec_start
.LVL730:
	.loc 1 957 0
	testq	%rbp, %rbp
	jle	.L239
	movq	%rax, %rdx
	.loc 1 954 0
	vmovss	.LC0(%rip), %xmm1
	.loc 1 953 0
	vmovaps	%xmm1, %xmm2
	.loc 1 952 0
	vmovaps	%xmm1, %xmm3
	.loc 1 951 0
	vmovaps	%xmm1, %xmm4
	.loc 1 950 0
	vmovaps	%xmm1, %xmm5
	.loc 1 949 0
	vmovaps	%xmm1, %xmm0
	.loc 1 957 0
	movl	$0, %ecx
.LVL731:
.L236:
	.loc 1 958 0 discriminator 2
	vmulss	(%rdx), %xmm0, %xmm0
.LVL732:
	vmulss	4(%rdx), %xmm5, %xmm5
.LVL733:
	.loc 1 959 0 discriminator 2
	vmulss	8(%rdx), %xmm4, %xmm4
.LVL734:
	vmulss	12(%rdx), %xmm3, %xmm3
.LVL735:
	.loc 1 960 0 discriminator 2
	vmulss	16(%rdx), %xmm2, %xmm2
.LVL736:
	vmulss	20(%rdx), %xmm1, %xmm1
.LVL737:
	.loc 1 957 0 discriminator 2
	addq	$6, %rcx
.LVL738:
	addq	$24, %rdx
	cmpq	%rcx, %rbp
	jg	.L236
	jmp	.L235
.LVL739:
.L239:
	.loc 1 954 0
	vmovss	.LC0(%rip), %xmm1
	.loc 1 953 0
	vmovaps	%xmm1, %xmm2
	.loc 1 952 0
	vmovaps	%xmm1, %xmm3
	.loc 1 951 0
	vmovaps	%xmm1, %xmm4
	.loc 1 950 0
	vmovaps	%xmm1, %xmm5
	.loc 1 949 0
	vmovaps	%xmm1, %xmm0
	.loc 1 957 0
	movl	$0, %ecx
.LVL740:
.L235:
	.loc 1 964 0 discriminator 1
	cmpq	%rcx, %rbx
	jle	.L237
.L238:
	.loc 1 965 0 discriminator 2
	vmulss	(%rax,%rcx,4), %xmm0, %xmm0
.LVL741:
	.loc 1 964 0 discriminator 2
	addq	$1, %rcx
.LVL742:
	cmpq	%rbx, %rcx
	jne	.L238
.L237:
	.loc 1 967 0
	vmulss	%xmm5, %xmm0, %xmm0
.LVL743:
	vmulss	%xmm3, %xmm4, %xmm3
	vmulss	%xmm3, %xmm0, %xmm0
	vmulss	%xmm1, %xmm2, %xmm2
	vmulss	%xmm2, %xmm0, %xmm1
	vmovss	%xmm1, (%r12)
	.loc 1 968 0
	addq	$8, %rsp
	.cfi_def_cfa_offset 40
	popq	%rbx
	.cfi_def_cfa_offset 32
.LVL744:
	popq	%rbp
	.cfi_def_cfa_offset 24
.LVL745:
	popq	%r12
	.cfi_def_cfa_offset 16
.LVL746:
	popq	%r13
	.cfi_def_cfa_offset 8
.LVL747:
	ret
	.cfi_endproc
.LFE35:
	.size	unroll6x6a_combine, .-unroll6x6a_combine
	.globl	unroll7x7a_combine
	.type	unroll7x7a_combine, @function
unroll7x7a_combine:
.LFB36:
	.loc 1 972 0
	.cfi_startproc
.LVL748:
	pushq	%r13
	.cfi_def_cfa_offset 16
	.cfi_offset 13, -16
	pushq	%r12
	.cfi_def_cfa_offset 24
	.cfi_offset 12, -24
	pushq	%rbp
	.cfi_def_cfa_offset 32
	.cfi_offset 6, -32
	pushq	%rbx
	.cfi_def_cfa_offset 40
	.cfi_offset 3, -40
	subq	$8, %rsp
	.cfi_def_cfa_offset 48
	movq	%rdi, %r13
	movq	%rsi, %r12
	.loc 1 974 0
	call	vec_length
.LVL749:
	movq	%rax, %rbx
.LVL750:
	.loc 1 975 0
	leaq	-6(%rax), %rbp
.LVL751:
	.loc 1 976 0
	movq	%r13, %rdi
	call	get_vec_start
.LVL752:
	.loc 1 986 0
	testq	%rbp, %rbp
	jle	.L246
	movq	%rax, %rdx
	.loc 1 983 0
	vmovss	.LC0(%rip), %xmm1
	.loc 1 982 0
	vmovaps	%xmm1, %xmm2
	.loc 1 981 0
	vmovaps	%xmm1, %xmm3
	.loc 1 980 0
	vmovaps	%xmm1, %xmm4
	.loc 1 979 0
	vmovaps	%xmm1, %xmm5
	.loc 1 978 0
	vmovaps	%xmm1, %xmm6
	.loc 1 977 0
	vmovaps	%xmm1, %xmm0
	.loc 1 986 0
	movl	$0, %ecx
.LVL753:
.L243:
	.loc 1 987 0 discriminator 2
	vmulss	(%rdx), %xmm0, %xmm0
.LVL754:
	vmulss	4(%rdx), %xmm6, %xmm6
.LVL755:
	.loc 1 988 0 discriminator 2
	vmulss	8(%rdx), %xmm5, %xmm5
.LVL756:
	vmulss	12(%rdx), %xmm4, %xmm4
.LVL757:
	.loc 1 989 0 discriminator 2
	vmulss	16(%rdx), %xmm3, %xmm3
.LVL758:
	vmulss	20(%rdx), %xmm2, %xmm2
.LVL759:
	.loc 1 990 0 discriminator 2
	vmulss	24(%rdx), %xmm1, %xmm1
.LVL760:
	.loc 1 986 0 discriminator 2
	addq	$7, %rcx
.LVL761:
	addq	$28, %rdx
	cmpq	%rcx, %rbp
	jg	.L243
	jmp	.L242
.LVL762:
.L246:
	.loc 1 983 0
	vmovss	.LC0(%rip), %xmm1
	.loc 1 982 0
	vmovaps	%xmm1, %xmm2
	.loc 1 981 0
	vmovaps	%xmm1, %xmm3
	.loc 1 980 0
	vmovaps	%xmm1, %xmm4
	.loc 1 979 0
	vmovaps	%xmm1, %xmm5
	.loc 1 978 0
	vmovaps	%xmm1, %xmm6
	.loc 1 977 0
	vmovaps	%xmm1, %xmm0
	.loc 1 986 0
	movl	$0, %ecx
.LVL763:
.L242:
	.loc 1 994 0 discriminator 1
	cmpq	%rcx, %rbx
	jle	.L244
.L245:
	.loc 1 995 0 discriminator 2
	vmulss	(%rax,%rcx,4), %xmm0, %xmm0
.LVL764:
	.loc 1 994 0 discriminator 2
	addq	$1, %rcx
.LVL765:
	cmpq	%rbx, %rcx
	jne	.L245
.L244:
	.loc 1 997 0
	vmulss	%xmm6, %xmm0, %xmm0
.LVL766:
	vmulss	%xmm4, %xmm5, %xmm4
	vmulss	%xmm4, %xmm0, %xmm0
	vmulss	%xmm2, %xmm3, %xmm2
	vmulss	%xmm1, %xmm2, %xmm1
	vmulss	%xmm1, %xmm0, %xmm1
	vmovss	%xmm1, (%r12)
	.loc 1 998 0
	addq	$8, %rsp
	.cfi_def_cfa_offset 40
	popq	%rbx
	.cfi_def_cfa_offset 32
.LVL767:
	popq	%rbp
	.cfi_def_cfa_offset 24
.LVL768:
	popq	%r12
	.cfi_def_cfa_offset 16
.LVL769:
	popq	%r13
	.cfi_def_cfa_offset 8
.LVL770:
	ret
	.cfi_endproc
.LFE36:
	.size	unroll7x7a_combine, .-unroll7x7a_combine
	.globl	unroll8x8a_combine
	.type	unroll8x8a_combine, @function
unroll8x8a_combine:
.LFB37:
	.loc 1 1002 0
	.cfi_startproc
.LVL771:
	pushq	%r13
	.cfi_def_cfa_offset 16
	.cfi_offset 13, -16
	pushq	%r12
	.cfi_def_cfa_offset 24
	.cfi_offset 12, -24
	pushq	%rbp
	.cfi_def_cfa_offset 32
	.cfi_offset 6, -32
	pushq	%rbx
	.cfi_def_cfa_offset 40
	.cfi_offset 3, -40
	subq	$8, %rsp
	.cfi_def_cfa_offset 48
	movq	%rdi, %r13
	movq	%rsi, %r12
	.loc 1 1004 0
	call	vec_length
.LVL772:
	movq	%rax, %rbx
.LVL773:
	.loc 1 1005 0
	leaq	-7(%rax), %rbp
.LVL774:
	.loc 1 1006 0
	movq	%r13, %rdi
	call	get_vec_start
.LVL775:
	.loc 1 1017 0
	testq	%rbp, %rbp
	jle	.L253
	movq	%rax, %rdx
	.loc 1 1014 0
	vmovss	.LC0(%rip), %xmm1
	.loc 1 1013 0
	vmovaps	%xmm1, %xmm2
	.loc 1 1012 0
	vmovaps	%xmm1, %xmm3
	.loc 1 1011 0
	vmovaps	%xmm1, %xmm4
	.loc 1 1010 0
	vmovaps	%xmm1, %xmm5
	.loc 1 1009 0
	vmovaps	%xmm1, %xmm6
	.loc 1 1008 0
	vmovaps	%xmm1, %xmm7
	.loc 1 1007 0
	vmovaps	%xmm1, %xmm0
	.loc 1 1017 0
	movl	$0, %ecx
.LVL776:
.L250:
	.loc 1 1018 0 discriminator 2
	vmulss	(%rdx), %xmm0, %xmm0
.LVL777:
	vmulss	4(%rdx), %xmm7, %xmm7
.LVL778:
	.loc 1 1019 0 discriminator 2
	vmulss	8(%rdx), %xmm6, %xmm6
.LVL779:
	vmulss	12(%rdx), %xmm5, %xmm5
.LVL780:
	.loc 1 1020 0 discriminator 2
	vmulss	16(%rdx), %xmm4, %xmm4
.LVL781:
	vmulss	20(%rdx), %xmm3, %xmm3
.LVL782:
	.loc 1 1021 0 discriminator 2
	vmulss	24(%rdx), %xmm2, %xmm2
.LVL783:
	vmulss	28(%rdx), %xmm1, %xmm1
.LVL784:
	.loc 1 1017 0 discriminator 2
	addq	$8, %rcx
.LVL785:
	addq	$32, %rdx
	cmpq	%rcx, %rbp
	jg	.L250
	jmp	.L249
.LVL786:
.L253:
	.loc 1 1014 0
	vmovss	.LC0(%rip), %xmm1
	.loc 1 1013 0
	vmovaps	%xmm1, %xmm2
	.loc 1 1012 0
	vmovaps	%xmm1, %xmm3
	.loc 1 1011 0
	vmovaps	%xmm1, %xmm4
	.loc 1 1010 0
	vmovaps	%xmm1, %xmm5
	.loc 1 1009 0
	vmovaps	%xmm1, %xmm6
	.loc 1 1008 0
	vmovaps	%xmm1, %xmm7
	.loc 1 1007 0
	vmovaps	%xmm1, %xmm0
	.loc 1 1017 0
	movl	$0, %ecx
.LVL787:
.L249:
	.loc 1 1025 0 discriminator 1
	cmpq	%rcx, %rbx
	jle	.L251
.L252:
	.loc 1 1026 0 discriminator 2
	vmulss	(%rax,%rcx,4), %xmm0, %xmm0
.LVL788:
	.loc 1 1025 0 discriminator 2
	addq	$1, %rcx
.LVL789:
	cmpq	%rbx, %rcx
	jne	.L252
.L251:
	.loc 1 1028 0
	vmulss	%xmm7, %xmm0, %xmm0
.LVL790:
	vmulss	%xmm5, %xmm6, %xmm5
	vmulss	%xmm5, %xmm0, %xmm0
	vmulss	%xmm3, %xmm4, %xmm3
	vmulss	%xmm1, %xmm2, %xmm1
	vmulss	%xmm1, %xmm3, %xmm1
	vmulss	%xmm1, %xmm0, %xmm0
	vmovss	%xmm0, (%r12)
	.loc 1 1029 0
	addq	$8, %rsp
	.cfi_def_cfa_offset 40
	popq	%rbx
	.cfi_def_cfa_offset 32
.LVL791:
	popq	%rbp
	.cfi_def_cfa_offset 24
.LVL792:
	popq	%r12
	.cfi_def_cfa_offset 16
.LVL793:
	popq	%r13
	.cfi_def_cfa_offset 8
.LVL794:
	ret
	.cfi_endproc
.LFE37:
	.size	unroll8x8a_combine, .-unroll8x8a_combine
	.globl	unroll9x9a_combine
	.type	unroll9x9a_combine, @function
unroll9x9a_combine:
.LFB38:
	.loc 1 1033 0
	.cfi_startproc
.LVL795:
	pushq	%r13
	.cfi_def_cfa_offset 16
	.cfi_offset 13, -16
	pushq	%r12
	.cfi_def_cfa_offset 24
	.cfi_offset 12, -24
	pushq	%rbp
	.cfi_def_cfa_offset 32
	.cfi_offset 6, -32
	pushq	%rbx
	.cfi_def_cfa_offset 40
	.cfi_offset 3, -40
	subq	$8, %rsp
	.cfi_def_cfa_offset 48
	movq	%rdi, %r13
	movq	%rsi, %r12
	.loc 1 1035 0
	call	vec_length
.LVL796:
	movq	%rax, %rbx
.LVL797:
	.loc 1 1036 0
	leaq	-8(%rax), %rbp
.LVL798:
	.loc 1 1037 0
	movq	%r13, %rdi
	call	get_vec_start
.LVL799:
	.loc 1 1049 0
	testq	%rbp, %rbp
	jle	.L260
	movq	%rax, %rdx
	.loc 1 1046 0
	vmovss	.LC0(%rip), %xmm1
	.loc 1 1045 0
	vmovaps	%xmm1, %xmm2
	.loc 1 1044 0
	vmovaps	%xmm1, %xmm3
	.loc 1 1043 0
	vmovaps	%xmm1, %xmm4
	.loc 1 1042 0
	vmovaps	%xmm1, %xmm5
	.loc 1 1041 0
	vmovaps	%xmm1, %xmm6
	.loc 1 1040 0
	vmovaps	%xmm1, %xmm7
	.loc 1 1039 0
	vmovaps	%xmm1, %xmm8
	.loc 1 1038 0
	vmovaps	%xmm1, %xmm0
	.loc 1 1049 0
	movl	$0, %ecx
.LVL800:
.L257:
	.loc 1 1050 0 discriminator 2
	vmulss	(%rdx), %xmm0, %xmm0
.LVL801:
	vmulss	4(%rdx), %xmm8, %xmm8
.LVL802:
	.loc 1 1051 0 discriminator 2
	vmulss	8(%rdx), %xmm7, %xmm7
.LVL803:
	vmulss	12(%rdx), %xmm6, %xmm6
.LVL804:
	.loc 1 1052 0 discriminator 2
	vmulss	16(%rdx), %xmm5, %xmm5
.LVL805:
	vmulss	20(%rdx), %xmm4, %xmm4
.LVL806:
	.loc 1 1053 0 discriminator 2
	vmulss	24(%rdx), %xmm3, %xmm3
.LVL807:
	vmulss	28(%rdx), %xmm2, %xmm2
.LVL808:
	.loc 1 1054 0 discriminator 2
	vmulss	32(%rdx), %xmm1, %xmm1
.LVL809:
	.loc 1 1049 0 discriminator 2
	addq	$9, %rcx
.LVL810:
	addq	$36, %rdx
	cmpq	%rcx, %rbp
	jg	.L257
	jmp	.L256
.LVL811:
.L260:
	.loc 1 1046 0
	vmovss	.LC0(%rip), %xmm1
	.loc 1 1045 0
	vmovaps	%xmm1, %xmm2
	.loc 1 1044 0
	vmovaps	%xmm1, %xmm3
	.loc 1 1043 0
	vmovaps	%xmm1, %xmm4
	.loc 1 1042 0
	vmovaps	%xmm1, %xmm5
	.loc 1 1041 0
	vmovaps	%xmm1, %xmm6
	.loc 1 1040 0
	vmovaps	%xmm1, %xmm7
	.loc 1 1039 0
	vmovaps	%xmm1, %xmm8
	.loc 1 1038 0
	vmovaps	%xmm1, %xmm0
	.loc 1 1049 0
	movl	$0, %ecx
.LVL812:
.L256:
	.loc 1 1058 0 discriminator 1
	cmpq	%rcx, %rbx
	jle	.L258
.L259:
	.loc 1 1059 0 discriminator 2
	vmulss	(%rax,%rcx,4), %xmm0, %xmm0
.LVL813:
	.loc 1 1058 0 discriminator 2
	addq	$1, %rcx
.LVL814:
	cmpq	%rbx, %rcx
	jne	.L259
.L258:
	.loc 1 1061 0
	vmulss	%xmm8, %xmm0, %xmm0
.LVL815:
	vmulss	%xmm6, %xmm7, %xmm6
	vmulss	%xmm6, %xmm0, %xmm0
	vmulss	%xmm4, %xmm5, %xmm4
	vmulss	%xmm2, %xmm3, %xmm2
	vmulss	%xmm2, %xmm4, %xmm2
	vmulss	%xmm1, %xmm2, %xmm1
	vmulss	%xmm1, %xmm0, %xmm1
	vmovss	%xmm1, (%r12)
	.loc 1 1062 0
	addq	$8, %rsp
	.cfi_def_cfa_offset 40
	popq	%rbx
	.cfi_def_cfa_offset 32
.LVL816:
	popq	%rbp
	.cfi_def_cfa_offset 24
.LVL817:
	popq	%r12
	.cfi_def_cfa_offset 16
.LVL818:
	popq	%r13
	.cfi_def_cfa_offset 8
.LVL819:
	ret
	.cfi_endproc
.LFE38:
	.size	unroll9x9a_combine, .-unroll9x9a_combine
	.globl	unroll10x10a_combine
	.type	unroll10x10a_combine, @function
unroll10x10a_combine:
.LFB39:
	.loc 1 1066 0
	.cfi_startproc
.LVL820:
	pushq	%r13
	.cfi_def_cfa_offset 16
	.cfi_offset 13, -16
	pushq	%r12
	.cfi_def_cfa_offset 24
	.cfi_offset 12, -24
	pushq	%rbp
	.cfi_def_cfa_offset 32
	.cfi_offset 6, -32
	pushq	%rbx
	.cfi_def_cfa_offset 40
	.cfi_offset 3, -40
	subq	$8, %rsp
	.cfi_def_cfa_offset 48
	movq	%rdi, %r13
	movq	%rsi, %r12
	.loc 1 1068 0
	call	vec_length
.LVL821:
	movq	%rax, %rbx
.LVL822:
	.loc 1 1069 0
	leaq	-9(%rax), %rbp
.LVL823:
	.loc 1 1070 0
	movq	%r13, %rdi
	call	get_vec_start
.LVL824:
	.loc 1 1083 0
	testq	%rbp, %rbp
	jle	.L267
	movq	%rax, %rdx
	.loc 1 1080 0
	vmovss	.LC0(%rip), %xmm1
	.loc 1 1079 0
	vmovaps	%xmm1, %xmm2
	.loc 1 1078 0
	vmovaps	%xmm1, %xmm3
	.loc 1 1077 0
	vmovaps	%xmm1, %xmm4
	.loc 1 1076 0
	vmovaps	%xmm1, %xmm5
	.loc 1 1075 0
	vmovaps	%xmm1, %xmm6
	.loc 1 1074 0
	vmovaps	%xmm1, %xmm7
	.loc 1 1073 0
	vmovaps	%xmm1, %xmm8
	.loc 1 1072 0
	vmovaps	%xmm1, %xmm9
	.loc 1 1071 0
	vmovaps	%xmm1, %xmm0
	.loc 1 1083 0
	movl	$0, %ecx
.LVL825:
.L264:
	.loc 1 1084 0 discriminator 2
	vmulss	(%rdx), %xmm0, %xmm0
.LVL826:
	vmulss	4(%rdx), %xmm9, %xmm9
.LVL827:
	.loc 1 1085 0 discriminator 2
	vmulss	8(%rdx), %xmm8, %xmm8
.LVL828:
	vmulss	12(%rdx), %xmm7, %xmm7
.LVL829:
	.loc 1 1086 0 discriminator 2
	vmulss	16(%rdx), %xmm6, %xmm6
.LVL830:
	vmulss	20(%rdx), %xmm5, %xmm5
.LVL831:
	.loc 1 1087 0 discriminator 2
	vmulss	24(%rdx), %xmm4, %xmm4
.LVL832:
	vmulss	28(%rdx), %xmm3, %xmm3
.LVL833:
	.loc 1 1088 0 discriminator 2
	vmulss	32(%rdx), %xmm2, %xmm2
.LVL834:
	vmulss	36(%rdx), %xmm1, %xmm1
.LVL835:
	.loc 1 1083 0 discriminator 2
	addq	$10, %rcx
.LVL836:
	addq	$40, %rdx
	cmpq	%rcx, %rbp
	jg	.L264
	jmp	.L263
.LVL837:
.L267:
	.loc 1 1080 0
	vmovss	.LC0(%rip), %xmm1
	.loc 1 1079 0
	vmovaps	%xmm1, %xmm2
	.loc 1 1078 0
	vmovaps	%xmm1, %xmm3
	.loc 1 1077 0
	vmovaps	%xmm1, %xmm4
	.loc 1 1076 0
	vmovaps	%xmm1, %xmm5
	.loc 1 1075 0
	vmovaps	%xmm1, %xmm6
	.loc 1 1074 0
	vmovaps	%xmm1, %xmm7
	.loc 1 1073 0
	vmovaps	%xmm1, %xmm8
	.loc 1 1072 0
	vmovaps	%xmm1, %xmm9
	.loc 1 1071 0
	vmovaps	%xmm1, %xmm0
	.loc 1 1083 0
	movl	$0, %ecx
.LVL838:
.L263:
	.loc 1 1092 0 discriminator 1
	cmpq	%rcx, %rbx
	jle	.L265
.L266:
	.loc 1 1093 0 discriminator 2
	vmulss	(%rax,%rcx,4), %xmm0, %xmm0
.LVL839:
	.loc 1 1092 0 discriminator 2
	addq	$1, %rcx
.LVL840:
	cmpq	%rbx, %rcx
	jne	.L266
.L265:
	.loc 1 1095 0
	vmulss	%xmm9, %xmm0, %xmm0
.LVL841:
	vmulss	%xmm7, %xmm8, %xmm7
	vmulss	%xmm7, %xmm0, %xmm0
	.loc 1 1096 0
	vmulss	%xmm5, %xmm6, %xmm5
	vmulss	%xmm3, %xmm4, %xmm3
	vmulss	%xmm3, %xmm5, %xmm3
	.loc 1 1095 0
	vmulss	%xmm3, %xmm0, %xmm0
	.loc 1 1097 0
	vmulss	%xmm1, %xmm2, %xmm2
	.loc 1 1096 0
	vmulss	%xmm2, %xmm0, %xmm1
	.loc 1 1095 0
	vmovss	%xmm1, (%r12)
	.loc 1 1098 0
	addq	$8, %rsp
	.cfi_def_cfa_offset 40
	popq	%rbx
	.cfi_def_cfa_offset 32
.LVL842:
	popq	%rbp
	.cfi_def_cfa_offset 24
.LVL843:
	popq	%r12
	.cfi_def_cfa_offset 16
.LVL844:
	popq	%r13
	.cfi_def_cfa_offset 8
.LVL845:
	ret
	.cfi_endproc
.LFE39:
	.size	unroll10x10a_combine, .-unroll10x10a_combine
	.globl	unrollx2as_combine
	.type	unrollx2as_combine, @function
unrollx2as_combine:
.LFB40:
	.loc 1 1102 0
	.cfi_startproc
.LVL846:
	pushq	%r14
	.cfi_def_cfa_offset 16
	.cfi_offset 14, -16
	pushq	%r13
	.cfi_def_cfa_offset 24
	.cfi_offset 13, -24
	pushq	%r12
	.cfi_def_cfa_offset 32
	.cfi_offset 12, -32
	pushq	%rbp
	.cfi_def_cfa_offset 40
	.cfi_offset 6, -40
	pushq	%rbx
	.cfi_def_cfa_offset 48
	.cfi_offset 3, -48
	movq	%rdi, %r14
	movq	%rsi, %r12
	.loc 1 1104 0
	call	vec_length
.LVL847:
	movq	%rax, %rbx
.LVL848:
	.loc 1 1105 0
	movq	%rax, %r13
	shrq	$63, %r13
	addq	%rax, %r13
	sarq	%r13
.LVL849:
	.loc 1 1106 0
	movq	%r14, %rdi
	call	get_vec_start
.LVL850:
	movq	%rax, %rcx
.LVL851:
	.loc 1 1107 0
	leaq	(%rax,%r13,4), %rax
.LVL852:
	.loc 1 1112 0
	testq	%r13, %r13
	jle	.L274
	movq	%r13, %rbp
	.loc 1 1109 0
	vmovss	.LC0(%rip), %xmm0
	.loc 1 1108 0
	vmovaps	%xmm0, %xmm1
	.loc 1 1112 0
	movl	$0, %edx
.LVL853:
.L271:
	.loc 1 1113 0 discriminator 2
	vmulss	(%rcx,%rdx,4), %xmm1, %xmm1
.LVL854:
	vmulss	(%rax,%rdx,4), %xmm0, %xmm0
.LVL855:
	.loc 1 1112 0 discriminator 2
	addq	$1, %rdx
.LVL856:
	cmpq	%rbp, %rdx
	jne	.L271
	jmp	.L270
.LVL857:
.L274:
	.loc 1 1109 0
	vmovss	.LC0(%rip), %xmm0
	.loc 1 1108 0
	vmovaps	%xmm0, %xmm1
.LVL858:
.L270:
	.loc 1 1117 0
	leaq	(%r13,%r13), %rdx
.LVL859:
	cmpq	%rdx, %rbx
	jle	.L272
.L273:
	.loc 1 1118 0 discriminator 2
	vmulss	(%rcx,%rdx,4), %xmm0, %xmm0
.LVL860:
	.loc 1 1117 0 discriminator 2
	addq	$1, %rdx
.LVL861:
	cmpq	%rbx, %rdx
	jne	.L273
.L272:
	.loc 1 1120 0
	vmulss	%xmm0, %xmm1, %xmm0
.LVL862:
	vmovss	%xmm0, (%r12)
	.loc 1 1121 0
	popq	%rbx
	.cfi_def_cfa_offset 40
.LVL863:
	popq	%rbp
	.cfi_def_cfa_offset 32
	popq	%r12
	.cfi_def_cfa_offset 24
.LVL864:
	popq	%r13
	.cfi_def_cfa_offset 16
.LVL865:
	popq	%r14
	.cfi_def_cfa_offset 8
.LVL866:
	ret
	.cfi_endproc
.LFE40:
	.size	unrollx2as_combine, .-unrollx2as_combine
	.globl	unroll8x2_combine
	.type	unroll8x2_combine, @function
unroll8x2_combine:
.LFB42:
	.loc 1 1150 0
	.cfi_startproc
.LVL867:
	pushq	%r12
	.cfi_def_cfa_offset 16
	.cfi_offset 12, -16
	pushq	%rbp
	.cfi_def_cfa_offset 24
	.cfi_offset 6, -24
	pushq	%rbx
	.cfi_def_cfa_offset 32
	.cfi_offset 3, -32
	movq	%rdi, %rbx
	movq	%rsi, %rbp
	.loc 1 1151 0
	call	vec_length
.LVL868:
	movq	%rax, %r12
.LVL869:
	.loc 1 1152 0
	movq	%rbx, %rdi
	call	get_vec_start
.LVL870:
	movq	%rax, %rcx
.LVL871:
	.loc 1 1153 0
	leaq	-28(%rax,%r12,4), %rax
.LVL872:
	.loc 1 1157 0
	cmpq	%rax, %rcx
	jae	.L282
	.loc 1 1152 0
	movq	%rcx, %rdx
	.loc 1 1155 0
	vmovss	.LC0(%rip), %xmm1
	.loc 1 1154 0
	vmovaps	%xmm1, %xmm0
.LVL873:
.L279:
	.loc 1 1158 0
	vmulss	(%rdx), %xmm0, %xmm0
.LVL874:
	.loc 1 1159 0
	vmulss	4(%rdx), %xmm1, %xmm1
.LVL875:
	.loc 1 1160 0
	vmulss	8(%rdx), %xmm0, %xmm0
.LVL876:
	.loc 1 1161 0
	vmulss	12(%rdx), %xmm1, %xmm1
.LVL877:
	.loc 1 1162 0
	vmulss	16(%rdx), %xmm0, %xmm0
.LVL878:
	.loc 1 1163 0
	vmulss	20(%rdx), %xmm1, %xmm1
.LVL879:
	.loc 1 1164 0
	vmulss	24(%rdx), %xmm0, %xmm0
.LVL880:
	.loc 1 1165 0
	vmulss	28(%rdx), %xmm1, %xmm1
.LVL881:
	.loc 1 1166 0
	addq	$32, %rdx
.LVL882:
	.loc 1 1157 0
	cmpq	%rdx, %rax
	ja	.L279
	movq	%rcx, %rdx
.LVL883:
	notq	%rdx
	addq	%rax, %rdx
	andq	$-32, %rdx
	leaq	32(%rcx,%rdx), %rcx
	jmp	.L277
.LVL884:
.L282:
	.loc 1 1155 0
	vmovss	.LC0(%rip), %xmm1
	.loc 1 1154 0
	vmovaps	%xmm1, %xmm0
.LVL885:
.L277:
	.loc 1 1168 0
	addq	$28, %rax
.LVL886:
	.loc 1 1169 0
	cmpq	%rcx, %rax
	jbe	.L280
.L281:
	.loc 1 1170 0
	vmulss	(%rcx), %xmm0, %xmm0
.LVL887:
	.loc 1 1171 0
	addq	$4, %rcx
.LVL888:
	.loc 1 1169 0
	cmpq	%rcx, %rax
	ja	.L281
.L280:
	.loc 1 1173 0
	vmulss	%xmm1, %xmm0, %xmm0
.LVL889:
	vmovss	%xmm0, 0(%rbp)
	.loc 1 1174 0
	popq	%rbx
	.cfi_def_cfa_offset 24
.LVL890:
	popq	%rbp
	.cfi_def_cfa_offset 16
.LVL891:
	popq	%r12
	.cfi_def_cfa_offset 8
.LVL892:
	ret
	.cfi_endproc
.LFE42:
	.size	unroll8x2_combine, .-unroll8x2_combine
	.globl	unroll9x3_combine
	.type	unroll9x3_combine, @function
unroll9x3_combine:
.LFB43:
	.loc 1 1178 0
	.cfi_startproc
.LVL893:
	pushq	%r12
	.cfi_def_cfa_offset 16
	.cfi_offset 12, -16
	pushq	%rbp
	.cfi_def_cfa_offset 24
	.cfi_offset 6, -24
	pushq	%rbx
	.cfi_def_cfa_offset 32
	.cfi_offset 3, -32
	movq	%rdi, %rbx
	movq	%rsi, %rbp
	.loc 1 1179 0
	call	vec_length
.LVL894:
	movq	%rax, %r12
.LVL895:
	.loc 1 1180 0
	movq	%rbx, %rdi
	call	get_vec_start
.LVL896:
	movq	%rax, %rdx
.LVL897:
	.loc 1 1181 0
	leaq	-32(%rax,%r12,4), %rax
.LVL898:
	.loc 1 1186 0
	cmpq	%rax, %rdx
	jae	.L289
	.loc 1 1184 0
	vmovss	.LC0(%rip), %xmm1
	.loc 1 1183 0
	vmovaps	%xmm1, %xmm2
	.loc 1 1182 0
	vmovaps	%xmm1, %xmm0
.LVL899:
.L286:
	.loc 1 1187 0
	vmulss	(%rdx), %xmm0, %xmm0
.LVL900:
	.loc 1 1188 0
	vmulss	4(%rdx), %xmm2, %xmm2
.LVL901:
	.loc 1 1189 0
	vmulss	8(%rdx), %xmm1, %xmm1
.LVL902:
	.loc 1 1190 0
	vmulss	12(%rdx), %xmm0, %xmm0
.LVL903:
	.loc 1 1191 0
	vmulss	16(%rdx), %xmm2, %xmm2
.LVL904:
	.loc 1 1192 0
	vmulss	20(%rdx), %xmm1, %xmm1
.LVL905:
	.loc 1 1193 0
	vmulss	24(%rdx), %xmm0, %xmm0
.LVL906:
	.loc 1 1194 0
	vmulss	28(%rdx), %xmm2, %xmm2
.LVL907:
	.loc 1 1195 0
	vmulss	32(%rdx), %xmm1, %xmm1
.LVL908:
	.loc 1 1196 0
	addq	$36, %rdx
.LVL909:
	.loc 1 1186 0
	cmpq	%rdx, %rax
	ja	.L286
	jmp	.L285
.LVL910:
.L289:
	.loc 1 1184 0
	vmovss	.LC0(%rip), %xmm1
	.loc 1 1183 0
	vmovaps	%xmm1, %xmm2
	.loc 1 1182 0
	vmovaps	%xmm1, %xmm0
.LVL911:
.L285:
	.loc 1 1198 0
	addq	$32, %rax
.LVL912:
	.loc 1 1199 0
	cmpq	%rdx, %rax
	jbe	.L287
.L288:
	.loc 1 1200 0
	vmulss	(%rdx), %xmm0, %xmm0
.LVL913:
	.loc 1 1201 0
	addq	$4, %rdx
.LVL914:
	.loc 1 1199 0
	cmpq	%rdx, %rax
	ja	.L288
.L287:
	.loc 1 1203 0
	vmulss	%xmm2, %xmm0, %xmm0
.LVL915:
	vmulss	%xmm1, %xmm0, %xmm1
	vmovss	%xmm1, 0(%rbp)
	.loc 1 1204 0
	popq	%rbx
	.cfi_def_cfa_offset 24
.LVL916:
	popq	%rbp
	.cfi_def_cfa_offset 16
.LVL917:
	popq	%r12
	.cfi_def_cfa_offset 8
.LVL918:
	ret
	.cfi_endproc
.LFE43:
	.size	unroll9x3_combine, .-unroll9x3_combine
	.globl	unroll8x4_combine
	.type	unroll8x4_combine, @function
unroll8x4_combine:
.LFB44:
	.loc 1 1209 0
	.cfi_startproc
.LVL919:
	pushq	%r12
	.cfi_def_cfa_offset 16
	.cfi_offset 12, -16
	pushq	%rbp
	.cfi_def_cfa_offset 24
	.cfi_offset 6, -24
	pushq	%rbx
	.cfi_def_cfa_offset 32
	.cfi_offset 3, -32
	movq	%rdi, %rbx
	movq	%rsi, %rbp
	.loc 1 1210 0
	call	vec_length
.LVL920:
	movq	%rax, %r12
.LVL921:
	.loc 1 1211 0
	movq	%rbx, %rdi
	call	get_vec_start
.LVL922:
	movq	%rax, %rcx
.LVL923:
	.loc 1 1212 0
	leaq	-28(%rax,%r12,4), %rax
.LVL924:
	.loc 1 1218 0
	cmpq	%rax, %rcx
	jae	.L297
	.loc 1 1211 0
	movq	%rcx, %rdx
	.loc 1 1216 0
	vmovss	.LC0(%rip), %xmm1
	.loc 1 1215 0
	vmovaps	%xmm1, %xmm2
	.loc 1 1214 0
	vmovaps	%xmm1, %xmm3
	.loc 1 1213 0
	vmovaps	%xmm1, %xmm0
.LVL925:
.L294:
	.loc 1 1219 0
	vmulss	(%rdx), %xmm0, %xmm0
.LVL926:
	.loc 1 1220 0
	vmulss	4(%rdx), %xmm3, %xmm3
.LVL927:
	.loc 1 1221 0
	vmulss	8(%rdx), %xmm2, %xmm2
.LVL928:
	.loc 1 1222 0
	vmulss	12(%rdx), %xmm1, %xmm1
.LVL929:
	.loc 1 1223 0
	vmulss	16(%rdx), %xmm0, %xmm0
.LVL930:
	.loc 1 1224 0
	vmulss	20(%rdx), %xmm3, %xmm3
.LVL931:
	.loc 1 1225 0
	vmulss	24(%rdx), %xmm2, %xmm2
.LVL932:
	.loc 1 1226 0
	vmulss	28(%rdx), %xmm1, %xmm1
.LVL933:
	.loc 1 1227 0
	addq	$32, %rdx
.LVL934:
	.loc 1 1218 0
	cmpq	%rdx, %rax
	ja	.L294
	movq	%rcx, %rdx
.LVL935:
	notq	%rdx
	addq	%rax, %rdx
	andq	$-32, %rdx
	leaq	32(%rcx,%rdx), %rcx
	jmp	.L292
.LVL936:
.L297:
	.loc 1 1216 0
	vmovss	.LC0(%rip), %xmm1
	.loc 1 1215 0
	vmovaps	%xmm1, %xmm2
	.loc 1 1214 0
	vmovaps	%xmm1, %xmm3
	.loc 1 1213 0
	vmovaps	%xmm1, %xmm0
.LVL937:
.L292:
	.loc 1 1229 0
	addq	$28, %rax
.LVL938:
	.loc 1 1230 0
	cmpq	%rcx, %rax
	jbe	.L295
.L296:
	.loc 1 1231 0
	vmulss	(%rcx), %xmm0, %xmm0
.LVL939:
	.loc 1 1232 0
	addq	$4, %rcx
.LVL940:
	.loc 1 1230 0
	cmpq	%rcx, %rax
	ja	.L296
.L295:
	.loc 1 1234 0
	vmulss	%xmm3, %xmm0, %xmm0
.LVL941:
	vmulss	%xmm2, %xmm0, %xmm2
	vmulss	%xmm1, %xmm2, %xmm1
	vmovss	%xmm1, 0(%rbp)
	.loc 1 1235 0
	popq	%rbx
	.cfi_def_cfa_offset 24
.LVL942:
	popq	%rbp
	.cfi_def_cfa_offset 16
.LVL943:
	popq	%r12
	.cfi_def_cfa_offset 8
.LVL944:
	ret
	.cfi_endproc
.LFE44:
	.size	unroll8x4_combine, .-unroll8x4_combine
	.globl	unroll8x8_combine
	.type	unroll8x8_combine, @function
unroll8x8_combine:
.LFB45:
	.loc 1 1239 0
	.cfi_startproc
.LVL945:
	pushq	%r12
	.cfi_def_cfa_offset 16
	.cfi_offset 12, -16
	pushq	%rbp
	.cfi_def_cfa_offset 24
	.cfi_offset 6, -24
	pushq	%rbx
	.cfi_def_cfa_offset 32
	.cfi_offset 3, -32
	movq	%rdi, %rbp
	movq	%rsi, %rbx
	.loc 1 1240 0
	call	vec_length
.LVL946:
	movq	%rax, %r12
.LVL947:
	.loc 1 1241 0
	movq	%rbp, %rdi
	call	get_vec_start
.LVL948:
	movq	%rax, %rcx
.LVL949:
	.loc 1 1242 0
	leaq	-28(%rax,%r12,4), %rax
.LVL950:
	.loc 1 1252 0
	cmpq	%rax, %rcx
	jae	.L305
	.loc 1 1241 0
	movq	%rcx, %rdx
	.loc 1 1250 0
	vmovss	.LC0(%rip), %xmm1
	.loc 1 1249 0
	vmovaps	%xmm1, %xmm5
	.loc 1 1248 0
	vmovaps	%xmm1, %xmm0
	.loc 1 1247 0
	vmovaps	%xmm1, %xmm4
	.loc 1 1246 0
	vmovaps	%xmm1, %xmm2
	.loc 1 1243 0
	vmovaps	%xmm1, %xmm3
.LVL951:
.L302:
	.loc 1 1253 0
	vmulss	(%rdx), %xmm0, %xmm0
.LVL952:
	.loc 1 1254 0
	vmulss	4(%rdx), %xmm5, %xmm5
.LVL953:
	.loc 1 1255 0
	vmulss	8(%rdx), %xmm1, %xmm1
.LVL954:
	.loc 1 1256 0
	vmulss	12(%rdx), %xmm4, %xmm4
.LVL955:
	.loc 1 1257 0
	vmulss	16(%rdx), %xmm3, %xmm3
.LVL956:
	.loc 1 1258 0
	vmovss	20(%rdx), %xmm7
.LVL957:
	.loc 1 1259 0
	vmovss	24(%rdx), %xmm6
.LVL958:
	.loc 1 1260 0
	vmulss	28(%rdx), %xmm2, %xmm2
.LVL959:
	.loc 1 1261 0
	addq	$32, %rdx
.LVL960:
	.loc 1 1252 0
	cmpq	%rdx, %rax
	ja	.L302
	movq	%rcx, %rdx
.LVL961:
	notq	%rdx
	addq	%rax, %rdx
	andq	$-32, %rdx
	leaq	32(%rcx,%rdx), %rcx
	.loc 1 1259 0
	vmulss	%xmm6, %xmm7, %xmm6
.LVL962:
	jmp	.L300
.LVL963:
.L305:
	.loc 1 1250 0
	vmovss	.LC0(%rip), %xmm1
	.loc 1 1249 0
	vmovaps	%xmm1, %xmm5
	.loc 1 1248 0
	vmovaps	%xmm1, %xmm0
	.loc 1 1247 0
	vmovaps	%xmm1, %xmm4
	.loc 1 1246 0
	vmovaps	%xmm1, %xmm2
	.loc 1 1245 0
	vmovaps	%xmm1, %xmm6
	.loc 1 1243 0
	vmovaps	%xmm1, %xmm3
.LVL964:
.L300:
	.loc 1 1263 0
	addq	$28, %rax
.LVL965:
	.loc 1 1264 0
	cmpq	%rcx, %rax
	jbe	.L303
.L304:
	.loc 1 1265 0
	vmulss	(%rcx), %xmm0, %xmm0
.LVL966:
	.loc 1 1266 0
	addq	$4, %rcx
.LVL967:
	.loc 1 1264 0
	cmpq	%rcx, %rax
	ja	.L304
.L303:
	.loc 1 1268 0
	vmulss	%xmm5, %xmm0, %xmm0
.LVL968:
	vmulss	%xmm1, %xmm0, %xmm1
	vmulss	%xmm4, %xmm1, %xmm4
	vmulss	%xmm3, %xmm4, %xmm3
	vmulss	%xmm3, %xmm6, %xmm3
	vmulss	%xmm2, %xmm3, %xmm2
	vmovss	%xmm2, (%rbx)
	.loc 1 1269 0
	popq	%rbx
	.cfi_def_cfa_offset 24
.LVL969:
	popq	%rbp
	.cfi_def_cfa_offset 16
.LVL970:
	popq	%r12
	.cfi_def_cfa_offset 8
.LVL971:
	ret
	.cfi_endproc
.LFE45:
	.size	unroll8x8_combine, .-unroll8x8_combine
	.globl	combine7
	.type	combine7, @function
combine7:
.LFB46:
	.loc 1 1275 0
	.cfi_startproc
.LVL972:
	pushq	%r13
	.cfi_def_cfa_offset 16
	.cfi_offset 13, -16
	pushq	%r12
	.cfi_def_cfa_offset 24
	.cfi_offset 12, -24
	pushq	%rbp
	.cfi_def_cfa_offset 32
	.cfi_offset 6, -32
	pushq	%rbx
	.cfi_def_cfa_offset 40
	.cfi_offset 3, -40
	subq	$8, %rsp
	.cfi_def_cfa_offset 48
	movq	%rdi, %r12
	movq	%rsi, %r13
	.loc 1 1277 0
	call	vec_length
.LVL973:
	movq	%rax, %rbx
.LVL974:
	.loc 1 1278 0
	leaq	-1(%rax), %rbp
.LVL975:
	.loc 1 1279 0
	movq	%r12, %rdi
	call	get_vec_start
.LVL976:
	.loc 1 1283 0
	testq	%rbp, %rbp
	jle	.L312
	.loc 1 1280 0
	vmovss	.LC0(%rip), %xmm0
	.loc 1 1283 0
	movl	$0, %edx
.LVL977:
.L309:
	.loc 1 1285 0 discriminator 2
	vmovss	(%rax,%rdx,4), %xmm1
	vmulss	4(%rax,%rdx,4), %xmm1, %xmm1
	vmulss	%xmm1, %xmm0, %xmm0
.LVL978:
	.loc 1 1283 0 discriminator 2
	addq	$2, %rdx
.LVL979:
	cmpq	%rdx, %rbp
	jg	.L309
	jmp	.L308
.LVL980:
.L312:
	.loc 1 1280 0
	vmovss	.LC0(%rip), %xmm0
	.loc 1 1283 0
	movl	$0, %edx
.LVL981:
.L308:
	.loc 1 1290 0 discriminator 1
	cmpq	%rdx, %rbx
	jle	.L310
.L311:
	.loc 1 1291 0 discriminator 2
	vmulss	(%rax,%rdx,4), %xmm0, %xmm0
.LVL982:
	.loc 1 1290 0 discriminator 2
	addq	$1, %rdx
.LVL983:
	cmpq	%rbx, %rdx
	jne	.L311
.L310:
	.loc 1 1293 0
	vmovss	%xmm0, 0(%r13)
	.loc 1 1294 0
	addq	$8, %rsp
	.cfi_def_cfa_offset 40
	popq	%rbx
	.cfi_def_cfa_offset 32
.LVL984:
	popq	%rbp
	.cfi_def_cfa_offset 24
.LVL985:
	popq	%r12
	.cfi_def_cfa_offset 16
.LVL986:
	popq	%r13
	.cfi_def_cfa_offset 8
.LVL987:
	ret
	.cfi_endproc
.LFE46:
	.size	combine7, .-combine7
	.globl	unroll3aa_combine
	.type	unroll3aa_combine, @function
unroll3aa_combine:
.LFB47:
	.loc 1 1299 0
	.cfi_startproc
.LVL988:
	pushq	%r13
	.cfi_def_cfa_offset 16
	.cfi_offset 13, -16
	pushq	%r12
	.cfi_def_cfa_offset 24
	.cfi_offset 12, -24
	pushq	%rbp
	.cfi_def_cfa_offset 32
	.cfi_offset 6, -32
	pushq	%rbx
	.cfi_def_cfa_offset 40
	.cfi_offset 3, -40
	subq	$8, %rsp
	.cfi_def_cfa_offset 48
	movq	%rdi, %r12
	movq	%rsi, %r13
	.loc 1 1301 0
	call	vec_length
.LVL989:
	movq	%rax, %rbx
.LVL990:
	.loc 1 1302 0
	leaq	-2(%rax), %rbp
.LVL991:
	.loc 1 1303 0
	movq	%r12, %rdi
	call	get_vec_start
.LVL992:
	.loc 1 1307 0
	testq	%rbp, %rbp
	jle	.L319
	.loc 1 1304 0
	vmovss	.LC0(%rip), %xmm0
	.loc 1 1307 0
	movl	$0, %edx
.LVL993:
.L316:
	.loc 1 1308 0 discriminator 2
	vmovss	(%rax,%rdx,4), %xmm1
	vmulss	4(%rax,%rdx,4), %xmm1, %xmm1
	vmulss	8(%rax,%rdx,4), %xmm1, %xmm1
	vmulss	%xmm1, %xmm0, %xmm0
.LVL994:
	.loc 1 1307 0 discriminator 2
	addq	$3, %rdx
.LVL995:
	cmpq	%rdx, %rbp
	jg	.L316
	jmp	.L315
.LVL996:
.L319:
	.loc 1 1304 0
	vmovss	.LC0(%rip), %xmm0
	.loc 1 1307 0
	movl	$0, %edx
.LVL997:
.L315:
	.loc 1 1312 0 discriminator 1
	cmpq	%rdx, %rbx
	jle	.L317
.L318:
	.loc 1 1313 0 discriminator 2
	vmulss	(%rax,%rdx,4), %xmm0, %xmm0
.LVL998:
	.loc 1 1312 0 discriminator 2
	addq	$1, %rdx
.LVL999:
	cmpq	%rbx, %rdx
	jne	.L318
.L317:
	.loc 1 1315 0
	vmovss	%xmm0, 0(%r13)
	.loc 1 1316 0
	addq	$8, %rsp
	.cfi_def_cfa_offset 40
	popq	%rbx
	.cfi_def_cfa_offset 32
.LVL1000:
	popq	%rbp
	.cfi_def_cfa_offset 24
.LVL1001:
	popq	%r12
	.cfi_def_cfa_offset 16
.LVL1002:
	popq	%r13
	.cfi_def_cfa_offset 8
.LVL1003:
	ret
	.cfi_endproc
.LFE47:
	.size	unroll3aa_combine, .-unroll3aa_combine
	.globl	unroll4aa_combine
	.type	unroll4aa_combine, @function
unroll4aa_combine:
.LFB48:
	.loc 1 1320 0
	.cfi_startproc
.LVL1004:
	pushq	%r13
	.cfi_def_cfa_offset 16
	.cfi_offset 13, -16
	pushq	%r12
	.cfi_def_cfa_offset 24
	.cfi_offset 12, -24
	pushq	%rbp
	.cfi_def_cfa_offset 32
	.cfi_offset 6, -32
	pushq	%rbx
	.cfi_def_cfa_offset 40
	.cfi_offset 3, -40
	subq	$8, %rsp
	.cfi_def_cfa_offset 48
	movq	%rdi, %r12
	movq	%rsi, %r13
	.loc 1 1322 0
	call	vec_length
.LVL1005:
	movq	%rax, %rbx
.LVL1006:
	.loc 1 1323 0
	leaq	-3(%rax), %rbp
.LVL1007:
	.loc 1 1324 0
	movq	%r12, %rdi
	call	get_vec_start
.LVL1008:
	.loc 1 1328 0
	testq	%rbp, %rbp
	jle	.L326
	.loc 1 1325 0
	vmovss	.LC0(%rip), %xmm0
	.loc 1 1328 0
	movl	$0, %edx
.LVL1009:
.L323:
.LBB4:
	.loc 1 1329 0 discriminator 2
	vmovss	(%rax,%rdx,4), %xmm2
	vmulss	4(%rax,%rdx,4), %xmm2, %xmm2
	.loc 1 1330 0 discriminator 2
	vmovss	8(%rax,%rdx,4), %xmm1
	vmulss	12(%rax,%rdx,4), %xmm1, %xmm1
	.loc 1 1331 0 discriminator 2
	vmulss	%xmm1, %xmm2, %xmm1
	vmulss	%xmm1, %xmm0, %xmm0
.LVL1010:
.LBE4:
	.loc 1 1328 0 discriminator 2
	addq	$4, %rdx
.LVL1011:
	cmpq	%rdx, %rbp
	jg	.L323
	jmp	.L322
.LVL1012:
.L326:
	.loc 1 1325 0
	vmovss	.LC0(%rip), %xmm0
	.loc 1 1328 0
	movl	$0, %edx
.LVL1013:
.L322:
	.loc 1 1335 0 discriminator 1
	cmpq	%rdx, %rbx
	jle	.L324
.L325:
	.loc 1 1336 0 discriminator 2
	vmulss	(%rax,%rdx,4), %xmm0, %xmm0
.LVL1014:
	.loc 1 1335 0 discriminator 2
	addq	$1, %rdx
.LVL1015:
	cmpq	%rbx, %rdx
	jne	.L325
.L324:
	.loc 1 1338 0
	vmovss	%xmm0, 0(%r13)
	.loc 1 1339 0
	addq	$8, %rsp
	.cfi_def_cfa_offset 40
	popq	%rbx
	.cfi_def_cfa_offset 32
.LVL1016:
	popq	%rbp
	.cfi_def_cfa_offset 24
.LVL1017:
	popq	%r12
	.cfi_def_cfa_offset 16
.LVL1018:
	popq	%r13
	.cfi_def_cfa_offset 8
.LVL1019:
	ret
	.cfi_endproc
.LFE48:
	.size	unroll4aa_combine, .-unroll4aa_combine
	.globl	unroll5aa_combine
	.type	unroll5aa_combine, @function
unroll5aa_combine:
.LFB49:
	.loc 1 1343 0
	.cfi_startproc
.LVL1020:
	pushq	%r13
	.cfi_def_cfa_offset 16
	.cfi_offset 13, -16
	pushq	%r12
	.cfi_def_cfa_offset 24
	.cfi_offset 12, -24
	pushq	%rbp
	.cfi_def_cfa_offset 32
	.cfi_offset 6, -32
	pushq	%rbx
	.cfi_def_cfa_offset 40
	.cfi_offset 3, -40
	subq	$8, %rsp
	.cfi_def_cfa_offset 48
	movq	%rdi, %r13
	movq	%rsi, %r12
	.loc 1 1345 0
	call	vec_length
.LVL1021:
	movq	%rax, %rbx
.LVL1022:
	.loc 1 1346 0
	leaq	-4(%rax), %rbp
.LVL1023:
	.loc 1 1347 0
	movq	%r13, %rdi
	call	get_vec_start
.LVL1024:
	.loc 1 1351 0
	testq	%rbp, %rbp
	jle	.L333
	movq	%rax, %rcx
	.loc 1 1348 0
	vmovss	.LC0(%rip), %xmm0
	.loc 1 1351 0
	movl	$0, %edx
.LVL1025:
.L330:
.LBB5:
	.loc 1 1352 0 discriminator 2
	vmovss	(%rcx), %xmm2
	vmulss	4(%rcx), %xmm2, %xmm2
.LVL1026:
	.loc 1 1353 0 discriminator 2
	vmovss	8(%rcx), %xmm1
	vmulss	12(%rcx), %xmm1, %xmm1
.LVL1027:
	.loc 1 1355 0 discriminator 2
	vmulss	%xmm1, %xmm2, %xmm1
.LVL1028:
	vmulss	16(%rcx), %xmm1, %xmm1
	vmulss	%xmm1, %xmm0, %xmm0
.LVL1029:
.LBE5:
	.loc 1 1351 0 discriminator 2
	addq	$5, %rdx
.LVL1030:
	addq	$20, %rcx
.LVL1031:
	cmpq	%rdx, %rbp
	jg	.L330
	jmp	.L329
.LVL1032:
.L333:
	.loc 1 1348 0
	vmovss	.LC0(%rip), %xmm0
	.loc 1 1351 0
	movl	$0, %edx
.LVL1033:
.L329:
	.loc 1 1359 0 discriminator 1
	cmpq	%rdx, %rbx
	jle	.L331
.L332:
	.loc 1 1360 0 discriminator 2
	vmulss	(%rax,%rdx,4), %xmm0, %xmm0
.LVL1034:
	.loc 1 1359 0 discriminator 2
	addq	$1, %rdx
.LVL1035:
	cmpq	%rbx, %rdx
	jne	.L332
.L331:
	.loc 1 1362 0
	vmovss	%xmm0, (%r12)
	.loc 1 1363 0
	addq	$8, %rsp
	.cfi_def_cfa_offset 40
	popq	%rbx
	.cfi_def_cfa_offset 32
.LVL1036:
	popq	%rbp
	.cfi_def_cfa_offset 24
.LVL1037:
	popq	%r12
	.cfi_def_cfa_offset 16
.LVL1038:
	popq	%r13
	.cfi_def_cfa_offset 8
.LVL1039:
	ret
	.cfi_endproc
.LFE49:
	.size	unroll5aa_combine, .-unroll5aa_combine
	.globl	unroll6aa_combine
	.type	unroll6aa_combine, @function
unroll6aa_combine:
.LFB50:
	.loc 1 1367 0
	.cfi_startproc
.LVL1040:
	pushq	%r13
	.cfi_def_cfa_offset 16
	.cfi_offset 13, -16
	pushq	%r12
	.cfi_def_cfa_offset 24
	.cfi_offset 12, -24
	pushq	%rbp
	.cfi_def_cfa_offset 32
	.cfi_offset 6, -32
	pushq	%rbx
	.cfi_def_cfa_offset 40
	.cfi_offset 3, -40
	subq	$8, %rsp
	.cfi_def_cfa_offset 48
	movq	%rdi, %r13
	movq	%rsi, %r12
	.loc 1 1369 0
	call	vec_length
.LVL1041:
	movq	%rax, %rbx
.LVL1042:
	.loc 1 1370 0
	leaq	-5(%rax), %rbp
.LVL1043:
	.loc 1 1371 0
	movq	%r13, %rdi
	call	get_vec_start
.LVL1044:
	.loc 1 1375 0
	testq	%rbp, %rbp
	jle	.L340
	movq	%rax, %rdx
	.loc 1 1372 0
	vmovss	.LC0(%rip), %xmm0
	.loc 1 1375 0
	movl	$0, %ecx
.LVL1045:
.L337:
.LBB6:
	.loc 1 1376 0 discriminator 2
	vmovss	(%rdx), %xmm2
	vmulss	4(%rdx), %xmm2, %xmm2
.LVL1046:
	.loc 1 1377 0 discriminator 2
	vmovss	8(%rdx), %xmm1
	vmulss	12(%rdx), %xmm1, %xmm1
.LVL1047:
	.loc 1 1379 0 discriminator 2
	vmulss	%xmm1, %xmm2, %xmm1
.LVL1048:
	.loc 1 1378 0 discriminator 2
	vmovss	16(%rdx), %xmm2
.LVL1049:
	vmulss	20(%rdx), %xmm2, %xmm2
.LVL1050:
	.loc 1 1379 0 discriminator 2
	vmulss	%xmm2, %xmm1, %xmm1
	vmulss	%xmm1, %xmm0, %xmm0
.LVL1051:
.LBE6:
	.loc 1 1375 0 discriminator 2
	addq	$6, %rcx
.LVL1052:
	addq	$24, %rdx
.LVL1053:
	cmpq	%rcx, %rbp
	jg	.L337
	jmp	.L336
.LVL1054:
.L340:
	.loc 1 1372 0
	vmovss	.LC0(%rip), %xmm0
	.loc 1 1375 0
	movl	$0, %ecx
.LVL1055:
.L336:
	.loc 1 1383 0 discriminator 1
	cmpq	%rcx, %rbx
	jle	.L338
.L339:
	.loc 1 1384 0 discriminator 2
	vmulss	(%rax,%rcx,4), %xmm0, %xmm0
.LVL1056:
	.loc 1 1383 0 discriminator 2
	addq	$1, %rcx
.LVL1057:
	cmpq	%rbx, %rcx
	jne	.L339
.L338:
	.loc 1 1386 0
	vmovss	%xmm0, (%r12)
	.loc 1 1387 0
	addq	$8, %rsp
	.cfi_def_cfa_offset 40
	popq	%rbx
	.cfi_def_cfa_offset 32
.LVL1058:
	popq	%rbp
	.cfi_def_cfa_offset 24
.LVL1059:
	popq	%r12
	.cfi_def_cfa_offset 16
.LVL1060:
	popq	%r13
	.cfi_def_cfa_offset 8
.LVL1061:
	ret
	.cfi_endproc
.LFE50:
	.size	unroll6aa_combine, .-unroll6aa_combine
	.globl	unroll7aa_combine
	.type	unroll7aa_combine, @function
unroll7aa_combine:
.LFB51:
	.loc 1 1391 0
	.cfi_startproc
.LVL1062:
	pushq	%r13
	.cfi_def_cfa_offset 16
	.cfi_offset 13, -16
	pushq	%r12
	.cfi_def_cfa_offset 24
	.cfi_offset 12, -24
	pushq	%rbp
	.cfi_def_cfa_offset 32
	.cfi_offset 6, -32
	pushq	%rbx
	.cfi_def_cfa_offset 40
	.cfi_offset 3, -40
	subq	$8, %rsp
	.cfi_def_cfa_offset 48
	movq	%rdi, %r13
	movq	%rsi, %r12
	.loc 1 1393 0
	call	vec_length
.LVL1063:
	movq	%rax, %rbx
.LVL1064:
	.loc 1 1394 0
	leaq	-6(%rax), %rbp
.LVL1065:
	.loc 1 1395 0
	movq	%r13, %rdi
	call	get_vec_start
.LVL1066:
	.loc 1 1399 0
	testq	%rbp, %rbp
	jle	.L347
	movq	%rax, %rdx
	.loc 1 1396 0
	vmovss	.LC0(%rip), %xmm0
	.loc 1 1399 0
	movl	$0, %ecx
.LVL1067:
.L344:
.LBB7:
	.loc 1 1400 0 discriminator 2
	vmovss	(%rdx), %xmm2
	vmulss	4(%rdx), %xmm2, %xmm2
.LVL1068:
	.loc 1 1401 0 discriminator 2
	vmovss	8(%rdx), %xmm1
	vmulss	12(%rdx), %xmm1, %xmm1
.LVL1069:
	.loc 1 1402 0 discriminator 2
	vmulss	%xmm1, %xmm2, %xmm1
.LVL1070:
	.loc 1 1403 0 discriminator 2
	vmovss	16(%rdx), %xmm2
.LVL1071:
	vmulss	20(%rdx), %xmm2, %xmm2
.LVL1072:
	.loc 1 1405 0 discriminator 2
	vmulss	24(%rdx), %xmm2, %xmm2
.LVL1073:
	.loc 1 1406 0 discriminator 2
	vmulss	%xmm2, %xmm1, %xmm1
.LVL1074:
	vmulss	%xmm1, %xmm0, %xmm0
.LVL1075:
.LBE7:
	.loc 1 1399 0 discriminator 2
	addq	$7, %rcx
.LVL1076:
	addq	$28, %rdx
.LVL1077:
	cmpq	%rcx, %rbp
	jg	.L344
	jmp	.L343
.LVL1078:
.L347:
	.loc 1 1396 0
	vmovss	.LC0(%rip), %xmm0
	.loc 1 1399 0
	movl	$0, %ecx
.LVL1079:
.L343:
	.loc 1 1410 0 discriminator 1
	cmpq	%rcx, %rbx
	jle	.L345
.L346:
	.loc 1 1411 0 discriminator 2
	vmulss	(%rax,%rcx,4), %xmm0, %xmm0
.LVL1080:
	.loc 1 1410 0 discriminator 2
	addq	$1, %rcx
.LVL1081:
	cmpq	%rbx, %rcx
	jne	.L346
.L345:
	.loc 1 1414 0
	vmovss	%xmm0, (%r12)
	.loc 1 1415 0
	addq	$8, %rsp
	.cfi_def_cfa_offset 40
	popq	%rbx
	.cfi_def_cfa_offset 32
.LVL1082:
	popq	%rbp
	.cfi_def_cfa_offset 24
.LVL1083:
	popq	%r12
	.cfi_def_cfa_offset 16
.LVL1084:
	popq	%r13
	.cfi_def_cfa_offset 8
.LVL1085:
	ret
	.cfi_endproc
.LFE51:
	.size	unroll7aa_combine, .-unroll7aa_combine
	.globl	unroll8aa_combine
	.type	unroll8aa_combine, @function
unroll8aa_combine:
.LFB52:
	.loc 1 1419 0
	.cfi_startproc
.LVL1086:
	pushq	%r13
	.cfi_def_cfa_offset 16
	.cfi_offset 13, -16
	pushq	%r12
	.cfi_def_cfa_offset 24
	.cfi_offset 12, -24
	pushq	%rbp
	.cfi_def_cfa_offset 32
	.cfi_offset 6, -32
	pushq	%rbx
	.cfi_def_cfa_offset 40
	.cfi_offset 3, -40
	subq	$8, %rsp
	.cfi_def_cfa_offset 48
	movq	%rdi, %r13
	movq	%rsi, %r12
	.loc 1 1421 0
	call	vec_length
.LVL1087:
	movq	%rax, %rbx
.LVL1088:
	.loc 1 1422 0
	leaq	-7(%rax), %rbp
.LVL1089:
	.loc 1 1423 0
	movq	%r13, %rdi
	call	get_vec_start
.LVL1090:
	.loc 1 1427 0
	testq	%rbp, %rbp
	jle	.L354
	movq	%rax, %rdx
	.loc 1 1424 0
	vmovss	.LC0(%rip), %xmm0
	.loc 1 1427 0
	movl	$0, %ecx
.LVL1091:
.L351:
.LBB8:
	.loc 1 1428 0 discriminator 2
	vmovss	(%rdx), %xmm2
	vmulss	4(%rdx), %xmm2, %xmm2
.LVL1092:
	.loc 1 1429 0 discriminator 2
	vmovss	8(%rdx), %xmm1
	vmulss	12(%rdx), %xmm1, %xmm1
.LVL1093:
	.loc 1 1430 0 discriminator 2
	vmulss	%xmm1, %xmm2, %xmm2
.LVL1094:
	.loc 1 1431 0 discriminator 2
	vmovss	16(%rdx), %xmm3
	vmulss	20(%rdx), %xmm3, %xmm3
.LVL1095:
	.loc 1 1432 0 discriminator 2
	vmovss	24(%rdx), %xmm1
.LVL1096:
	vmulss	28(%rdx), %xmm1, %xmm1
.LVL1097:
	.loc 1 1433 0 discriminator 2
	vmulss	%xmm1, %xmm3, %xmm1
.LVL1098:
	.loc 1 1434 0 discriminator 2
	vmulss	%xmm1, %xmm2, %xmm1
.LVL1099:
	vmulss	%xmm1, %xmm0, %xmm0
.LVL1100:
.LBE8:
	.loc 1 1427 0 discriminator 2
	addq	$8, %rcx
.LVL1101:
	addq	$32, %rdx
.LVL1102:
	cmpq	%rcx, %rbp
	jg	.L351
	jmp	.L350
.LVL1103:
.L354:
	.loc 1 1424 0
	vmovss	.LC0(%rip), %xmm0
	.loc 1 1427 0
	movl	$0, %ecx
.LVL1104:
.L350:
	.loc 1 1438 0 discriminator 1
	cmpq	%rcx, %rbx
	jle	.L352
.L353:
	.loc 1 1439 0 discriminator 2
	vmulss	(%rax,%rcx,4), %xmm0, %xmm0
.LVL1105:
	.loc 1 1438 0 discriminator 2
	addq	$1, %rcx
.LVL1106:
	cmpq	%rbx, %rcx
	jne	.L353
.L352:
	.loc 1 1442 0
	vmovss	%xmm0, (%r12)
	.loc 1 1443 0
	addq	$8, %rsp
	.cfi_def_cfa_offset 40
	popq	%rbx
	.cfi_def_cfa_offset 32
.LVL1107:
	popq	%rbp
	.cfi_def_cfa_offset 24
.LVL1108:
	popq	%r12
	.cfi_def_cfa_offset 16
.LVL1109:
	popq	%r13
	.cfi_def_cfa_offset 8
.LVL1110:
	ret
	.cfi_endproc
.LFE52:
	.size	unroll8aa_combine, .-unroll8aa_combine
	.globl	unroll9aa_combine
	.type	unroll9aa_combine, @function
unroll9aa_combine:
.LFB53:
	.loc 1 1447 0
	.cfi_startproc
.LVL1111:
	pushq	%r13
	.cfi_def_cfa_offset 16
	.cfi_offset 13, -16
	pushq	%r12
	.cfi_def_cfa_offset 24
	.cfi_offset 12, -24
	pushq	%rbp
	.cfi_def_cfa_offset 32
	.cfi_offset 6, -32
	pushq	%rbx
	.cfi_def_cfa_offset 40
	.cfi_offset 3, -40
	subq	$8, %rsp
	.cfi_def_cfa_offset 48
	movq	%rdi, %r13
	movq	%rsi, %r12
	.loc 1 1449 0
	call	vec_length
.LVL1112:
	movq	%rax, %rbx
.LVL1113:
	.loc 1 1450 0
	leaq	-8(%rax), %rbp
.LVL1114:
	.loc 1 1451 0
	movq	%r13, %rdi
	call	get_vec_start
.LVL1115:
	.loc 1 1455 0
	testq	%rbp, %rbp
	jle	.L361
	movq	%rax, %rdx
	.loc 1 1452 0
	vmovss	.LC0(%rip), %xmm0
	.loc 1 1455 0
	movl	$0, %ecx
.LVL1116:
.L358:
.LBB9:
	.loc 1 1456 0 discriminator 2
	vmovss	(%rdx), %xmm2
	vmulss	4(%rdx), %xmm2, %xmm2
.LVL1117:
	.loc 1 1457 0 discriminator 2
	vmovss	8(%rdx), %xmm1
	vmulss	12(%rdx), %xmm1, %xmm1
.LVL1118:
	.loc 1 1458 0 discriminator 2
	vmulss	%xmm1, %xmm2, %xmm1
.LVL1119:
	.loc 1 1459 0 discriminator 2
	vmovss	16(%rdx), %xmm3
	vmulss	20(%rdx), %xmm3, %xmm3
.LVL1120:
	.loc 1 1460 0 discriminator 2
	vmovss	24(%rdx), %xmm2
.LVL1121:
	vmulss	28(%rdx), %xmm2, %xmm2
.LVL1122:
	.loc 1 1462 0 discriminator 2
	vmulss	%xmm2, %xmm3, %xmm2
.LVL1123:
	vmulss	32(%rdx), %xmm2, %xmm2
	.loc 1 1463 0 discriminator 2
	vmulss	%xmm2, %xmm1, %xmm1
.LVL1124:
	vmulss	%xmm1, %xmm0, %xmm0
.LVL1125:
.LBE9:
	.loc 1 1455 0 discriminator 2
	addq	$9, %rcx
.LVL1126:
	addq	$36, %rdx
.LVL1127:
	cmpq	%rcx, %rbp
	jg	.L358
	jmp	.L357
.LVL1128:
.L361:
	.loc 1 1452 0
	vmovss	.LC0(%rip), %xmm0
	.loc 1 1455 0
	movl	$0, %ecx
.LVL1129:
.L357:
	.loc 1 1467 0 discriminator 1
	cmpq	%rcx, %rbx
	jle	.L359
.L360:
	.loc 1 1468 0 discriminator 2
	vmulss	(%rax,%rcx,4), %xmm0, %xmm0
.LVL1130:
	.loc 1 1467 0 discriminator 2
	addq	$1, %rcx
.LVL1131:
	cmpq	%rbx, %rcx
	jne	.L360
.L359:
	.loc 1 1471 0
	vmovss	%xmm0, (%r12)
	.loc 1 1472 0
	addq	$8, %rsp
	.cfi_def_cfa_offset 40
	popq	%rbx
	.cfi_def_cfa_offset 32
.LVL1132:
	popq	%rbp
	.cfi_def_cfa_offset 24
.LVL1133:
	popq	%r12
	.cfi_def_cfa_offset 16
.LVL1134:
	popq	%r13
	.cfi_def_cfa_offset 8
.LVL1135:
	ret
	.cfi_endproc
.LFE53:
	.size	unroll9aa_combine, .-unroll9aa_combine
	.globl	unroll10aa_combine
	.type	unroll10aa_combine, @function
unroll10aa_combine:
.LFB54:
	.loc 1 1476 0
	.cfi_startproc
.LVL1136:
	pushq	%r13
	.cfi_def_cfa_offset 16
	.cfi_offset 13, -16
	pushq	%r12
	.cfi_def_cfa_offset 24
	.cfi_offset 12, -24
	pushq	%rbp
	.cfi_def_cfa_offset 32
	.cfi_offset 6, -32
	pushq	%rbx
	.cfi_def_cfa_offset 40
	.cfi_offset 3, -40
	subq	$8, %rsp
	.cfi_def_cfa_offset 48
	movq	%rdi, %r13
	movq	%rsi, %r12
	.loc 1 1478 0
	call	vec_length
.LVL1137:
	movq	%rax, %rbx
.LVL1138:
	.loc 1 1479 0
	leaq	-9(%rax), %rbp
.LVL1139:
	.loc 1 1480 0
	movq	%r13, %rdi
	call	get_vec_start
.LVL1140:
	.loc 1 1484 0
	testq	%rbp, %rbp
	jle	.L368
	movq	%rax, %rdx
	.loc 1 1481 0
	vmovss	.LC0(%rip), %xmm0
	.loc 1 1484 0
	movl	$0, %ecx
.LVL1141:
.L365:
.LBB10:
	.loc 1 1485 0 discriminator 2
	vmovss	(%rdx), %xmm2
	vmulss	4(%rdx), %xmm2, %xmm2
.LVL1142:
	.loc 1 1486 0 discriminator 2
	vmovss	8(%rdx), %xmm1
	vmulss	12(%rdx), %xmm1, %xmm1
.LVL1143:
	.loc 1 1487 0 discriminator 2
	vmulss	%xmm1, %xmm2, %xmm2
.LVL1144:
	.loc 1 1488 0 discriminator 2
	vmovss	16(%rdx), %xmm3
	vmulss	20(%rdx), %xmm3, %xmm3
.LVL1145:
	.loc 1 1489 0 discriminator 2
	vmovss	24(%rdx), %xmm1
.LVL1146:
	vmulss	28(%rdx), %xmm1, %xmm1
.LVL1147:
	.loc 1 1491 0 discriminator 2
	vmulss	%xmm1, %xmm3, %xmm1
.LVL1148:
	.loc 1 1490 0 discriminator 2
	vmovss	32(%rdx), %xmm3
.LVL1149:
	vmulss	36(%rdx), %xmm3, %xmm3
.LVL1150:
	.loc 1 1491 0 discriminator 2
	vmulss	%xmm3, %xmm1, %xmm1
	.loc 1 1492 0 discriminator 2
	vmulss	%xmm1, %xmm2, %xmm1
	vmulss	%xmm1, %xmm0, %xmm0
.LVL1151:
.LBE10:
	.loc 1 1484 0 discriminator 2
	addq	$10, %rcx
.LVL1152:
	addq	$40, %rdx
.LVL1153:
	cmpq	%rcx, %rbp
	jg	.L365
	jmp	.L364
.LVL1154:
.L368:
	.loc 1 1481 0
	vmovss	.LC0(%rip), %xmm0
	.loc 1 1484 0
	movl	$0, %ecx
.LVL1155:
.L364:
	.loc 1 1496 0 discriminator 1
	cmpq	%rcx, %rbx
	jle	.L366
.L367:
	.loc 1 1497 0 discriminator 2
	vmulss	(%rax,%rcx,4), %xmm0, %xmm0
.LVL1156:
	.loc 1 1496 0 discriminator 2
	addq	$1, %rcx
.LVL1157:
	cmpq	%rbx, %rcx
	jne	.L367
.L366:
	.loc 1 1500 0
	vmovss	%xmm0, (%r12)
	.loc 1 1501 0
	addq	$8, %rsp
	.cfi_def_cfa_offset 40
	popq	%rbx
	.cfi_def_cfa_offset 32
.LVL1158:
	popq	%rbp
	.cfi_def_cfa_offset 24
.LVL1159:
	popq	%r12
	.cfi_def_cfa_offset 16
.LVL1160:
	popq	%r13
	.cfi_def_cfa_offset 8
.LVL1161:
	ret
	.cfi_endproc
.LFE54:
	.size	unroll10aa_combine, .-unroll10aa_combine
	.globl	unroll12aa_combine
	.type	unroll12aa_combine, @function
unroll12aa_combine:
.LFB55:
	.loc 1 1506 0
	.cfi_startproc
.LVL1162:
	pushq	%r13
	.cfi_def_cfa_offset 16
	.cfi_offset 13, -16
	pushq	%r12
	.cfi_def_cfa_offset 24
	.cfi_offset 12, -24
	pushq	%rbp
	.cfi_def_cfa_offset 32
	.cfi_offset 6, -32
	pushq	%rbx
	.cfi_def_cfa_offset 40
	.cfi_offset 3, -40
	subq	$8, %rsp
	.cfi_def_cfa_offset 48
	movq	%rdi, %r13
	movq	%rsi, %r12
	.loc 1 1508 0
	call	vec_length
.LVL1163:
	movq	%rax, %rbx
.LVL1164:
	.loc 1 1509 0
	leaq	-11(%rax), %rbp
.LVL1165:
	.loc 1 1510 0
	movq	%r13, %rdi
	call	get_vec_start
.LVL1166:
	.loc 1 1514 0
	testq	%rbp, %rbp
	jle	.L375
	movq	%rax, %rdx
	.loc 1 1511 0
	vmovss	.LC0(%rip), %xmm0
	.loc 1 1514 0
	movl	$0, %ecx
.LVL1167:
.L372:
.LBB11:
	.loc 1 1515 0 discriminator 2
	vmovss	(%rdx), %xmm2
	vmulss	4(%rdx), %xmm2, %xmm2
.LVL1168:
	.loc 1 1516 0 discriminator 2
	vmovss	8(%rdx), %xmm1
	vmulss	12(%rdx), %xmm1, %xmm1
.LVL1169:
	.loc 1 1517 0 discriminator 2
	vmulss	%xmm1, %xmm2, %xmm2
.LVL1170:
	.loc 1 1518 0 discriminator 2
	vmovss	16(%rdx), %xmm3
	vmulss	20(%rdx), %xmm3, %xmm3
.LVL1171:
	.loc 1 1519 0 discriminator 2
	vmovss	24(%rdx), %xmm1
.LVL1172:
	vmulss	28(%rdx), %xmm1, %xmm1
.LVL1173:
	.loc 1 1520 0 discriminator 2
	vmulss	%xmm1, %xmm3, %xmm1
.LVL1174:
	.loc 1 1524 0 discriminator 2
	vmulss	%xmm1, %xmm2, %xmm2
.LVL1175:
	.loc 1 1521 0 discriminator 2
	vmovss	32(%rdx), %xmm3
.LVL1176:
	vmulss	36(%rdx), %xmm3, %xmm3
.LVL1177:
	.loc 1 1522 0 discriminator 2
	vmovss	40(%rdx), %xmm1
.LVL1178:
	vmulss	44(%rdx), %xmm1, %xmm1
.LVL1179:
	.loc 1 1523 0 discriminator 2
	vmulss	%xmm1, %xmm3, %xmm1
.LVL1180:
	.loc 1 1524 0 discriminator 2
	vmulss	%xmm1, %xmm2, %xmm1
.LVL1181:
	vmulss	%xmm1, %xmm0, %xmm0
.LVL1182:
.LBE11:
	.loc 1 1514 0 discriminator 2
	addq	$12, %rcx
.LVL1183:
	addq	$48, %rdx
.LVL1184:
	cmpq	%rcx, %rbp
	jg	.L372
	jmp	.L371
.LVL1185:
.L375:
	.loc 1 1511 0
	vmovss	.LC0(%rip), %xmm0
	.loc 1 1514 0
	movl	$0, %ecx
.LVL1186:
.L371:
	.loc 1 1528 0 discriminator 1
	cmpq	%rcx, %rbx
	jle	.L373
.L374:
	.loc 1 1529 0 discriminator 2
	vmulss	(%rax,%rcx,4), %xmm0, %xmm0
.LVL1187:
	.loc 1 1528 0 discriminator 2
	addq	$1, %rcx
.LVL1188:
	cmpq	%rbx, %rcx
	jne	.L374
.L373:
	.loc 1 1532 0
	vmovss	%xmm0, (%r12)
	.loc 1 1533 0
	addq	$8, %rsp
	.cfi_def_cfa_offset 40
	popq	%rbx
	.cfi_def_cfa_offset 32
.LVL1189:
	popq	%rbp
	.cfi_def_cfa_offset 24
.LVL1190:
	popq	%r12
	.cfi_def_cfa_offset 16
.LVL1191:
	popq	%r13
	.cfi_def_cfa_offset 8
.LVL1192:
	ret
	.cfi_endproc
.LFE55:
	.size	unroll12aa_combine, .-unroll12aa_combine
	.globl	simd_v1_combine
	.type	simd_v1_combine, @function
simd_v1_combine:
.LFB56:
	.loc 1 1560 0
	.cfi_startproc
.LVL1193:
	pushq	%rbp
	.cfi_def_cfa_offset 16
	.cfi_offset 6, -16
	movq	%rsp, %rbp
	.cfi_def_cfa_register 6
	pushq	%r13
	pushq	%r12
	pushq	%rbx
	andq	$-32, %rsp
	subq	$32, %rsp
	.cfi_offset 13, -24
	.cfi_offset 12, -32
	.cfi_offset 3, -40
	movq	%rdi, %r13
	movq	%rsi, %r12
	.loc 1 1564 0
	call	get_vec_start
.LVL1194:
	movq	%rax, %rbx
.LVL1195:
	.loc 1 1565 0
	movq	%r13, %rdi
	call	vec_length
.LVL1196:
	movl	%eax, %edx
.LVL1197:
	leaq	32(%rsp), %rsi
	movq	%rsp, %rcx
	.loc 1 1570 0
	vmovss	.LC0(%rip), %xmm0
.LVL1198:
.L379:
	.loc 1 1570 0 is_stmt 0 discriminator 2
	vmovss	%xmm0, (%rcx)
	addq	$4, %rcx
	.loc 1 1569 0 is_stmt 1 discriminator 2
	cmpq	%rsi, %rcx
	jne	.L379
	.loc 1 1571 0
	vmovaps	(%rsp), %ymm1
.LVL1199:
	.loc 1 1575 0
	testb	$31, %bl
	je	.L392
	testl	%eax, %eax
	je	.L393
	.loc 1 1566 0
	vmovss	.LC0(%rip), %xmm0
.LVL1200:
.L385:
	.loc 1 1576 0
	addq	$4, %rbx
.LVL1201:
	vmulss	-4(%rbx), %xmm0, %xmm0
.LVL1202:
	.loc 1 1577 0
	subl	$1, %edx
.LVL1203:
	.loc 1 1575 0
	testb	$31, %bl
	jne	.L382
	jmp	.L380
.LVL1204:
.L392:
	.loc 1 1566 0
	vmovss	.LC0(%rip), %xmm0
.LVL1205:
.L380:
	.loc 1 1581 0 discriminator 1
	movl	%edx, %ecx
	cmpl	$7, %edx
	ja	.L383
	jmp	.L384
.LVL1206:
.L382:
	.loc 1 1575 0 discriminator 2
	testl	%edx, %edx
	jne	.L385
	.p2align 4,,9
	jmp	.L384
.LVL1207:
.L383:
	.loc 1 1581 0
	movq	%rbx, %rax
.LVL1208:
.L387:
.LBB12:
	.loc 1 1583 0
	vmulps	(%rax), %ymm1, %ymm1
.LVL1209:
	.loc 1 1584 0
	addq	$32, %rax
.LVL1210:
	.loc 1 1585 0
	subl	$8, %edx
.LVL1211:
.LBE12:
	.loc 1 1581 0
	cmpl	$7, %edx
	ja	.L387
	leal	-8(%rcx), %eax
.LVL1212:
	movl	%eax, %edx
.LVL1213:
	shrl	$3, %edx
	movl	%edx, %ecx
	addq	$1, %rcx
	salq	$5, %rcx
	addq	%rcx, %rbx
	negl	%edx
	leal	(%rax,%rdx,8), %edx
.L384:
.LVL1214:
	.loc 1 1589 0 discriminator 1
	testl	%edx, %edx
	je	.L388
.L389:
	.loc 1 1590 0
	addq	$4, %rbx
.LVL1215:
	vmulss	-4(%rbx), %xmm0, %xmm0
.LVL1216:
	.loc 1 1589 0
	subl	$1, %edx
.LVL1217:
	jne	.L389
	jmp	.L388
.LVL1218:
.L391:
	.loc 1 1597 0 discriminator 2
	vmulss	(%rax), %xmm0, %xmm0
.LVL1219:
	addq	$4, %rax
	.loc 1 1596 0 discriminator 2
	cmpq	%rsi, %rax
	jne	.L391
	.loc 1 1600 0
	vmovss	%xmm0, (%r12)
	jmp	.L394
.LVL1220:
.L393:
	.loc 1 1566 0
	vmovss	.LC0(%rip), %xmm0
	jmp	.L384
.LVL1221:
.L388:
	.loc 1 1595 0
	vmovaps	%ymm1, (%rsp)
.LVL1222:
	movq	%rsp, %rax
	jmp	.L391
.LVL1223:
.L394:
	.loc 1 1601 0
	leaq	-24(%rbp), %rsp
	popq	%rbx
.LVL1224:
	popq	%r12
.LVL1225:
	popq	%r13
.LVL1226:
	popq	%rbp
	.cfi_def_cfa 7, 8
	ret
	.cfi_endproc
.LFE56:
	.size	simd_v1_combine, .-simd_v1_combine
	.globl	simd_v2_combine
	.type	simd_v2_combine, @function
simd_v2_combine:
.LFB57:
	.loc 1 1607 0
	.cfi_startproc
.LVL1227:
	pushq	%rbp
	.cfi_def_cfa_offset 16
	.cfi_offset 6, -16
	movq	%rsp, %rbp
	.cfi_def_cfa_register 6
	pushq	%r13
	pushq	%r12
	pushq	%rbx
	andq	$-32, %rsp
	subq	$32, %rsp
	.cfi_offset 13, -24
	.cfi_offset 12, -32
	.cfi_offset 3, -40
	movq	%rdi, %r13
	movq	%rsi, %r12
	.loc 1 1611 0
	call	get_vec_start
.LVL1228:
	movq	%rax, %rbx
.LVL1229:
	.loc 1 1612 0
	movq	%r13, %rdi
	call	vec_length
.LVL1230:
	movl	%eax, %edx
.LVL1231:
	leaq	32(%rsp), %rsi
	movq	%rsp, %rcx
	.loc 1 1617 0
	vmovss	.LC0(%rip), %xmm0
.LVL1232:
.L398:
	.loc 1 1617 0 is_stmt 0 discriminator 2
	vmovss	%xmm0, (%rcx)
	addq	$4, %rcx
	.loc 1 1616 0 is_stmt 1 discriminator 2
	cmpq	%rsi, %rcx
	jne	.L398
	.loc 1 1618 0
	vmovaps	(%rsp), %ymm1
.LVL1233:
	.loc 1 1621 0
	testb	$31, %bl
	je	.L411
	testl	%eax, %eax
	je	.L412
	.loc 1 1613 0
	vmovss	.LC0(%rip), %xmm0
.LVL1234:
.L404:
	.loc 1 1622 0
	addq	$4, %rbx
.LVL1235:
	vmulss	-4(%rbx), %xmm0, %xmm0
.LVL1236:
	.loc 1 1623 0
	subl	$1, %edx
.LVL1237:
	.loc 1 1621 0
	testb	$31, %bl
	jne	.L401
	jmp	.L399
.LVL1238:
.L411:
	.loc 1 1613 0
	vmovss	.LC0(%rip), %xmm0
.LVL1239:
.L399:
	.loc 1 1626 0 discriminator 1
	movl	%edx, %ecx
	cmpl	$15, %edx
	ja	.L402
	.loc 1 1626 0 is_stmt 0
	vmovaps	%ymm1, %ymm2
	jmp	.L403
.LVL1240:
.L401:
	.loc 1 1621 0 is_stmt 1 discriminator 2
	testl	%edx, %edx
	jne	.L404
	.p2align 4,,5
	jmp	.L400
.LVL1241:
.L402:
	.loc 1 1626 0
	movq	%rbx, %rax
	vmovaps	%ymm1, %ymm2
.LVL1242:
.L406:
.LBB13:
	.loc 1 1629 0
	vmulps	(%rax), %ymm1, %ymm1
.LVL1243:
	.loc 1 1630 0
	vmulps	32(%rax), %ymm2, %ymm2
.LVL1244:
	.loc 1 1631 0
	addq	$64, %rax
.LVL1245:
	.loc 1 1632 0
	subl	$16, %edx
.LVL1246:
.LBE13:
	.loc 1 1626 0
	cmpl	$15, %edx
	ja	.L406
	leal	-16(%rcx), %edx
.LVL1247:
	movl	%edx, %eax
.LVL1248:
	shrl	$4, %eax
	movl	%eax, %ecx
	addq	$1, %rcx
	salq	$6, %rcx
	addq	%rcx, %rbx
	sall	$4, %eax
	subl	%eax, %edx
.L403:
.LVL1249:
	.loc 1 1634 0 discriminator 1
	testl	%edx, %edx
	je	.L407
.L408:
	.loc 1 1635 0
	addq	$4, %rbx
.LVL1250:
	vmulss	-4(%rbx), %xmm0, %xmm0
.LVL1251:
	.loc 1 1634 0
	subl	$1, %edx
.LVL1252:
	jne	.L408
	jmp	.L407
.LVL1253:
.L410:
	.loc 1 1640 0 discriminator 2
	vmulss	(%rax), %xmm0, %xmm0
.LVL1254:
	addq	$4, %rax
	.loc 1 1639 0 discriminator 2
	cmpq	%rsi, %rax
	jne	.L410
	.loc 1 1641 0
	vmovss	%xmm0, (%r12)
	jmp	.L413
.LVL1255:
.L412:
	.loc 1 1613 0
	vmovss	.LC0(%rip), %xmm0
.LVL1256:
.L400:
	.loc 1 1626 0
	vmovaps	%ymm1, %ymm2
	jmp	.L403
.LVL1257:
.L407:
	.loc 1 1638 0
	vmulps	%ymm2, %ymm1, %ymm1
.LVL1258:
	vmovaps	%ymm1, (%rsp)
.LVL1259:
	movq	%rsp, %rax
	jmp	.L410
.LVL1260:
.L413:
	.loc 1 1642 0
	leaq	-24(%rbp), %rsp
	popq	%rbx
.LVL1261:
	popq	%r12
.LVL1262:
	popq	%r13
.LVL1263:
	popq	%rbp
	.cfi_def_cfa 7, 8
	ret
	.cfi_endproc
.LFE57:
	.size	simd_v2_combine, .-simd_v2_combine
	.globl	simd_v4_combine
	.type	simd_v4_combine, @function
simd_v4_combine:
.LFB58:
	.loc 1 1646 0
	.cfi_startproc
.LVL1264:
	pushq	%rbp
	.cfi_def_cfa_offset 16
	.cfi_offset 6, -16
	movq	%rsp, %rbp
	.cfi_def_cfa_register 6
	pushq	%r13
	pushq	%r12
	pushq	%rbx
	andq	$-32, %rsp
	subq	$32, %rsp
	.cfi_offset 13, -24
	.cfi_offset 12, -32
	.cfi_offset 3, -40
	movq	%rdi, %r13
	movq	%rsi, %r12
	.loc 1 1649 0
	call	get_vec_start
.LVL1265:
	movq	%rax, %rbx
.LVL1266:
	.loc 1 1650 0
	movq	%r13, %rdi
	call	vec_length
.LVL1267:
	movl	%eax, %edx
.LVL1268:
	leaq	32(%rsp), %rsi
	movq	%rsp, %rcx
	.loc 1 1656 0
	vmovss	.LC0(%rip), %xmm0
.LVL1269:
.L417:
	.loc 1 1656 0 is_stmt 0 discriminator 2
	vmovss	%xmm0, (%rcx)
	addq	$4, %rcx
	.loc 1 1655 0 is_stmt 1 discriminator 2
	cmpq	%rsi, %rcx
	jne	.L417
	.loc 1 1657 0
	vmovaps	(%rsp), %ymm1
.LVL1270:
	.loc 1 1660 0
	testb	$31, %bl
	je	.L430
	testl	%eax, %eax
	je	.L431
	.loc 1 1651 0
	vmovss	.LC0(%rip), %xmm0
.LVL1271:
.L423:
	.loc 1 1661 0
	addq	$4, %rbx
.LVL1272:
	vmulss	-4(%rbx), %xmm0, %xmm0
.LVL1273:
	.loc 1 1662 0
	subl	$1, %edx
.LVL1274:
	.loc 1 1660 0
	testb	$31, %bl
	jne	.L420
	jmp	.L418
.LVL1275:
.L430:
	.loc 1 1651 0
	vmovss	.LC0(%rip), %xmm0
.LVL1276:
.L418:
	.loc 1 1667 0 discriminator 1
	movl	%edx, %ecx
	cmpl	$31, %edx
	ja	.L421
	.loc 1 1667 0 is_stmt 0
	vmovaps	%ymm1, %ymm2
	vmovaps	%ymm1, %ymm3
	vmovaps	%ymm1, %ymm4
	jmp	.L422
.LVL1277:
.L420:
	.loc 1 1660 0 is_stmt 1 discriminator 2
	testl	%edx, %edx
	jne	.L423
	jmp	.L419
.LVL1278:
.L421:
	.loc 1 1667 0
	vmovaps	%ymm1, %ymm2
	vmovaps	%ymm1, %ymm3
	vmovaps	%ymm1, %ymm4
	movq	%rbx, %rax
.LVL1279:
.L425:
.LBB14:
	.loc 1 1672 0
	vmulps	(%rax), %ymm1, %ymm1
.LVL1280:
	.loc 1 1673 0
	vmulps	32(%rax), %ymm4, %ymm4
.LVL1281:
	.loc 1 1674 0
	vmulps	64(%rax), %ymm3, %ymm3
.LVL1282:
	.loc 1 1675 0
	vmulps	96(%rax), %ymm2, %ymm2
.LVL1283:
	.loc 1 1676 0
	subq	$-128, %rax
.LVL1284:
	.loc 1 1677 0
	subl	$32, %edx
.LVL1285:
.LBE14:
	.loc 1 1667 0
	cmpl	$31, %edx
	ja	.L425
	leal	-32(%rcx), %edx
.LVL1286:
	movl	%edx, %eax
.LVL1287:
	shrl	$5, %eax
	movl	%eax, %ecx
	addq	$1, %rcx
	salq	$7, %rcx
	addq	%rcx, %rbx
	sall	$5, %eax
	subl	%eax, %edx
.L422:
.LVL1288:
	.loc 1 1681 0 discriminator 1
	testl	%edx, %edx
	je	.L426
.L427:
	.loc 1 1682 0
	addq	$4, %rbx
.LVL1289:
	vmulss	-4(%rbx), %xmm0, %xmm0
.LVL1290:
	.loc 1 1681 0
	subl	$1, %edx
.LVL1291:
	jne	.L427
	jmp	.L426
.LVL1292:
.L429:
	.loc 1 1692 0 discriminator 2
	vmulss	(%rax), %xmm0, %xmm0
.LVL1293:
	addq	$4, %rax
	.loc 1 1691 0 discriminator 2
	cmpq	%rax, %rsi
	jne	.L429
	.loc 1 1694 0
	vmovss	%xmm0, (%r12)
	jmp	.L432
.LVL1294:
.L431:
	.loc 1 1651 0
	vmovss	.LC0(%rip), %xmm0
.LVL1295:
.L419:
	.loc 1 1667 0
	vmovaps	%ymm1, %ymm2
	vmovaps	%ymm1, %ymm3
	vmovaps	%ymm1, %ymm4
	jmp	.L422
.LVL1296:
.L426:
	.loc 1 1688 0
	vmulps	%ymm4, %ymm1, %ymm1
.LVL1297:
	vmulps	%ymm2, %ymm3, %ymm2
.LVL1298:
	vmulps	%ymm2, %ymm1, %ymm1
	vmovaps	%ymm1, (%rsp)
.LVL1299:
	movq	%rsp, %rax
	jmp	.L429
.LVL1300:
.L432:
	.loc 1 1695 0
	leaq	-24(%rbp), %rsp
	popq	%rbx
.LVL1301:
	popq	%r12
.LVL1302:
	popq	%r13
.LVL1303:
	popq	%rbp
	.cfi_def_cfa 7, 8
	ret
	.cfi_endproc
.LFE58:
	.size	simd_v4_combine, .-simd_v4_combine
	.globl	simd_v8_combine
	.type	simd_v8_combine, @function
simd_v8_combine:
.LFB59:
	.loc 1 1699 0
	.cfi_startproc
.LVL1304:
	pushq	%rbp
	.cfi_def_cfa_offset 16
	.cfi_offset 6, -16
	movq	%rsp, %rbp
	.cfi_def_cfa_register 6
	pushq	%r13
	pushq	%r12
	pushq	%rbx
	andq	$-32, %rsp
	subq	$32, %rsp
	.cfi_offset 13, -24
	.cfi_offset 12, -32
	.cfi_offset 3, -40
	movq	%rdi, %r13
	movq	%rsi, %r12
	.loc 1 1703 0
	call	get_vec_start
.LVL1305:
	movq	%rax, %rbx
.LVL1306:
	.loc 1 1704 0
	movq	%r13, %rdi
	call	vec_length
.LVL1307:
	movl	%eax, %edx
.LVL1308:
	leaq	32(%rsp), %rsi
	movq	%rsp, %rcx
	.loc 1 1709 0
	vmovss	.LC0(%rip), %xmm0
.LVL1309:
.L436:
	.loc 1 1709 0 is_stmt 0 discriminator 2
	vmovss	%xmm0, (%rcx)
	addq	$4, %rcx
	.loc 1 1708 0 is_stmt 1 discriminator 2
	cmpq	%rsi, %rcx
	jne	.L436
	.loc 1 1710 0
	vmovaps	(%rsp), %ymm1
.LVL1310:
	.loc 1 1719 0
	testb	$31, %bl
	je	.L449
	testl	%eax, %eax
	je	.L450
	.loc 1 1705 0
	vmovss	.LC0(%rip), %xmm0
.LVL1311:
.L442:
	.loc 1 1720 0
	addq	$4, %rbx
.LVL1312:
	vmulss	-4(%rbx), %xmm0, %xmm0
.LVL1313:
	.loc 1 1721 0
	subl	$1, %edx
.LVL1314:
	.loc 1 1719 0
	testb	$31, %bl
	jne	.L439
	jmp	.L437
.LVL1315:
.L449:
	.loc 1 1705 0
	vmovss	.LC0(%rip), %xmm0
.LVL1316:
.L437:
	.loc 1 1724 0 discriminator 1
	movl	%edx, %ecx
	cmpl	$63, %edx
	ja	.L440
	.loc 1 1724 0 is_stmt 0
	vmovaps	%ymm1, %ymm2
	vmovaps	%ymm1, %ymm3
	vmovaps	%ymm1, %ymm4
	vmovaps	%ymm1, %ymm5
	vmovaps	%ymm1, %ymm6
	vmovaps	%ymm1, %ymm7
	vmovaps	%ymm1, %ymm8
	jmp	.L441
.LVL1317:
.L439:
	.loc 1 1719 0 is_stmt 1 discriminator 2
	testl	%edx, %edx
	jne	.L442
	jmp	.L438
.LVL1318:
.L440:
	.loc 1 1724 0
	movl	%edx, %eax
	movq	%rbx, %rdx
.LVL1319:
	vmovaps	%ymm1, %ymm2
	vmovaps	%ymm1, %ymm3
	vmovaps	%ymm1, %ymm4
	vmovaps	%ymm1, %ymm5
	vmovaps	%ymm1, %ymm6
	vmovaps	%ymm1, %ymm7
	vmovaps	%ymm1, %ymm8
.LVL1320:
.L444:
.LBB15:
	.loc 1 1733 0
	vmulps	(%rdx), %ymm1, %ymm1
.LVL1321:
	.loc 1 1734 0
	vmulps	32(%rdx), %ymm8, %ymm8
.LVL1322:
	.loc 1 1735 0
	vmulps	64(%rdx), %ymm7, %ymm7
.LVL1323:
	.loc 1 1736 0
	vmulps	96(%rdx), %ymm6, %ymm6
.LVL1324:
	.loc 1 1737 0
	vmulps	128(%rdx), %ymm5, %ymm5
.LVL1325:
	.loc 1 1738 0
	vmulps	160(%rdx), %ymm4, %ymm4
.LVL1326:
	.loc 1 1739 0
	vmulps	192(%rdx), %ymm3, %ymm3
.LVL1327:
	.loc 1 1740 0
	vmulps	224(%rdx), %ymm2, %ymm2
.LVL1328:
	.loc 1 1741 0
	addq	$256, %rdx
.LVL1329:
	.loc 1 1742 0
	subl	$64, %eax
.LVL1330:
.LBE15:
	.loc 1 1724 0
	cmpl	$63, %eax
	ja	.L444
	leal	-64(%rcx), %edx
.LVL1331:
	movl	%edx, %eax
.LVL1332:
	shrl	$6, %eax
	movl	%eax, %ecx
	addq	$1, %rcx
	salq	$8, %rcx
	addq	%rcx, %rbx
	sall	$6, %eax
	subl	%eax, %edx
.L441:
.LVL1333:
	.loc 1 1744 0 discriminator 1
	testl	%edx, %edx
	je	.L445
.L446:
	.loc 1 1745 0
	addq	$4, %rbx
.LVL1334:
	vmulss	-4(%rbx), %xmm0, %xmm0
.LVL1335:
	.loc 1 1744 0
	subl	$1, %edx
.LVL1336:
	jne	.L446
	jmp	.L445
.LVL1337:
.L448:
	.loc 1 1751 0 discriminator 2
	vmulss	(%rax), %xmm0, %xmm0
.LVL1338:
	addq	$4, %rax
	.loc 1 1750 0 discriminator 2
	cmpq	%rax, %rsi
	jne	.L448
	.loc 1 1752 0
	vmovss	%xmm0, (%r12)
	jmp	.L451
.LVL1339:
.L450:
	.loc 1 1705 0
	vmovss	.LC0(%rip), %xmm0
.LVL1340:
.L438:
	.loc 1 1724 0
	vmovaps	%ymm1, %ymm2
	vmovaps	%ymm1, %ymm3
	vmovaps	%ymm1, %ymm4
	vmovaps	%ymm1, %ymm5
	vmovaps	%ymm1, %ymm6
	vmovaps	%ymm1, %ymm7
	vmovaps	%ymm1, %ymm8
	jmp	.L441
.LVL1341:
.L445:
	.loc 1 1748 0
	vmulps	%ymm8, %ymm1, %ymm1
.LVL1342:
	vmulps	%ymm6, %ymm7, %ymm6
.LVL1343:
	vmulps	%ymm6, %ymm1, %ymm1
	.loc 1 1749 0
	vmulps	%ymm4, %ymm5, %ymm5
.LVL1344:
	vmulps	%ymm5, %ymm1, %ymm4
.LVL1345:
	vmulps	%ymm2, %ymm3, %ymm3
.LVL1346:
	vmulps	%ymm3, %ymm4, %ymm2
.LVL1347:
	vmovaps	%ymm2, (%rsp)
.LVL1348:
	movq	%rsp, %rax
	jmp	.L448
.LVL1349:
.L451:
	.loc 1 1753 0
	leaq	-24(%rbp), %rsp
	popq	%rbx
.LVL1350:
	popq	%r12
.LVL1351:
	popq	%r13
.LVL1352:
	popq	%rbp
	.cfi_def_cfa 7, 8
	ret
	.cfi_endproc
.LFE59:
	.size	simd_v8_combine, .-simd_v8_combine
	.globl	simd_v10_combine
	.type	simd_v10_combine, @function
simd_v10_combine:
.LFB60:
	.loc 1 1757 0
	.cfi_startproc
.LVL1353:
	pushq	%rbp
	.cfi_def_cfa_offset 16
	.cfi_offset 6, -16
	movq	%rsp, %rbp
	.cfi_def_cfa_register 6
	pushq	%r13
	pushq	%r12
	pushq	%rbx
	andq	$-32, %rsp
	subq	$32, %rsp
	.cfi_offset 13, -24
	.cfi_offset 12, -32
	.cfi_offset 3, -40
	movq	%rdi, %r13
	movq	%rsi, %r12
	.loc 1 1761 0
	call	get_vec_start
.LVL1354:
	movq	%rax, %rbx
.LVL1355:
	.loc 1 1762 0
	movq	%r13, %rdi
	call	vec_length
.LVL1356:
	movl	%eax, %edx
.LVL1357:
	leaq	32(%rsp), %rsi
	movq	%rsp, %rcx
	.loc 1 1767 0
	vmovss	.LC0(%rip), %xmm0
.LVL1358:
.L455:
	.loc 1 1767 0 is_stmt 0 discriminator 2
	vmovss	%xmm0, (%rcx)
	addq	$4, %rcx
	.loc 1 1766 0 is_stmt 1 discriminator 2
	cmpq	%rsi, %rcx
	jne	.L455
	.loc 1 1768 0
	vmovaps	(%rsp), %ymm1
.LVL1359:
	.loc 1 1779 0
	testb	$31, %bl
	je	.L468
	testl	%eax, %eax
	je	.L469
	.loc 1 1763 0
	vmovss	.LC0(%rip), %xmm0
.LVL1360:
.L461:
	.loc 1 1780 0
	addq	$4, %rbx
.LVL1361:
	vmulss	-4(%rbx), %xmm0, %xmm0
.LVL1362:
	.loc 1 1781 0
	subl	$1, %edx
.LVL1363:
	.loc 1 1779 0
	testb	$31, %bl
	jne	.L458
	jmp	.L456
.LVL1364:
.L468:
	.loc 1 1763 0
	vmovss	.LC0(%rip), %xmm0
.LVL1365:
.L456:
	.loc 1 1784 0 discriminator 1
	movl	%edx, %eax
	cmpl	$79, %edx
	ja	.L459
.LVL1366:
	.loc 1 1784 0 is_stmt 0
	vmovaps	%ymm1, %ymm2
	vmovaps	%ymm1, %ymm3
	vmovaps	%ymm1, %ymm4
	vmovaps	%ymm1, %ymm5
	vmovaps	%ymm1, %ymm6
	vmovaps	%ymm1, %ymm7
	vmovaps	%ymm1, %ymm8
	vmovaps	%ymm1, %ymm9
	vmovaps	%ymm1, %ymm10
	jmp	.L460
.LVL1367:
.L458:
	.loc 1 1779 0 is_stmt 1 discriminator 2
	testl	%edx, %edx
	jne	.L461
	jmp	.L457
.LVL1368:
.L459:
	.loc 1 1784 0
	vmovaps	%ymm1, %ymm2
	vmovaps	%ymm1, %ymm3
	vmovaps	%ymm1, %ymm4
	vmovaps	%ymm1, %ymm5
	vmovaps	%ymm1, %ymm6
	vmovaps	%ymm1, %ymm7
	vmovaps	%ymm1, %ymm8
	vmovaps	%ymm1, %ymm9
	vmovaps	%ymm1, %ymm10
.LVL1369:
.L463:
.LBB16:
	.loc 1 1795 0
	vmulps	(%rbx), %ymm1, %ymm1
.LVL1370:
	.loc 1 1796 0
	vmulps	32(%rbx), %ymm10, %ymm10
.LVL1371:
	.loc 1 1797 0
	vmulps	64(%rbx), %ymm9, %ymm9
.LVL1372:
	.loc 1 1798 0
	vmulps	96(%rbx), %ymm8, %ymm8
.LVL1373:
	.loc 1 1799 0
	vmulps	128(%rbx), %ymm7, %ymm7
.LVL1374:
	.loc 1 1800 0
	vmulps	160(%rbx), %ymm6, %ymm6
.LVL1375:
	.loc 1 1801 0
	vmulps	192(%rbx), %ymm5, %ymm5
.LVL1376:
	.loc 1 1802 0
	vmulps	224(%rbx), %ymm4, %ymm4
.LVL1377:
	.loc 1 1803 0
	vmulps	256(%rbx), %ymm3, %ymm3
.LVL1378:
	.loc 1 1804 0
	vmulps	288(%rbx), %ymm2, %ymm2
.LVL1379:
	.loc 1 1805 0
	addq	$320, %rbx
.LVL1380:
	.loc 1 1806 0
	leal	-80(%rax), %edx
.LVL1381:
.LBE16:
	.loc 1 1784 0
	cmpl	$79, %edx
	jbe	.L460
.LBB17:
	.loc 1 1806 0
	movl	%edx, %eax
	jmp	.L463
.LVL1382:
.L460:
.LBE17:
	.loc 1 1808 0 discriminator 1
	testl	%edx, %edx
	je	.L464
.L465:
	.loc 1 1809 0
	addq	$4, %rbx
.LVL1383:
	vmulss	-4(%rbx), %xmm0, %xmm0
.LVL1384:
	.loc 1 1808 0
	subl	$1, %edx
.LVL1385:
	jne	.L465
	jmp	.L464
.LVL1386:
.L467:
	.loc 1 1816 0 discriminator 2
	vmulss	(%rax), %xmm0, %xmm0
.LVL1387:
	addq	$4, %rax
	.loc 1 1815 0 discriminator 2
	cmpq	%rsi, %rax
	jne	.L467
	.loc 1 1817 0
	vmovss	%xmm0, (%r12)
	jmp	.L470
.LVL1388:
.L469:
	.loc 1 1763 0
	vmovss	.LC0(%rip), %xmm0
.LVL1389:
.L457:
	.loc 1 1784 0
	vmovaps	%ymm1, %ymm2
	vmovaps	%ymm1, %ymm3
	vmovaps	%ymm1, %ymm4
	vmovaps	%ymm1, %ymm5
	vmovaps	%ymm1, %ymm6
	vmovaps	%ymm1, %ymm7
	vmovaps	%ymm1, %ymm8
	vmovaps	%ymm1, %ymm9
	vmovaps	%ymm1, %ymm10
	jmp	.L460
.LVL1390:
.L464:
	.loc 1 1812 0
	vmulps	%ymm10, %ymm1, %ymm1
.LVL1391:
	vmulps	%ymm8, %ymm9, %ymm8
.LVL1392:
	vmulps	%ymm8, %ymm1, %ymm1
	.loc 1 1813 0
	vmulps	%ymm6, %ymm7, %ymm7
.LVL1393:
	vmulps	%ymm7, %ymm1, %ymm6
.LVL1394:
	vmulps	%ymm4, %ymm5, %ymm5
.LVL1395:
	vmulps	%ymm5, %ymm6, %ymm4
.LVL1396:
	.loc 1 1814 0
	vmulps	%ymm2, %ymm3, %ymm3
.LVL1397:
	vmulps	%ymm3, %ymm4, %ymm2
.LVL1398:
	vmovaps	%ymm2, (%rsp)
.LVL1399:
	movq	%rsp, %rax
	jmp	.L467
.LVL1400:
.L470:
	.loc 1 1818 0
	leaq	-24(%rbp), %rsp
	popq	%rbx
.LVL1401:
	popq	%r12
.LVL1402:
	popq	%r13
.LVL1403:
	popq	%rbp
	.cfi_def_cfa 7, 8
	ret
	.cfi_endproc
.LFE60:
	.size	simd_v10_combine, .-simd_v10_combine
	.globl	simd_v12_combine
	.type	simd_v12_combine, @function
simd_v12_combine:
.LFB61:
	.loc 1 1822 0
	.cfi_startproc
.LVL1404:
	pushq	%rbp
	.cfi_def_cfa_offset 16
	.cfi_offset 6, -16
	movq	%rsp, %rbp
	.cfi_def_cfa_register 6
	pushq	%r13
	pushq	%r12
	pushq	%rbx
	andq	$-32, %rsp
	subq	$32, %rsp
	.cfi_offset 13, -24
	.cfi_offset 12, -32
	.cfi_offset 3, -40
	movq	%rdi, %r13
	movq	%rsi, %r12
	.loc 1 1827 0
	call	get_vec_start
.LVL1405:
	movq	%rax, %rbx
.LVL1406:
	.loc 1 1828 0
	movq	%r13, %rdi
	call	vec_length
.LVL1407:
	movl	%eax, %edx
.LVL1408:
	leaq	32(%rsp), %rsi
	movq	%rsp, %rcx
	.loc 1 1833 0
	vmovss	.LC0(%rip), %xmm0
.LVL1409:
.L474:
	.loc 1 1833 0 is_stmt 0 discriminator 2
	vmovss	%xmm0, (%rcx)
	addq	$4, %rcx
	.loc 1 1832 0 is_stmt 1 discriminator 2
	cmpq	%rsi, %rcx
	jne	.L474
	.loc 1 1834 0
	vmovaps	(%rsp), %ymm1
.LVL1410:
	.loc 1 1846 0
	testb	$31, %bl
	je	.L487
	testl	%eax, %eax
	je	.L488
	.loc 1 1829 0
	vmovss	.LC0(%rip), %xmm0
.LVL1411:
.L480:
	.loc 1 1847 0
	addq	$4, %rbx
.LVL1412:
	vmulss	-4(%rbx), %xmm0, %xmm0
.LVL1413:
	.loc 1 1848 0
	subl	$1, %edx
.LVL1414:
	.loc 1 1846 0
	testb	$31, %bl
	jne	.L477
	jmp	.L475
.LVL1415:
.L487:
	.loc 1 1829 0
	vmovss	.LC0(%rip), %xmm0
.LVL1416:
.L475:
	.loc 1 1851 0 discriminator 1
	movl	%edx, %eax
	cmpl	$95, %edx
	ja	.L478
.LVL1417:
	.loc 1 1851 0 is_stmt 0
	vmovaps	%ymm1, %ymm12
	vmovaps	%ymm1, %ymm11
	vmovaps	%ymm1, %ymm10
	vmovaps	%ymm1, %ymm9
	vmovaps	%ymm1, %ymm8
	vmovaps	%ymm1, %ymm7
	vmovaps	%ymm1, %ymm6
	vmovaps	%ymm1, %ymm5
	vmovaps	%ymm1, %ymm4
	vmovaps	%ymm1, %ymm3
	vmovaps	%ymm1, %ymm2
	jmp	.L479
.LVL1418:
.L477:
	.loc 1 1846 0 is_stmt 1 discriminator 2
	testl	%edx, %edx
	jne	.L480
	jmp	.L476
.LVL1419:
.L478:
	.loc 1 1851 0
	vmovaps	%ymm1, %ymm12
	vmovaps	%ymm1, %ymm11
	vmovaps	%ymm1, %ymm10
	vmovaps	%ymm1, %ymm9
	vmovaps	%ymm1, %ymm8
	vmovaps	%ymm1, %ymm7
	vmovaps	%ymm1, %ymm6
	vmovaps	%ymm1, %ymm5
	vmovaps	%ymm1, %ymm4
	vmovaps	%ymm1, %ymm3
	vmovaps	%ymm1, %ymm2
.LVL1420:
.L482:
.LBB18:
	.loc 1 1864 0
	vmulps	(%rbx), %ymm1, %ymm1
.LVL1421:
	.loc 1 1865 0
	vmulps	32(%rbx), %ymm2, %ymm2
.LVL1422:
	.loc 1 1866 0
	vmulps	64(%rbx), %ymm3, %ymm3
.LVL1423:
	.loc 1 1867 0
	vmulps	96(%rbx), %ymm4, %ymm4
.LVL1424:
	.loc 1 1868 0
	vmulps	128(%rbx), %ymm5, %ymm5
.LVL1425:
	.loc 1 1869 0
	vmulps	160(%rbx), %ymm6, %ymm6
.LVL1426:
	.loc 1 1870 0
	vmulps	192(%rbx), %ymm7, %ymm7
.LVL1427:
	.loc 1 1871 0
	vmulps	224(%rbx), %ymm8, %ymm8
.LVL1428:
	.loc 1 1872 0
	vmulps	256(%rbx), %ymm9, %ymm9
.LVL1429:
	.loc 1 1873 0
	vmulps	288(%rbx), %ymm10, %ymm10
.LVL1430:
	.loc 1 1874 0
	vmulps	320(%rbx), %ymm11, %ymm11
.LVL1431:
	.loc 1 1875 0
	vmulps	352(%rbx), %ymm12, %ymm12
.LVL1432:
	.loc 1 1876 0
	addq	$384, %rbx
.LVL1433:
	.loc 1 1877 0
	leal	-96(%rax), %edx
.LVL1434:
.LBE18:
	.loc 1 1851 0
	cmpl	$95, %edx
	jbe	.L479
.LBB19:
	.loc 1 1877 0
	movl	%edx, %eax
	jmp	.L482
.LVL1435:
.L479:
.LBE19:
	.loc 1 1879 0 discriminator 1
	testl	%edx, %edx
	je	.L483
.L484:
	.loc 1 1880 0
	addq	$4, %rbx
.LVL1436:
	vmulss	-4(%rbx), %xmm0, %xmm0
.LVL1437:
	.loc 1 1879 0
	subl	$1, %edx
.LVL1438:
	jne	.L484
	jmp	.L483
.LVL1439:
.L486:
	.loc 1 1887 0 discriminator 2
	vmulss	(%rax), %xmm0, %xmm0
.LVL1440:
	addq	$4, %rax
	.loc 1 1886 0 discriminator 2
	cmpq	%rsi, %rax
	jne	.L486
	.loc 1 1888 0
	vmovss	%xmm0, (%r12)
	jmp	.L489
.LVL1441:
.L483:
	.loc 1 1883 0
	vmulps	%ymm2, %ymm1, %ymm1
.LVL1442:
	vmulps	%ymm4, %ymm3, %ymm3
.LVL1443:
	vmulps	%ymm3, %ymm1, %ymm1
	.loc 1 1884 0
	vmulps	%ymm6, %ymm5, %ymm6
.LVL1444:
	vmulps	%ymm6, %ymm1, %ymm5
.LVL1445:
	vmulps	%ymm8, %ymm7, %ymm8
.LVL1446:
	vmulps	%ymm8, %ymm5, %ymm7
.LVL1447:
	.loc 1 1885 0
	vmulps	%ymm10, %ymm9, %ymm10
.LVL1448:
	vmulps	%ymm10, %ymm7, %ymm9
.LVL1449:
	vmulps	%ymm12, %ymm11, %ymm12
.LVL1450:
	vmulps	%ymm12, %ymm9, %ymm11
.LVL1451:
	vmovaps	%ymm11, (%rsp)
.LVL1452:
	movq	%rsp, %rax
	jmp	.L486
.LVL1453:
.L488:
	.loc 1 1829 0
	vmovss	.LC0(%rip), %xmm0
.LVL1454:
.L476:
	.loc 1 1851 0
	vmovaps	%ymm1, %ymm12
	vmovaps	%ymm1, %ymm11
	vmovaps	%ymm1, %ymm10
	vmovaps	%ymm1, %ymm9
	vmovaps	%ymm1, %ymm8
	vmovaps	%ymm1, %ymm7
	vmovaps	%ymm1, %ymm6
	vmovaps	%ymm1, %ymm5
	vmovaps	%ymm1, %ymm4
	vmovaps	%ymm1, %ymm3
	vmovaps	%ymm1, %ymm2
	jmp	.L479
.LVL1455:
.L489:
	.loc 1 1889 0
	leaq	-24(%rbp), %rsp
	popq	%rbx
.LVL1456:
	popq	%r12
.LVL1457:
	popq	%r13
.LVL1458:
	popq	%rbp
	.cfi_def_cfa 7, 8
	ret
	.cfi_endproc
.LFE61:
	.size	simd_v12_combine, .-simd_v12_combine
	.globl	simd_v2a_combine
	.type	simd_v2a_combine, @function
simd_v2a_combine:
.LFB62:
	.loc 1 1894 0
	.cfi_startproc
.LVL1459:
	pushq	%rbp
	.cfi_def_cfa_offset 16
	.cfi_offset 6, -16
	movq	%rsp, %rbp
	.cfi_def_cfa_register 6
	pushq	%r13
	pushq	%r12
	pushq	%rbx
	andq	$-32, %rsp
	subq	$32, %rsp
	.cfi_offset 13, -24
	.cfi_offset 12, -32
	.cfi_offset 3, -40
	movq	%rdi, %r13
	movq	%rsi, %r12
	.loc 1 1898 0
	call	get_vec_start
.LVL1460:
	movq	%rax, %rbx
.LVL1461:
	.loc 1 1899 0
	movq	%r13, %rdi
	call	vec_length
.LVL1462:
	movl	%eax, %edx
.LVL1463:
	leaq	32(%rsp), %rsi
	movq	%rsp, %rcx
	.loc 1 1904 0
	vmovss	.LC0(%rip), %xmm0
.LVL1464:
.L493:
	.loc 1 1904 0 is_stmt 0 discriminator 2
	vmovss	%xmm0, (%rcx)
	addq	$4, %rcx
	.loc 1 1903 0 is_stmt 1 discriminator 2
	cmpq	%rsi, %rcx
	jne	.L493
	.loc 1 1905 0
	vmovaps	(%rsp), %ymm1
.LVL1465:
	.loc 1 1907 0
	testb	$31, %bl
	je	.L506
	testl	%eax, %eax
	je	.L507
	.loc 1 1900 0
	vmovss	.LC0(%rip), %xmm0
.LVL1466:
.L499:
	.loc 1 1908 0
	addq	$4, %rbx
.LVL1467:
	vmulss	-4(%rbx), %xmm0, %xmm0
.LVL1468:
	.loc 1 1909 0
	subl	$1, %edx
.LVL1469:
	.loc 1 1907 0
	testb	$31, %bl
	jne	.L496
	jmp	.L494
.LVL1470:
.L506:
	.loc 1 1900 0
	vmovss	.LC0(%rip), %xmm0
.LVL1471:
.L494:
	.loc 1 1912 0 discriminator 1
	movl	%edx, %ecx
	cmpl	$15, %edx
	ja	.L497
	jmp	.L498
.LVL1472:
.L496:
	.loc 1 1907 0 discriminator 2
	testl	%edx, %edx
	jne	.L499
	.p2align 4,,9
	jmp	.L498
.LVL1473:
.L497:
	.loc 1 1912 0
	movq	%rbx, %rax
.LVL1474:
.L501:
.LBB20:
	.loc 1 1915 0
	vmovaps	(%rax), %ymm2
	vmulps	32(%rax), %ymm2, %ymm2
	vmulps	%ymm2, %ymm1, %ymm1
.LVL1475:
	.loc 1 1916 0
	addq	$64, %rax
.LVL1476:
	.loc 1 1917 0
	subl	$16, %edx
.LVL1477:
.LBE20:
	.loc 1 1912 0
	cmpl	$15, %edx
	ja	.L501
	leal	-16(%rcx), %edx
.LVL1478:
	movl	%edx, %eax
.LVL1479:
	shrl	$4, %eax
	movl	%eax, %ecx
	addq	$1, %rcx
	salq	$6, %rcx
	addq	%rcx, %rbx
	sall	$4, %eax
	subl	%eax, %edx
.L498:
.LVL1480:
	.loc 1 1919 0 discriminator 1
	testl	%edx, %edx
	je	.L502
.L503:
	.loc 1 1920 0
	addq	$4, %rbx
.LVL1481:
	vmulss	-4(%rbx), %xmm0, %xmm0
.LVL1482:
	.loc 1 1919 0
	subl	$1, %edx
.LVL1483:
	jne	.L503
	jmp	.L502
.LVL1484:
.L505:
	.loc 1 1925 0 discriminator 2
	vmulss	(%rax), %xmm0, %xmm0
.LVL1485:
	addq	$4, %rax
	.loc 1 1924 0 discriminator 2
	cmpq	%rsi, %rax
	jne	.L505
	.loc 1 1926 0
	vmovss	%xmm0, (%r12)
	jmp	.L508
.LVL1486:
.L507:
	.loc 1 1900 0
	vmovss	.LC0(%rip), %xmm0
	jmp	.L498
.LVL1487:
.L502:
	.loc 1 1923 0
	vmovaps	%ymm1, (%rsp)
.LVL1488:
	movq	%rsp, %rax
	jmp	.L505
.LVL1489:
.L508:
	.loc 1 1927 0
	leaq	-24(%rbp), %rsp
	popq	%rbx
.LVL1490:
	popq	%r12
.LVL1491:
	popq	%r13
.LVL1492:
	popq	%rbp
	.cfi_def_cfa 7, 8
	ret
	.cfi_endproc
.LFE62:
	.size	simd_v2a_combine, .-simd_v2a_combine
	.globl	simd_v4a_combine
	.type	simd_v4a_combine, @function
simd_v4a_combine:
.LFB63:
	.loc 1 1931 0
	.cfi_startproc
.LVL1493:
	pushq	%rbp
	.cfi_def_cfa_offset 16
	.cfi_offset 6, -16
	movq	%rsp, %rbp
	.cfi_def_cfa_register 6
	pushq	%r13
	pushq	%r12
	pushq	%rbx
	andq	$-32, %rsp
	subq	$32, %rsp
	.cfi_offset 13, -24
	.cfi_offset 12, -32
	.cfi_offset 3, -40
	movq	%rdi, %r13
	movq	%rsi, %r12
	.loc 1 1935 0
	call	get_vec_start
.LVL1494:
	movq	%rax, %rbx
.LVL1495:
	.loc 1 1936 0
	movq	%r13, %rdi
	call	vec_length
.LVL1496:
	movl	%eax, %edx
.LVL1497:
	leaq	32(%rsp), %rsi
	movq	%rsp, %rcx
	.loc 1 1941 0
	vmovss	.LC0(%rip), %xmm0
.LVL1498:
.L512:
	.loc 1 1941 0 is_stmt 0 discriminator 2
	vmovss	%xmm0, (%rcx)
	addq	$4, %rcx
	.loc 1 1940 0 is_stmt 1 discriminator 2
	cmpq	%rsi, %rcx
	jne	.L512
	.loc 1 1942 0
	vmovaps	(%rsp), %ymm1
.LVL1499:
	.loc 1 1944 0
	testb	$31, %bl
	je	.L525
	testl	%eax, %eax
	je	.L526
	.loc 1 1937 0
	vmovss	.LC0(%rip), %xmm0
.LVL1500:
.L518:
	.loc 1 1945 0
	addq	$4, %rbx
.LVL1501:
	vmulss	-4(%rbx), %xmm0, %xmm0
.LVL1502:
	.loc 1 1946 0
	subl	$1, %edx
.LVL1503:
	.loc 1 1944 0
	testb	$31, %bl
	jne	.L515
	jmp	.L513
.LVL1504:
.L525:
	.loc 1 1937 0
	vmovss	.LC0(%rip), %xmm0
.LVL1505:
.L513:
	.loc 1 1950 0 discriminator 1
	movl	%edx, %ecx
	cmpl	$31, %edx
	ja	.L516
	jmp	.L517
.LVL1506:
.L515:
	.loc 1 1944 0 discriminator 2
	testl	%edx, %edx
	jne	.L518
	.p2align 4,,9
	jmp	.L517
.LVL1507:
.L516:
	.loc 1 1950 0
	movq	%rbx, %rax
.LVL1508:
.L520:
.LBB21:
	.loc 1 1956 0
	vmovaps	(%rax), %ymm3
	vmulps	32(%rax), %ymm3, %ymm3
	vmovaps	64(%rax), %ymm2
	vmulps	96(%rax), %ymm2, %ymm2
	vmulps	%ymm2, %ymm3, %ymm2
	.loc 1 1955 0
	vmulps	%ymm2, %ymm1, %ymm1
.LVL1509:
	.loc 1 1957 0
	subq	$-128, %rax
.LVL1510:
	.loc 1 1958 0
	subl	$32, %edx
.LVL1511:
.LBE21:
	.loc 1 1950 0
	cmpl	$31, %edx
	ja	.L520
	leal	-32(%rcx), %edx
.LVL1512:
	movl	%edx, %eax
.LVL1513:
	shrl	$5, %eax
	movl	%eax, %ecx
	addq	$1, %rcx
	salq	$7, %rcx
	addq	%rcx, %rbx
	sall	$5, %eax
	subl	%eax, %edx
.L517:
.LVL1514:
	.loc 1 1962 0 discriminator 1
	testl	%edx, %edx
	je	.L521
.L522:
	.loc 1 1963 0
	addq	$4, %rbx
.LVL1515:
	vmulss	-4(%rbx), %xmm0, %xmm0
.LVL1516:
	.loc 1 1962 0
	subl	$1, %edx
.LVL1517:
	jne	.L522
	jmp	.L521
.LVL1518:
.L524:
	.loc 1 1968 0 discriminator 2
	vmulss	(%rax), %xmm0, %xmm0
.LVL1519:
	addq	$4, %rax
	.loc 1 1967 0 discriminator 2
	cmpq	%rsi, %rax
	jne	.L524
	.loc 1 1969 0
	vmovss	%xmm0, (%r12)
	jmp	.L527
.LVL1520:
.L526:
	.loc 1 1937 0
	vmovss	.LC0(%rip), %xmm0
	jmp	.L517
.LVL1521:
.L521:
	.loc 1 1966 0
	vmovaps	%ymm1, (%rsp)
.LVL1522:
	movq	%rsp, %rax
	jmp	.L524
.LVL1523:
.L527:
	.loc 1 1970 0
	leaq	-24(%rbp), %rsp
	popq	%rbx
.LVL1524:
	popq	%r12
.LVL1525:
	popq	%r13
.LVL1526:
	popq	%rbp
	.cfi_def_cfa 7, 8
	ret
	.cfi_endproc
.LFE63:
	.size	simd_v4a_combine, .-simd_v4a_combine
	.globl	simd_v8a_combine
	.type	simd_v8a_combine, @function
simd_v8a_combine:
.LFB64:
	.loc 1 1974 0
	.cfi_startproc
.LVL1527:
	pushq	%rbp
	.cfi_def_cfa_offset 16
	.cfi_offset 6, -16
	movq	%rsp, %rbp
	.cfi_def_cfa_register 6
	pushq	%r13
	pushq	%r12
	pushq	%rbx
	andq	$-32, %rsp
	subq	$32, %rsp
	.cfi_offset 13, -24
	.cfi_offset 12, -32
	.cfi_offset 3, -40
	movq	%rdi, %r13
	movq	%rsi, %r12
	.loc 1 1978 0
	call	get_vec_start
.LVL1528:
	movq	%rax, %rbx
.LVL1529:
	.loc 1 1979 0
	movq	%r13, %rdi
	call	vec_length
.LVL1530:
	movl	%eax, %edx
.LVL1531:
	leaq	32(%rsp), %rsi
	movq	%rsp, %rcx
	.loc 1 1984 0
	vmovss	.LC0(%rip), %xmm0
.LVL1532:
.L531:
	.loc 1 1984 0 is_stmt 0 discriminator 2
	vmovss	%xmm0, (%rcx)
	addq	$4, %rcx
	.loc 1 1983 0 is_stmt 1 discriminator 2
	cmpq	%rsi, %rcx
	jne	.L531
	.loc 1 1985 0
	vmovaps	(%rsp), %ymm1
.LVL1533:
	.loc 1 1987 0
	testb	$31, %bl
	je	.L544
	testl	%eax, %eax
	je	.L545
	.loc 1 1980 0
	vmovss	.LC0(%rip), %xmm0
.LVL1534:
.L537:
	.loc 1 1988 0
	addq	$4, %rbx
.LVL1535:
	vmulss	-4(%rbx), %xmm0, %xmm0
.LVL1536:
	.loc 1 1989 0
	subl	$1, %edx
.LVL1537:
	.loc 1 1987 0
	testb	$31, %bl
	jne	.L534
	jmp	.L532
.LVL1538:
.L544:
	.loc 1 1980 0
	vmovss	.LC0(%rip), %xmm0
.LVL1539:
.L532:
	.loc 1 1992 0 discriminator 1
	movl	%edx, %ecx
	cmpl	$63, %edx
	ja	.L535
	jmp	.L536
.LVL1540:
.L534:
	.loc 1 1987 0 discriminator 2
	testl	%edx, %edx
	jne	.L537
	.p2align 4,,9
	jmp	.L536
.LVL1541:
.L535:
	.loc 1 1992 0
	movl	%edx, %eax
	movq	%rbx, %rdx
.LVL1542:
.L539:
.LBB22:
	.loc 1 2002 0
	vmovaps	(%rdx), %ymm3
	vmulps	32(%rdx), %ymm3, %ymm3
	vmovaps	64(%rdx), %ymm2
	vmulps	96(%rdx), %ymm2, %ymm2
	vmulps	%ymm2, %ymm3, %ymm3
	.loc 1 2004 0
	vmovaps	128(%rdx), %ymm4
	vmulps	160(%rdx), %ymm4, %ymm4
	vmovaps	192(%rdx), %ymm2
	vmulps	224(%rdx), %ymm2, %ymm2
	vmulps	%ymm2, %ymm4, %ymm2
	.loc 1 2003 0
	vmulps	%ymm2, %ymm3, %ymm2
	.loc 1 2001 0
	vmulps	%ymm2, %ymm1, %ymm1
.LVL1543:
	.loc 1 2005 0
	addq	$256, %rdx
.LVL1544:
	.loc 1 2006 0
	subl	$64, %eax
.LVL1545:
.LBE22:
	.loc 1 1992 0
	cmpl	$63, %eax
	ja	.L539
	leal	-64(%rcx), %edx
.LVL1546:
	movl	%edx, %eax
.LVL1547:
	shrl	$6, %eax
	movl	%eax, %ecx
	addq	$1, %rcx
	salq	$8, %rcx
	addq	%rcx, %rbx
	sall	$6, %eax
	subl	%eax, %edx
.L536:
.LVL1548:
	.loc 1 2008 0 discriminator 1
	testl	%edx, %edx
	je	.L540
.L541:
	.loc 1 2009 0
	addq	$4, %rbx
.LVL1549:
	vmulss	-4(%rbx), %xmm0, %xmm0
.LVL1550:
	.loc 1 2008 0
	subl	$1, %edx
.LVL1551:
	jne	.L541
	jmp	.L540
.LVL1552:
.L543:
	.loc 1 2014 0 discriminator 2
	vmulss	(%rax), %xmm0, %xmm0
.LVL1553:
	addq	$4, %rax
	.loc 1 2013 0 discriminator 2
	cmpq	%rsi, %rax
	jne	.L543
	.loc 1 2015 0
	vmovss	%xmm0, (%r12)
	jmp	.L546
.LVL1554:
.L545:
	.loc 1 1980 0
	vmovss	.LC0(%rip), %xmm0
	jmp	.L536
.LVL1555:
.L540:
	.loc 1 2012 0
	vmovaps	%ymm1, (%rsp)
.LVL1556:
	movq	%rsp, %rax
	jmp	.L543
.LVL1557:
.L546:
	.loc 1 2016 0
	leaq	-24(%rbp), %rsp
	popq	%rbx
.LVL1558:
	popq	%r12
.LVL1559:
	popq	%r13
.LVL1560:
	popq	%rbp
	.cfi_def_cfa 7, 8
	ret
	.cfi_endproc
.LFE64:
	.size	simd_v8a_combine, .-simd_v8a_combine
	.globl	unroll4x2as_combine
	.type	unroll4x2as_combine, @function
unroll4x2as_combine:
.LFB41:
	.loc 1 1125 0
	.cfi_startproc
.LVL1561:
	pushq	%r14
	.cfi_def_cfa_offset 16
	.cfi_offset 14, -16
	pushq	%r13
	.cfi_def_cfa_offset 24
	.cfi_offset 13, -24
	pushq	%r12
	.cfi_def_cfa_offset 32
	.cfi_offset 12, -32
	pushq	%rbp
	.cfi_def_cfa_offset 40
	.cfi_offset 6, -40
	pushq	%rbx
	.cfi_def_cfa_offset 48
	.cfi_offset 3, -48
	movq	%rdi, %r14
	movq	%rsi, %r12
	.loc 1 1127 0
	call	vec_length
.LVL1562:
	movq	%rax, %rbx
.LVL1563:
	.loc 1 1128 0
	movq	%rax, %r13
	shrq	$63, %r13
	addq	%rax, %r13
	sarq	%r13
.LVL1564:
	.loc 1 1129 0
	movq	%r14, %rdi
	call	get_vec_start
.LVL1565:
	movq	%rax, %rcx
.LVL1566:
	.loc 1 1130 0
	leaq	(%rax,%r13,4), %rax
.LVL1567:
	.loc 1 1135 0
	testq	%r13, %r13
	jle	.L553
	movq	%r13, %rbp
	.loc 1 1132 0
	vmovss	.LC0(%rip), %xmm0
	.loc 1 1131 0
	vmovaps	%xmm0, %xmm1
	.loc 1 1135 0
	movl	$0, %edx
.LVL1568:
.L550:
	.loc 1 1136 0 discriminator 2
	vmulss	(%rcx,%rdx,4), %xmm1, %xmm1
.LVL1569:
	vmulss	(%rax,%rdx,4), %xmm0, %xmm0
.LVL1570:
	.loc 1 1135 0 discriminator 2
	addq	$1, %rdx
.LVL1571:
	cmpq	%rbp, %rdx
	jne	.L550
	jmp	.L549
.LVL1572:
.L553:
	.loc 1 1132 0
	vmovss	.LC0(%rip), %xmm0
	.loc 1 1131 0
	vmovaps	%xmm0, %xmm1
.LVL1573:
.L549:
	.loc 1 1140 0
	leaq	(%r13,%r13), %rdx
.LVL1574:
	cmpq	%rdx, %rbx
	jle	.L551
.L552:
	.loc 1 1141 0 discriminator 2
	vmulss	(%rcx,%rdx,4), %xmm0, %xmm0
.LVL1575:
	.loc 1 1140 0 discriminator 2
	addq	$1, %rdx
.LVL1576:
	cmpq	%rbx, %rdx
	jne	.L552
.L551:
	.loc 1 1143 0
	vmulss	%xmm0, %xmm1, %xmm0
.LVL1577:
	vmovss	%xmm0, (%r12)
	.loc 1 1144 0
	popq	%rbx
	.cfi_def_cfa_offset 40
.LVL1578:
	popq	%rbp
	.cfi_def_cfa_offset 32
	popq	%r12
	.cfi_def_cfa_offset 24
.LVL1579:
	popq	%r13
	.cfi_def_cfa_offset 16
.LVL1580:
	popq	%r14
	.cfi_def_cfa_offset 8
.LVL1581:
	ret
	.cfi_endproc
.LFE41:
	.size	unroll4x2as_combine, .-unroll4x2as_combine
	.globl	register_combiners
	.type	register_combiners, @function
register_combiners:
.LFB65:
	.loc 1 2020 0
	.cfi_startproc
	subq	$8, %rsp
	.cfi_def_cfa_offset 16
	.loc 1 2022 0
	movl	$combine1_descr, %edx
	movl	$combine1, %esi
	movq	%rsi, %rdi
	call	add_combiner
.LVL1582:
	.loc 1 2023 0
	movl	$combine2_descr, %edx
	movl	$combine1, %esi
	movl	$combine2, %edi
	call	add_combiner
.LVL1583:
	.loc 1 2024 0
	movl	$combine3_descr, %edx
	movl	$combine1, %esi
	movl	$combine3, %edi
	call	add_combiner
.LVL1584:
	.loc 1 2025 0
	movl	$combine3w_descr, %edx
	movl	$combine1, %esi
	movl	$combine3w, %edi
	call	add_combiner
.LVL1585:
	.loc 1 2027 0
	movl	$combine4_descr, %edx
	movl	$combine1, %esi
	movl	$combine4, %edi
	call	add_combiner
.LVL1586:
	.loc 1 2029 0
	movl	$combine4b_descr, %edx
	movl	$combine1, %esi
	movl	$combine4b, %edi
	call	add_combiner
.LVL1587:
	.loc 1 2030 0
	movl	$combine4p_descr, %edx
	movl	$combine1, %esi
	movl	$combine4p, %edi
	call	add_combiner
.LVL1588:
	.loc 1 2032 0
	movl	$combine5_descr, %edx
	movl	$combine1, %esi
	movl	$combine5, %edi
	call	add_combiner
.LVL1589:
	.loc 1 2034 0
	movl	$combine5p_descr, %edx
	movl	$combine1, %esi
	movl	$combine5p, %edi
	call	add_combiner
.LVL1590:
	.loc 1 2035 0
	movl	$unroll2aw_descr, %edx
	movl	$combine1, %esi
	movl	$unroll2aw_combine, %edi
	call	add_combiner
.LVL1591:
	.loc 1 2037 0
	movl	$unroll3a_descr, %edx
	movl	$combine1, %esi
	movl	$unroll3a_combine, %edi
	call	add_combiner
.LVL1592:
	.loc 1 2038 0
	movl	$unroll4a_descr, %edx
	movl	$combine1, %esi
	movl	$unroll4a_combine, %edi
	call	add_combiner
.LVL1593:
	.loc 1 2039 0
	movl	$unroll5a_descr, %edx
	movl	$combine1, %esi
	movl	$unroll5a_combine, %edi
	call	add_combiner
.LVL1594:
	.loc 1 2040 0
	movl	$unroll6a_descr, %edx
	movl	$combine1, %esi
	movl	$unroll6a_combine, %edi
	call	add_combiner
.LVL1595:
	.loc 1 2041 0
	movl	$unroll7a_descr, %edx
	movl	$combine1, %esi
	movl	$unroll7a_combine, %edi
	call	add_combiner
.LVL1596:
	.loc 1 2042 0
	movl	$unroll8a_descr, %edx
	movl	$combine1, %esi
	movl	$unroll8a_combine, %edi
	call	add_combiner
.LVL1597:
	.loc 1 2043 0
	movl	$unroll9a_descr, %edx
	movl	$combine1, %esi
	movl	$unroll9a_combine, %edi
	call	add_combiner
.LVL1598:
	.loc 1 2044 0
	movl	$unroll10a_descr, %edx
	movl	$combine1, %esi
	movl	$unroll10a_combine, %edi
	call	add_combiner
.LVL1599:
	.loc 1 2045 0
	movl	$unroll16a_descr, %edx
	movl	$combine1, %esi
	movl	$unroll16a_combine, %edi
	call	add_combiner
.LVL1600:
	.loc 1 2047 0
	movl	$unroll2_descr, %edx
	movl	$combine1, %esi
	movl	$unroll2_combine, %edi
	call	add_combiner
.LVL1601:
	.loc 1 2048 0
	movl	$unroll3_descr, %edx
	movl	$combine1, %esi
	movl	$unroll3_combine, %edi
	call	add_combiner
.LVL1602:
	.loc 1 2049 0
	movl	$unroll4_descr, %edx
	movl	$combine1, %esi
	movl	$unroll4_combine, %edi
	call	add_combiner
.LVL1603:
	.loc 1 2050 0
	movl	$unroll8_descr, %edx
	movl	$combine1, %esi
	movl	$unroll8_combine, %edi
	call	add_combiner
.LVL1604:
	.loc 1 2051 0
	movl	$unroll16_descr, %edx
	movl	$combine1, %esi
	movl	$unroll16_combine, %edi
	call	add_combiner
.LVL1605:
	.loc 1 2052 0
	movl	$combine6_descr, %edx
	movl	$combine1, %esi
	movl	$combine6, %edi
	call	add_combiner
.LVL1606:
	.loc 1 2053 0
	movl	$unroll4x2a_descr, %edx
	movl	$combine1, %esi
	movl	$unroll4x2a_combine, %edi
	call	add_combiner
.LVL1607:
	.loc 1 2054 0
	movl	$unroll8x2a_descr, %edx
	movl	$combine1, %esi
	movl	$unroll8x2a_combine, %edi
	call	add_combiner
.LVL1608:
	.loc 1 2055 0
	movl	$unroll3x3a_descr, %edx
	movl	$combine1, %esi
	movl	$unroll3x3a_combine, %edi
	call	add_combiner
.LVL1609:
	.loc 1 2056 0
	movl	$unroll4x4a_descr, %edx
	movl	$combine1, %esi
	movl	$unroll4x4a_combine, %edi
	call	add_combiner
.LVL1610:
	.loc 1 2057 0
	movl	$unroll5x5a_descr, %edx
	movl	$combine1, %esi
	movl	$unroll5x5a_combine, %edi
	call	add_combiner
.LVL1611:
	.loc 1 2058 0
	movl	$unroll6x6a_descr, %edx
	movl	$combine1, %esi
	movl	$unroll6x6a_combine, %edi
	call	add_combiner
.LVL1612:
	.loc 1 2059 0
	movl	$unroll7x7a_descr, %edx
	movl	$combine1, %esi
	movl	$unroll7x7a_combine, %edi
	call	add_combiner
.LVL1613:
	.loc 1 2060 0
	movl	$unroll8x4a_descr, %edx
	movl	$combine1, %esi
	movl	$unroll8x4a_combine, %edi
	call	add_combiner
.LVL1614:
	.loc 1 2061 0
	movl	$unroll8x8a_descr, %edx
	movl	$combine1, %esi
	movl	$unroll8x8a_combine, %edi
	call	add_combiner
.LVL1615:
	.loc 1 2062 0
	movl	$unroll9x9a_descr, %edx
	movl	$combine1, %esi
	movl	$unroll9x9a_combine, %edi
	call	add_combiner
.LVL1616:
	.loc 1 2063 0
	movl	$unroll10x10a_descr, %edx
	movl	$combine1, %esi
	movl	$unroll10x10a_combine, %edi
	call	add_combiner
.LVL1617:
	.loc 1 2064 0
	movl	$unroll12x6a_descr, %edx
	movl	$combine1, %esi
	movl	$unroll12x6a_combine, %edi
	call	add_combiner
.LVL1618:
	.loc 1 2065 0
	movl	$unroll12x12a_descr, %edx
	movl	$combine1, %esi
	movl	$unroll12x12a_combine, %edi
	call	add_combiner
.LVL1619:
	.loc 1 2066 0
	movl	$unroll16x16a_descr, %edx
	movl	$combine1, %esi
	movl	$unroll16x16a_combine, %edi
	call	add_combiner
.LVL1620:
	.loc 1 2067 0
	movl	$unroll20x20a_descr, %edx
	movl	$combine1, %esi
	movl	$unroll20x20a_combine, %edi
	call	add_combiner
.LVL1621:
	.loc 1 2068 0
	movl	$unroll8x2_descr, %edx
	movl	$combine1, %esi
	movl	$unroll8x2_combine, %edi
	call	add_combiner
.LVL1622:
	.loc 1 2069 0
	movl	$unroll8x4_descr, %edx
	movl	$combine1, %esi
	movl	$unroll8x4_combine, %edi
	call	add_combiner
.LVL1623:
	.loc 1 2070 0
	movl	$unroll8x8_descr, %edx
	movl	$combine1, %esi
	movl	$unroll8x8_combine, %edi
	call	add_combiner
.LVL1624:
	.loc 1 2071 0
	movl	$unroll9x3_descr, %edx
	movl	$combine1, %esi
	movl	$unroll9x3_combine, %edi
	call	add_combiner
.LVL1625:
	.loc 1 2072 0
	movl	$unrollx2as_descr, %edx
	movl	$combine1, %esi
	movl	$unrollx2as_combine, %edi
	call	add_combiner
.LVL1626:
	.loc 1 2073 0
	movl	$combine7_descr, %edx
	movl	$combine1, %esi
	movl	$combine7, %edi
	call	add_combiner
.LVL1627:
	.loc 1 2074 0
	movl	$unroll3aa_descr, %edx
	movl	$combine1, %esi
	movl	$unroll3aa_combine, %edi
	call	add_combiner
.LVL1628:
	.loc 1 2075 0
	movl	$unroll4aa_descr, %edx
	movl	$combine1, %esi
	movl	$unroll4aa_combine, %edi
	call	add_combiner
.LVL1629:
	.loc 1 2076 0
	movl	$unroll5aa_descr, %edx
	movl	$combine1, %esi
	movl	$unroll5aa_combine, %edi
	call	add_combiner
.LVL1630:
	.loc 1 2077 0
	movl	$unroll6aa_descr, %edx
	movl	$combine1, %esi
	movl	$unroll6aa_combine, %edi
	call	add_combiner
.LVL1631:
	.loc 1 2078 0
	movl	$unroll7aa_descr, %edx
	movl	$combine1, %esi
	movl	$unroll7aa_combine, %edi
	call	add_combiner
.LVL1632:
	.loc 1 2079 0
	movl	$unroll8aa_descr, %edx
	movl	$combine1, %esi
	movl	$unroll8aa_combine, %edi
	call	add_combiner
.LVL1633:
	.loc 1 2080 0
	movl	$unroll9aa_descr, %edx
	movl	$combine1, %esi
	movl	$unroll9aa_combine, %edi
	call	add_combiner
.LVL1634:
	.loc 1 2081 0
	movl	$unroll10aa_descr, %edx
	movl	$combine1, %esi
	movl	$unroll10aa_combine, %edi
	call	add_combiner
.LVL1635:
	.loc 1 2082 0
	movl	$unroll12aa_descr, %edx
	movl	$combine1, %esi
	movl	$unroll12aa_combine, %edi
	call	add_combiner
.LVL1636:
	.loc 1 2083 0
	movl	$simd_v1_descr, %edx
	movl	$combine1, %esi
	movl	$simd_v1_combine, %edi
	call	add_combiner
.LVL1637:
	.loc 1 2084 0
	movl	$simd_v2_descr, %edx
	movl	$combine1, %esi
	movl	$simd_v2_combine, %edi
	call	add_combiner
.LVL1638:
	.loc 1 2085 0
	movl	$simd_v4_descr, %edx
	movl	$combine1, %esi
	movl	$simd_v4_combine, %edi
	call	add_combiner
.LVL1639:
	.loc 1 2086 0
	movl	$simd_v8_descr, %edx
	movl	$combine1, %esi
	movl	$simd_v8_combine, %edi
	call	add_combiner
.LVL1640:
	.loc 1 2087 0
	movl	$simd_v10_descr, %edx
	movl	$combine1, %esi
	movl	$simd_v10_combine, %edi
	call	add_combiner
.LVL1641:
	.loc 1 2088 0
	movl	$simd_v12_descr, %edx
	movl	$combine1, %esi
	movl	$simd_v12_combine, %edi
	call	add_combiner
.LVL1642:
	.loc 1 2089 0
	movl	$simd_v2a_descr, %edx
	movl	$combine1, %esi
	movl	$simd_v2a_combine, %edi
	call	add_combiner
.LVL1643:
	.loc 1 2090 0
	movl	$simd_v4a_descr, %edx
	movl	$combine1, %esi
	movl	$simd_v4a_combine, %edi
	call	add_combiner
.LVL1644:
	.loc 1 2091 0
	movl	$simd_v8a_descr, %edx
	movl	$combine1, %esi
	movl	$simd_v8a_combine, %edi
	call	add_combiner
.LVL1645:
	.loc 1 2092 0
	vmovsd	.LC1(%rip), %xmm1
	vmovsd	.LC2(%rip), %xmm0
	movl	$simd_v8a_combine, %edi
	call	log_combiner
.LVL1646:
	.loc 1 2094 0
	addq	$8, %rsp
	.cfi_def_cfa_offset 8
	ret
	.cfi_endproc
.LFE65:
	.size	register_combiners, .-register_combiners
	.globl	simd_v8a_descr
	.data
	.align 32
	.type	simd_v8a_descr, @object
	.size	simd_v8a_descr, 57
simd_v8a_descr:
	.string	"simd_v8a: SSE code, 8*VSIZE-way parallelism, reassociate"
	.globl	simd_v4a_descr
	.align 32
	.type	simd_v4a_descr, @object
	.size	simd_v4a_descr, 57
simd_v4a_descr:
	.string	"simd_v4a: SSE code, 4*VSIZE-way parallelism, reassociate"
	.globl	simd_v2a_descr
	.align 32
	.type	simd_v2a_descr, @object
	.size	simd_v2a_descr, 57
simd_v2a_descr:
	.string	"simd_v2a: SSE code, 2*VSIZE-way parallelism, reassociate"
	.globl	simd_v12_descr
	.align 32
	.type	simd_v12_descr, @object
	.size	simd_v12_descr, 45
simd_v12_descr:
	.string	"simd_v12: SSE code, 12*VSIZE-way parallelism"
	.globl	simd_v10_descr
	.align 32
	.type	simd_v10_descr, @object
	.size	simd_v10_descr, 45
simd_v10_descr:
	.string	"simd_v10: SSE code, 10*VSIZE-way parallelism"
	.globl	simd_v8_descr
	.align 32
	.type	simd_v8_descr, @object
	.size	simd_v8_descr, 43
simd_v8_descr:
	.string	"simd_v8: SSE code, 8*VSIZE-way parallelism"
	.globl	simd_v4_descr
	.align 32
	.type	simd_v4_descr, @object
	.size	simd_v4_descr, 43
simd_v4_descr:
	.string	"simd_v4: SSE code, 4*VSIZE-way parallelism"
	.globl	simd_v2_descr
	.align 32
	.type	simd_v2_descr, @object
	.size	simd_v2_descr, 43
simd_v2_descr:
	.string	"simd_v2: SSE code, 2*VSIZE-way parallelism"
	.globl	simd_v1_descr
	.align 32
	.type	simd_v1_descr, @object
	.size	simd_v1_descr, 43
simd_v1_descr:
	.string	"simd_v1: SSE code, 1*VSIZE-way parallelism"
	.globl	unroll12aa_descr
	.align 32
	.type	unroll12aa_descr, @object
	.size	unroll12aa_descr, 64
unroll12aa_descr:
	.string	"unroll12aa: Array code, unrolled by 12, Different Associativity"
	.globl	unroll10aa_descr
	.align 32
	.type	unroll10aa_descr, @object
	.size	unroll10aa_descr, 64
unroll10aa_descr:
	.string	"unroll10aa: Array code, unrolled by 10, Different Associativity"
	.globl	unroll9aa_descr
	.align 32
	.type	unroll9aa_descr, @object
	.size	unroll9aa_descr, 62
unroll9aa_descr:
	.string	"unroll9aa: Array code, unrolled by 9, Different Associativity"
	.globl	unroll8aa_descr
	.align 32
	.type	unroll8aa_descr, @object
	.size	unroll8aa_descr, 62
unroll8aa_descr:
	.string	"unroll8aa: Array code, unrolled by 8, Different Associativity"
	.globl	unroll7aa_descr
	.align 32
	.type	unroll7aa_descr, @object
	.size	unroll7aa_descr, 62
unroll7aa_descr:
	.string	"unroll7aa: Array code, unrolled by 7, Different Associativity"
	.globl	unroll6aa_descr
	.align 32
	.type	unroll6aa_descr, @object
	.size	unroll6aa_descr, 62
unroll6aa_descr:
	.string	"unroll6aa: Array code, unrolled by 6, Different Associativity"
	.globl	unroll5aa_descr
	.align 32
	.type	unroll5aa_descr, @object
	.size	unroll5aa_descr, 62
unroll5aa_descr:
	.string	"unroll5aa: Array code, unrolled by 5, Different Associativity"
	.globl	unroll4aa_descr
	.align 32
	.type	unroll4aa_descr, @object
	.size	unroll4aa_descr, 62
unroll4aa_descr:
	.string	"unroll4aa: Array code, unrolled by 4, Different Associativity"
	.globl	unroll3aa_descr
	.align 32
	.type	unroll3aa_descr, @object
	.size	unroll3aa_descr, 62
unroll3aa_descr:
	.string	"unroll3aa: Array code, unrolled by 3, Different Associativity"
	.globl	combine7_descr
	.align 32
	.type	combine7_descr, @object
	.size	combine7_descr, 61
combine7_descr:
	.string	"combine7: Array code, unrolled by 2, different associativity"
	.globl	unroll8x8_descr
	.align 32
	.type	unroll8x8_descr, @object
	.size	unroll8x8_descr, 55
unroll8x8_descr:
	.string	"unroll8x8: Pointer code, unrolled by 8, Superscalar x8"
	.globl	unroll8x4_descr
	.align 32
	.type	unroll8x4_descr, @object
	.size	unroll8x4_descr, 55
unroll8x4_descr:
	.string	"unroll8x4: Pointer code, unrolled by 8, Superscalar x4"
	.globl	unroll9x3_descr
	.align 32
	.type	unroll9x3_descr, @object
	.size	unroll9x3_descr, 55
unroll9x3_descr:
	.string	"unroll9x3: Pointer code, unrolled by 9, Superscalar x3"
	.globl	unroll8x2_descr
	.align 32
	.type	unroll8x2_descr, @object
	.size	unroll8x2_descr, 55
unroll8x2_descr:
	.string	"unroll8x2: Pointer code, unrolled by 8, Superscalar x2"
	.globl	unroll4x2as_descr
	.align 32
	.type	unroll4x2as_descr, @object
	.size	unroll4x2as_descr, 67
unroll4x2as_descr:
	.string	"unroll4x2as: Array code, Unroll x4, Superscalar x2, noninterleaved"
	.globl	unrollx2as_descr
	.align 32
	.type	unrollx2as_descr, @object
	.size	unrollx2as_descr, 66
unrollx2as_descr:
	.string	"unrollx2as: Array code, Unroll x2, Superscalar x2, noninterleaved"
	.globl	unroll10x10a_descr
	.align 32
	.type	unroll10x10a_descr, @object
	.size	unroll10x10a_descr, 58
unroll10x10a_descr:
	.string	"unroll10x10a: Array code, unrolled by 10, Superscalar x10"
	.globl	unroll9x9a_descr
	.align 32
	.type	unroll9x9a_descr, @object
	.size	unroll9x9a_descr, 54
unroll9x9a_descr:
	.string	"unroll9x9a: Array code, unrolled by 9, Superscalar x9"
	.globl	unroll8x8a_descr
	.align 32
	.type	unroll8x8a_descr, @object
	.size	unroll8x8a_descr, 54
unroll8x8a_descr:
	.string	"unroll8x8a: Array code, unrolled by 8, Superscalar x8"
	.globl	unroll7x7a_descr
	.align 32
	.type	unroll7x7a_descr, @object
	.size	unroll7x7a_descr, 54
unroll7x7a_descr:
	.string	"unroll7x7a: Array code, unrolled by 7, Superscalar x7"
	.globl	unroll6x6a_descr
	.align 32
	.type	unroll6x6a_descr, @object
	.size	unroll6x6a_descr, 54
unroll6x6a_descr:
	.string	"unroll6x6a: Array code, unrolled by 6, Superscalar x6"
	.globl	unroll5x5a_descr
	.align 32
	.type	unroll5x5a_descr, @object
	.size	unroll5x5a_descr, 54
unroll5x5a_descr:
	.string	"unroll5x5a: Array code, unrolled by 5, Superscalar x5"
	.globl	unroll20x20a_descr
	.align 32
	.type	unroll20x20a_descr, @object
	.size	unroll20x20a_descr, 58
unroll20x20a_descr:
	.string	"unroll20x20a: Array code, unrolled by 20, Superscalar x20"
	.globl	unroll16x16a_descr
	.align 32
	.type	unroll16x16a_descr, @object
	.size	unroll16x16a_descr, 58
unroll16x16a_descr:
	.string	"unroll16x16a: Array code, unrolled by 16, Superscalar x16"
	.globl	unroll12x12a_descr
	.align 32
	.type	unroll12x12a_descr, @object
	.size	unroll12x12a_descr, 58
unroll12x12a_descr:
	.string	"unroll12x12a: Array code, unrolled by 12, Superscalar x12"
	.globl	unroll12x6a_descr
	.align 32
	.type	unroll12x6a_descr, @object
	.size	unroll12x6a_descr, 55
unroll12x6a_descr:
	.string	"unroll2x6a: Array code, unrolled by 12, Superscalar x6"
	.globl	unroll8x4a_descr
	.align 32
	.type	unroll8x4a_descr, @object
	.size	unroll8x4a_descr, 54
unroll8x4a_descr:
	.string	"unroll8x4a: Array code, unrolled by 8, Superscalar x4"
	.globl	unroll4x4a_descr
	.align 32
	.type	unroll4x4a_descr, @object
	.size	unroll4x4a_descr, 54
unroll4x4a_descr:
	.string	"unroll4x4a: Array code, unrolled by 4, Superscalar x4"
	.globl	unroll3x3a_descr
	.align 32
	.type	unroll3x3a_descr, @object
	.size	unroll3x3a_descr, 54
unroll3x3a_descr:
	.string	"unroll3x3a: Array code, unrolled by 3, Superscalar x3"
	.globl	unroll8x2a_descr
	.align 32
	.type	unroll8x2a_descr, @object
	.size	unroll8x2a_descr, 54
unroll8x2a_descr:
	.string	"unroll8x2a: Array code, unrolled by 8, Superscalar x2"
	.globl	unroll4x2a_descr
	.align 32
	.type	unroll4x2a_descr, @object
	.size	unroll4x2a_descr, 54
unroll4x2a_descr:
	.string	"unroll4x2a: Array code, unrolled by 4, Superscalar x2"
	.globl	combine6_descr
	.align 32
	.type	combine6_descr, @object
	.size	combine6_descr, 52
combine6_descr:
	.string	"combine6: Array code, unrolled by 2, Superscalar x2"
	.globl	unroll16_descr
	.align 32
	.type	unroll16_descr, @object
	.size	unroll16_descr, 39
unroll16_descr:
	.string	"unroll16: Pointer code, unrolled by 16"
	.globl	unroll8_descr
	.align 32
	.type	unroll8_descr, @object
	.size	unroll8_descr, 37
unroll8_descr:
	.string	"unroll8: Pointer code, unrolled by 8"
	.globl	unroll4_descr
	.align 32
	.type	unroll4_descr, @object
	.size	unroll4_descr, 37
unroll4_descr:
	.string	"unroll4: Pointer code, unrolled by 4"
	.globl	unroll3_descr
	.align 32
	.type	unroll3_descr, @object
	.size	unroll3_descr, 37
unroll3_descr:
	.string	"unroll3: Pointer code, unrolled by 3"
	.globl	unroll2_descr
	.align 32
	.type	unroll2_descr, @object
	.size	unroll2_descr, 37
unroll2_descr:
	.string	"unroll2: Pointer code, unrolled by 2"
	.globl	unroll16a_descr
	.align 32
	.type	unroll16a_descr, @object
	.size	unroll16a_descr, 38
unroll16a_descr:
	.string	"unroll16a: Array code, unrolled by 16"
	.globl	unroll10a_descr
	.align 32
	.type	unroll10a_descr, @object
	.size	unroll10a_descr, 38
unroll10a_descr:
	.string	"unroll10a: Array code, unrolled by 10"
	.globl	unroll9a_descr
	.align 32
	.type	unroll9a_descr, @object
	.size	unroll9a_descr, 36
unroll9a_descr:
	.string	"unroll9a: Array code, unrolled by 9"
	.globl	unroll8a_descr
	.align 32
	.type	unroll8a_descr, @object
	.size	unroll8a_descr, 36
unroll8a_descr:
	.string	"unroll8a: Array code, unrolled by 8"
	.globl	unroll7a_descr
	.align 32
	.type	unroll7a_descr, @object
	.size	unroll7a_descr, 36
unroll7a_descr:
	.string	"unroll7a: Array code, unrolled by 7"
	.globl	unroll6a_descr
	.align 32
	.type	unroll6a_descr, @object
	.size	unroll6a_descr, 36
unroll6a_descr:
	.string	"unroll6a: Array code, unrolled by 6"
	.globl	unroll5a_descr
	.align 32
	.type	unroll5a_descr, @object
	.size	unroll5a_descr, 36
unroll5a_descr:
	.string	"unroll5a: Array code, unrolled by 5"
	.globl	unroll4a_descr
	.align 32
	.type	unroll4a_descr, @object
	.size	unroll4a_descr, 36
unroll4a_descr:
	.string	"unroll4a: Array code, unrolled by 4"
	.globl	unroll2aw_descr
	.align 32
	.type	unroll2aw_descr, @object
	.size	unroll2aw_descr, 49
unroll2aw_descr:
	.string	"unroll2aw: Array code, unrolled by 2, while loop"
	.globl	combine5p_descr
	.align 32
	.type	combine5p_descr, @object
	.size	combine5p_descr, 49
combine5p_descr:
	.string	"combine5p: Pointer code, unrolled by 2, for loop"
	.globl	unroll3a_descr
	.align 32
	.type	unroll3a_descr, @object
	.size	unroll3a_descr, 36
unroll3a_descr:
	.string	"unroll3a: Array code, unrolled by 3"
	.globl	combine5_descr
	.align 32
	.type	combine5_descr, @object
	.size	combine5_descr, 36
combine5_descr:
	.string	"combine5: Array code, unrolled by 2"
	.globl	combine4p_descr
	.align 32
	.type	combine4p_descr, @object
	.size	combine4p_descr, 54
combine4p_descr:
	.string	"combine4p: Pointer reference, accumulate in temporary"
	.globl	combine4b_descr
	.align 32
	.type	combine4b_descr, @object
	.size	combine4b_descr, 39
combine4b_descr:
	.string	"combine4b: Include bonds check in loop"
	.globl	combine4_descr
	.align 32
	.type	combine4_descr, @object
	.size	combine4_descr, 51
combine4_descr:
	.string	"combine4: Array reference, accumulate in temporary"
	.globl	combine3w_descr
	.align 32
	.type	combine3w_descr, @object
	.size	combine3w_descr, 52
combine3w_descr:
	.string	"combine3w: Update *dest within loop only with write"
	.globl	combine3_descr
	.align 32
	.type	combine3_descr, @object
	.size	combine3_descr, 41
combine3_descr:
	.string	"combine3: Array reference to vector data"
	.globl	combine2_descr
	.align 32
	.type	combine2_descr, @object
	.size	combine2_descr, 40
combine2_descr:
	.string	"combine2: Take vec_length() out of loop"
	.globl	combine1_descr
	.align 32
	.type	combine1_descr, @object
	.size	combine1_descr, 42
combine1_descr:
	.string	"combine1: Maximum use of data abstraction"
	.section	.rodata.cst4,"aM",@progbits,4
	.align 4
.LC0:
	.long	1065353216
	.section	.rodata.cst8,"aM",@progbits,8
	.align 8
.LC1:
	.long	3951369912
	.long	1070512209
	.align 8
.LC2:
	.long	1202590843
	.long	1069841121
	.text
.Letext0:
	.file 2 "vec.h"
	.file 3 "combine.h"
	.section	.note.GNU-stack,"",@progbits
