	.file	"lower.c"
	.text
.Ltext0:
	.type	run_test, @function
run_test:
.LFB64:
	.file 1 "lower.c"
	.loc 1 93 0
	.cfi_startproc
.LVL0:
	pushq	%rbx
	.cfi_def_cfa_offset 16
	.cfi_offset 3, -16
	subq	$16, %rsp
	.cfi_def_cfa_offset 32
	movq	%rdi, %rbx
	movq	%rsi, 8(%rsp)
	.loc 1 97 0
	movl	$0, %edi
.LVL1:
	call	set_fcyc_compensate
.LVL2:
	.loc 1 98 0
	leaq	8(%rsp), %rsi
.LVL3:
	movq	%rbx, %rdi
	call	fcyc
.LVL4:
	.loc 1 99 0
	vmovsd	.LC0(%rip), %xmm1
	vmulsd	clock_rate(%rip), %xmm1, %xmm1
	vdivsd	%xmm1, %xmm0, %xmm0
.LVL5:
	.loc 1 101 0
	addq	$16, %rsp
	.cfi_def_cfa_offset 16
	popq	%rbx
	.cfi_def_cfa_offset 8
.LVL6:
	ret
	.cfi_endproc
.LFE64:
	.size	run_test, .-run_test
	.globl	strlen
	.type	strlen, @function
strlen:
.LFB61:
	.loc 1 65 0
	.cfi_startproc
.LVL7:
	.loc 1 67 0
	cmpb	$0, (%rdi)
	je	.L6
	.loc 1 66 0
	movl	$0, %eax
.LVL8:
.L5:
	.loc 1 69 0
	addq	$1, %rax
.LVL9:
	.loc 1 67 0
	cmpb	$0, (%rdi,%rax)
	jne	.L5
	rep; ret
.LVL10:
.L6:
	.loc 1 66 0
	movl	$0, %eax
	.loc 1 72 0
	ret
	.cfi_endproc
.LFE61:
	.size	strlen, .-strlen
	.globl	lower1
	.type	lower1, @function
lower1:
.LFB59:
	.loc 1 43 0
	.cfi_startproc
.LVL11:
	movq	%rdi, %rsi
.LVL12:
	.loc 1 46 0
	movl	$0, %edx
	movq	$-1, %r10
	movl	$0, %eax
	jmp	.L8
.LVL13:
.L10:
	.loc 1 47 0
	movzbl	(%rsi,%rdx), %edi
	leal	-65(%rdi), %r8d
	cmpb	$25, %r8b
	ja	.L9
	.loc 1 48 0
	addl	$32, %edi
	movb	%dil, (%rsi,%r9)
.L9:
	.loc 1 46 0
	addq	$1, %rdx
.LVL14:
.L8:
	.loc 1 46 0 is_stmt 0 discriminator 1
	movq	%rdx, %r9
	movq	%rsi, %rdi
	movq	%r10, %rcx
	repnz; scasb
	notq	%rcx
	movq	%rcx, %r8
	subq	$1, %r8
	cmpq	%r8, %rdx
	jb	.L10
	.loc 1 49 0 is_stmt 1
	rep; ret
	.cfi_endproc
.LFE59:
	.size	lower1, .-lower1
	.globl	test_lower1
	.type	test_lower1, @function
test_lower1:
.LFB62:
	.loc 1 76 0
	.cfi_startproc
.LVL15:
	pushq	%rbx
	.cfi_def_cfa_offset 16
	.cfi_offset 3, -16
	.loc 1 77 0
	movq	(%rdi), %rbx
.LVL16:
.LBB26:
.LBB27:
	.loc 1 32 0
	movb	$0, data(%rbx)
.LBE27:
.LBE26:
	.loc 1 79 0
	movl	$data, %edi
.LVL17:
	call	lower1
.LVL18:
.LBB28:
.LBB29:
	.loc 1 37 0
	movabsq	$5675921253449092805, %rdx
	movq	%rbx, %rax
	imulq	%rdx
	sarq	$3, %rdx
	movq	%rbx, %rax
	sarq	$63, %rax
	subq	%rax, %rdx
	leaq	(%rdx,%rdx,2), %rax
	leaq	(%rdx,%rax,4), %rax
	addq	%rax, %rax
	movq	%rbx, %rcx
	subq	%rax, %rcx
	movq	%rcx, %rax
	addl	$97, %eax
	movb	%al, data(%rbx)
.LBE29:
.LBE28:
	.loc 1 81 0
	popq	%rbx
	.cfi_def_cfa_offset 8
.LVL19:
	ret
	.cfi_endproc
.LFE62:
	.size	test_lower1, .-test_lower1
	.globl	lower2
	.type	lower2, @function
lower2:
.LFB60:
	.loc 1 53 0
	.cfi_startproc
.LVL20:
	movq	%rdi, %rsi
	.loc 1 55 0
	movl	$0, %eax
	movq	$-1, %rcx
	repnz; scasb
.LVL21:
	notq	%rcx
	subq	$1, %rcx
	movq	%rcx, %rdi
.LVL22:
	.loc 1 57 0
	testq	%rcx, %rcx
	jle	.L13
	movl	$0, %eax
.LVL23:
.L16:
	.loc 1 58 0
	movzbl	(%rsi,%rax), %edx
	leal	-65(%rdx), %ecx
	cmpb	$25, %cl
	ja	.L15
	.loc 1 59 0
	addl	$32, %edx
	movb	%dl, (%rsi,%rax)
.L15:
	.loc 1 57 0
	addq	$1, %rax
.LVL24:
	cmpq	%rax, %rdi
	jne	.L16
.LVL25:
.L13:
	rep; ret
	.cfi_endproc
.LFE60:
	.size	lower2, .-lower2
	.globl	test_lower2
	.type	test_lower2, @function
test_lower2:
.LFB63:
	.loc 1 84 0
	.cfi_startproc
.LVL26:
	pushq	%rbx
	.cfi_def_cfa_offset 16
	.cfi_offset 3, -16
	.loc 1 85 0
	movq	(%rdi), %rbx
.LVL27:
.LBB34:
.LBB35:
	.loc 1 32 0
	movb	$0, data(%rbx)
.LBE35:
.LBE34:
	.loc 1 87 0
	movl	$data, %edi
.LVL28:
	call	lower2
.LVL29:
.LBB36:
.LBB37:
	.loc 1 37 0
	movabsq	$5675921253449092805, %rdx
	movq	%rbx, %rax
	imulq	%rdx
	sarq	$3, %rdx
	movq	%rbx, %rax
	sarq	$63, %rax
	subq	%rax, %rdx
	leaq	(%rdx,%rdx,2), %rax
	leaq	(%rdx,%rax,4), %rax
	addq	%rax, %rax
	movq	%rbx, %rcx
	subq	%rax, %rcx
	movq	%rcx, %rax
	addl	$97, %eax
	movb	%al, data(%rbx)
.LBE37:
.LBE36:
	.loc 1 89 0
	popq	%rbx
	.cfi_def_cfa_offset 8
.LVL30:
	ret
	.cfi_endproc
.LFE63:
	.size	test_lower2, .-test_lower2
	.section	.rodata.str1.1,"aMS",@progbits,1
.LC1:
	.string	"Length\tlower1\tlower2"
.LC2:
	.string	"%ld"
.LC3:
	.string	"\t%f"
.LC4:
	.string	"\t%f\n"
	.text
	.globl	linear
	.type	linear, @function
linear:
.LFB65:
	.loc 1 106 0
	.cfi_startproc
	pushq	%rbx
	.cfi_def_cfa_offset 16
	.cfi_offset 3, -16
.LVL31:
.LBB38:
.LBB39:
	.file 2 "/usr/include/x86_64-linux-gnu/bits/stdio2.h"
	.loc 2 105 0
	movl	$.LC1, %edi
	call	puts
.LVL32:
.LBE39:
.LBE38:
	.loc 1 109 0
	movl	$20000, %ebx
.LVL33:
.L21:
.LBB40:
.LBB41:
	.loc 2 105 0
	movq	%rbx, %rdx
	movl	$.LC2, %esi
	movl	$1, %edi
	movl	$0, %eax
	call	__printf_chk
.LVL34:
.LBE41:
.LBE40:
	.loc 1 111 0
	movq	%rbx, %rsi
	movl	$test_lower1, %edi
	call	run_test
.LVL35:
.LBB42:
.LBB43:
	.loc 2 105 0
	movl	$.LC3, %esi
	movl	$1, %edi
	movl	$1, %eax
	call	__printf_chk
.LVL36:
.LBE43:
.LBE42:
	.loc 1 112 0
	movq	%rbx, %rsi
	movl	$test_lower2, %edi
	call	run_test
.LVL37:
.LBB44:
.LBB45:
	.loc 2 105 0
	movl	$.LC4, %esi
	movl	$1, %edi
	movl	$1, %eax
	call	__printf_chk
.LVL38:
.LBE45:
.LBE44:
	.loc 1 109 0
	addq	$20000, %rbx
.LVL39:
	cmpq	$520000, %rbx
	jne	.L21
	.loc 1 114 0
	popq	%rbx
	.cfi_def_cfa_offset 8
.LVL40:
	ret
	.cfi_endproc
.LFE65:
	.size	linear, .-linear
	.section	.rodata.str1.1
.LC5:
	.string	"& %ld "
.LC6:
	.string	" \\\\"
.LC7:
	.string	"& %.2f "
.LC8:
	.string	"& %.4f "
	.text
	.globl	expo
	.type	expo, @function
expo:
.LFB66:
	.loc 1 117 0
	.cfi_startproc
	pushq	%rbx
	.cfi_def_cfa_offset 16
	.cfi_offset 3, -16
.LVL41:
	.loc 1 119 0
	movl	$16384, %ebx
.LVL42:
.L25:
.LBB46:
.LBB47:
	.loc 2 105 0
	movq	%rbx, %rdx
	movl	$.LC5, %esi
	movl	$1, %edi
	movl	$0, %eax
	call	__printf_chk
.LVL43:
.LBE47:
.LBE46:
	.loc 1 119 0
	addq	%rbx, %rbx
.LVL44:
	cmpq	$1048576, %rbx
	jle	.L25
.LVL45:
.LBB48:
.LBB49:
	.loc 2 105 0
	movl	$.LC6, %edi
	call	puts
.LVL46:
.LBE49:
.LBE48:
	.loc 1 122 0
	movl	$16384, %ebx
.LVL47:
.L27:
	.loc 1 123 0 discriminator 2
	movq	%rbx, %rsi
	movl	$test_lower1, %edi
	call	run_test
.LVL48:
.LBB50:
.LBB51:
	.loc 2 105 0 discriminator 2
	movl	$.LC7, %esi
	movl	$1, %edi
	movl	$1, %eax
	call	__printf_chk
.LVL49:
.LBE51:
.LBE50:
	.loc 1 122 0 discriminator 2
	addq	%rbx, %rbx
.LVL50:
	cmpq	$1048576, %rbx
	jle	.L27
.LVL51:
.LBB52:
.LBB53:
	.loc 2 105 0
	movl	$.LC6, %edi
	call	puts
.LVL52:
.LBE53:
.LBE52:
	.loc 1 125 0
	movl	$16384, %ebx
.LVL53:
.L29:
	.loc 1 126 0 discriminator 2
	movq	%rbx, %rsi
	movl	$test_lower2, %edi
	call	run_test
.LVL54:
.LBB54:
.LBB55:
	.loc 2 105 0 discriminator 2
	movl	$.LC8, %esi
	movl	$1, %edi
	movl	$1, %eax
	call	__printf_chk
.LVL55:
.LBE55:
.LBE54:
	.loc 1 125 0 discriminator 2
	addq	%rbx, %rbx
.LVL56:
	cmpq	$1048576, %rbx
	jle	.L29
.LVL57:
.LBB56:
.LBB57:
	.loc 2 105 0
	movl	$.LC6, %edi
	call	puts
.LVL58:
.LBE57:
.LBE56:
	.loc 1 128 0
	popq	%rbx
	.cfi_def_cfa_offset 8
.LVL59:
	ret
	.cfi_endproc
.LFE66:
	.size	expo, .-expo
	.globl	main
	.type	main, @function
main:
.LFB67:
	.loc 1 131 0
	.cfi_startproc
.LVL60:
	pushq	%rbx
	.cfi_def_cfa_offset 16
	.cfi_offset 3, -16
	movl	%edi, %ebx
.LVL61:
.LBB60:
.LBB61:
	.loc 1 26 0
	movl	$0, %ecx
	.loc 1 27 0
	movabsq	$5675921253449092805, %rsi
.LVL62:
.L33:
	movq	%rcx, %rax
	imulq	%rsi
	sarq	$3, %rdx
	movq	%rcx, %rax
	sarq	$63, %rax
	subq	%rax, %rdx
	leaq	(%rdx,%rdx,2), %rax
	leaq	(%rdx,%rax,4), %rax
	addq	%rax, %rax
	movq	%rcx, %rdi
	subq	%rax, %rdi
	movq	%rdi, %rax
	addl	$97, %eax
	movb	%al, data(%rcx)
	.loc 1 26 0
	addq	$1, %rcx
.LVL63:
	cmpq	$1048576, %rcx
	jne	.L33
.LBE61:
.LBE60:
	.loc 1 133 0
	movl	$1, %edi
	call	mhz
.LVL64:
	vmovsd	%xmm0, clock_rate(%rip)
	.loc 1 134 0
	cmpl	$1, %ebx
	jle	.L34
	.loc 1 135 0
	movl	$0, %eax
	call	expo
.LVL65:
	jmp	.L35
.L34:
	.loc 1 137 0
	movl	$0, %eax
	call	linear
.LVL66:
.L35:
	.loc 1 139 0
	movl	$0, %eax
	popq	%rbx
	.cfi_def_cfa_offset 8
.LVL67:
	ret
	.cfi_endproc
.LFE67:
	.size	main, .-main
	.local	clock_rate
	.comm	clock_rate,8,8
	.local	data
	.comm	data,1048576,32
	.section	.rodata.cst8,"aM",@progbits,8
	.align 8
.LC0:
	.long	0
	.long	1093567616
	.text
.Letext0:
	.file 3 "/usr/lib/gcc/x86_64-linux-gnu/4.8/include/stddef.h"
	.file 4 "/usr/include/x86_64-linux-gnu/bits/types.h"
	.file 5 "/usr/include/libio.h"
	.file 6 "../include/fcyc.h"
	.file 7 "/usr/include/string.h"
	.file 8 "/usr/include/stdio.h"
	.file 9 "<built-in>"
	.file 10 "../include/clock.h"
	.section	.note.GNU-stack,"",@progbits
